ARM GAS  /var/folders/l3/4y5292px21b4835bsnjwqc7w009kq1/T//ccaF8PhA.s 			page 1


   1              		.cpu cortex-m4
   2              		.eabi_attribute 27, 1
   3              		.eabi_attribute 20, 1
   4              		.eabi_attribute 21, 1
   5              		.eabi_attribute 23, 3
   6              		.eabi_attribute 24, 1
   7              		.eabi_attribute 25, 1
   8              		.eabi_attribute 26, 1
   9              		.eabi_attribute 30, 1
  10              		.eabi_attribute 34, 1
  11              		.eabi_attribute 18, 4
  12              		.file	"ROS_main.cpp"
  13              		.text
  14              	.Ltext0:
  15              		.cfi_sections	.debug_frame
  16              		.section	.text._ZNK8std_msgs4Time9serializeEPh,"axG",%progbits,_ZNK8std_msgs4Time9serializeEPh,com
  17              		.align	1
  18              		.weak	_ZNK8std_msgs4Time9serializeEPh
  19              		.syntax unified
  20              		.thumb
  21              		.thumb_func
  22              		.fpu fpv4-sp-d16
  24              	_ZNK8std_msgs4Time9serializeEPh:
  25              		.fnstart
  26              	.LFB378:
  27              		.file 1 "ROSSerial/std_msgs/Time.h"
   1:ROSSerial/std_msgs/Time.h **** #ifndef _ROS_std_msgs_Time_h
   2:ROSSerial/std_msgs/Time.h **** #define _ROS_std_msgs_Time_h
   3:ROSSerial/std_msgs/Time.h **** 
   4:ROSSerial/std_msgs/Time.h **** #include <stdint.h>
   5:ROSSerial/std_msgs/Time.h **** #include <string.h>
   6:ROSSerial/std_msgs/Time.h **** #include <stdlib.h>
   7:ROSSerial/std_msgs/Time.h **** #include "ros/msg.h"
   8:ROSSerial/std_msgs/Time.h **** #include "ros/time.h"
   9:ROSSerial/std_msgs/Time.h **** 
  10:ROSSerial/std_msgs/Time.h **** 
  11:ROSSerial/std_msgs/Time.h **** namespace std_msgs
  12:ROSSerial/std_msgs/Time.h **** {
  13:ROSSerial/std_msgs/Time.h **** 
  14:ROSSerial/std_msgs/Time.h ****   class Time : public ros::Msg
  15:ROSSerial/std_msgs/Time.h ****   {
  16:ROSSerial/std_msgs/Time.h ****     public:
  17:ROSSerial/std_msgs/Time.h ****       ros::Time data;
  18:ROSSerial/std_msgs/Time.h **** 
  19:ROSSerial/std_msgs/Time.h ****     virtual int serialize(unsigned char *outbuffer) const
  28              		.loc 1 19 0
  29              		.cfi_startproc
  30              		@ args = 0, pretend = 0, frame = 0
  31              		@ frame_needed = 0, uses_anonymous_args = 0
  32              		@ link register save eliminated.
  33              	.LVL0:
  20:ROSSerial/std_msgs/Time.h ****     {
  21:ROSSerial/std_msgs/Time.h ****       int offset = 0;
  22:ROSSerial/std_msgs/Time.h ****       *(outbuffer + offset + 0) = (this->data.sec >> (8 * 0)) & 0xFF;
  34              		.loc 1 22 0
  35 0000 4368     		ldr	r3, [r0, #4]
  36 0002 0B70     		strb	r3, [r1]
ARM GAS  /var/folders/l3/4y5292px21b4835bsnjwqc7w009kq1/T//ccaF8PhA.s 			page 2


  23:ROSSerial/std_msgs/Time.h ****       *(outbuffer + offset + 1) = (this->data.sec >> (8 * 1)) & 0xFF;
  37              		.loc 1 23 0
  38 0004 4368     		ldr	r3, [r0, #4]
  39 0006 1B0A     		lsrs	r3, r3, #8
  40 0008 4B70     		strb	r3, [r1, #1]
  24:ROSSerial/std_msgs/Time.h ****       *(outbuffer + offset + 2) = (this->data.sec >> (8 * 2)) & 0xFF;
  41              		.loc 1 24 0
  42 000a C388     		ldrh	r3, [r0, #6]
  43 000c 8B70     		strb	r3, [r1, #2]
  25:ROSSerial/std_msgs/Time.h ****       *(outbuffer + offset + 3) = (this->data.sec >> (8 * 3)) & 0xFF;
  44              		.loc 1 25 0
  45 000e C379     		ldrb	r3, [r0, #7]	@ zero_extendqisi2
  46 0010 CB70     		strb	r3, [r1, #3]
  47              	.LVL1:
  26:ROSSerial/std_msgs/Time.h ****       offset += sizeof(this->data.sec);
  27:ROSSerial/std_msgs/Time.h ****       *(outbuffer + offset + 0) = (this->data.nsec >> (8 * 0)) & 0xFF;
  48              		.loc 1 27 0
  49 0012 8368     		ldr	r3, [r0, #8]
  50 0014 0B71     		strb	r3, [r1, #4]
  28:ROSSerial/std_msgs/Time.h ****       *(outbuffer + offset + 1) = (this->data.nsec >> (8 * 1)) & 0xFF;
  51              		.loc 1 28 0
  52 0016 8368     		ldr	r3, [r0, #8]
  53 0018 1B0A     		lsrs	r3, r3, #8
  54 001a 4B71     		strb	r3, [r1, #5]
  29:ROSSerial/std_msgs/Time.h ****       *(outbuffer + offset + 2) = (this->data.nsec >> (8 * 2)) & 0xFF;
  55              		.loc 1 29 0
  56 001c 4389     		ldrh	r3, [r0, #10]
  57 001e 8B71     		strb	r3, [r1, #6]
  30:ROSSerial/std_msgs/Time.h ****       *(outbuffer + offset + 3) = (this->data.nsec >> (8 * 3)) & 0xFF;
  58              		.loc 1 30 0
  59 0020 C37A     		ldrb	r3, [r0, #11]	@ zero_extendqisi2
  60 0022 CB71     		strb	r3, [r1, #7]
  61              	.LVL2:
  31:ROSSerial/std_msgs/Time.h ****       offset += sizeof(this->data.nsec);
  32:ROSSerial/std_msgs/Time.h ****       return offset;
  33:ROSSerial/std_msgs/Time.h ****     }
  62              		.loc 1 33 0
  63 0024 0820     		movs	r0, #8
  64              	.LVL3:
  65 0026 7047     		bx	lr
  66              		.cfi_endproc
  67              	.LFE378:
  68              		.cantunwind
  69              		.fnend
  71              		.section	.text._ZN8std_msgs4Time11deserializeEPh,"axG",%progbits,_ZN8std_msgs4Time11deserializeEPh
  72              		.align	1
  73              		.weak	_ZN8std_msgs4Time11deserializeEPh
  74              		.syntax unified
  75              		.thumb
  76              		.thumb_func
  77              		.fpu fpv4-sp-d16
  79              	_ZN8std_msgs4Time11deserializeEPh:
  80              		.fnstart
  81              	.LFB379:
  34:ROSSerial/std_msgs/Time.h **** 
  35:ROSSerial/std_msgs/Time.h ****     virtual int deserialize(unsigned char *inbuffer)
  82              		.loc 1 35 0
ARM GAS  /var/folders/l3/4y5292px21b4835bsnjwqc7w009kq1/T//ccaF8PhA.s 			page 3


  83              		.cfi_startproc
  84              		@ args = 0, pretend = 0, frame = 0
  85              		@ frame_needed = 0, uses_anonymous_args = 0
  86              		@ link register save eliminated.
  87              	.LVL4:
  36:ROSSerial/std_msgs/Time.h ****     {
  37:ROSSerial/std_msgs/Time.h ****       int offset = 0;
  38:ROSSerial/std_msgs/Time.h ****       this->data.sec =  ((uint32_t) (*(inbuffer + offset)));
  88              		.loc 1 38 0
  89 0000 0B78     		ldrb	r3, [r1]	@ zero_extendqisi2
  90 0002 4360     		str	r3, [r0, #4]
  39:ROSSerial/std_msgs/Time.h ****       this->data.sec |= ((uint32_t) (*(inbuffer + offset + 1))) << (8 * 1);
  91              		.loc 1 39 0
  92 0004 4A78     		ldrb	r2, [r1, #1]	@ zero_extendqisi2
  93 0006 43EA0223 		orr	r3, r3, r2, lsl #8
  94 000a 4360     		str	r3, [r0, #4]
  40:ROSSerial/std_msgs/Time.h ****       this->data.sec |= ((uint32_t) (*(inbuffer + offset + 2))) << (8 * 2);
  95              		.loc 1 40 0
  96 000c 8A78     		ldrb	r2, [r1, #2]	@ zero_extendqisi2
  97 000e 43EA0243 		orr	r3, r3, r2, lsl #16
  98 0012 4360     		str	r3, [r0, #4]
  41:ROSSerial/std_msgs/Time.h ****       this->data.sec |= ((uint32_t) (*(inbuffer + offset + 3))) << (8 * 3);
  99              		.loc 1 41 0
 100 0014 CA78     		ldrb	r2, [r1, #3]	@ zero_extendqisi2
 101 0016 43EA0263 		orr	r3, r3, r2, lsl #24
 102 001a 4360     		str	r3, [r0, #4]
 103              	.LVL5:
  42:ROSSerial/std_msgs/Time.h ****       offset += sizeof(this->data.sec);
  43:ROSSerial/std_msgs/Time.h ****       this->data.nsec =  ((uint32_t) (*(inbuffer + offset)));
 104              		.loc 1 43 0
 105 001c 0B79     		ldrb	r3, [r1, #4]	@ zero_extendqisi2
 106 001e 8360     		str	r3, [r0, #8]
  44:ROSSerial/std_msgs/Time.h ****       this->data.nsec |= ((uint32_t) (*(inbuffer + offset + 1))) << (8 * 1);
 107              		.loc 1 44 0
 108 0020 4A79     		ldrb	r2, [r1, #5]	@ zero_extendqisi2
 109 0022 43EA0223 		orr	r3, r3, r2, lsl #8
 110 0026 8360     		str	r3, [r0, #8]
  45:ROSSerial/std_msgs/Time.h ****       this->data.nsec |= ((uint32_t) (*(inbuffer + offset + 2))) << (8 * 2);
 111              		.loc 1 45 0
 112 0028 8A79     		ldrb	r2, [r1, #6]	@ zero_extendqisi2
 113 002a 43EA0243 		orr	r3, r3, r2, lsl #16
 114 002e 8360     		str	r3, [r0, #8]
  46:ROSSerial/std_msgs/Time.h ****       this->data.nsec |= ((uint32_t) (*(inbuffer + offset + 3))) << (8 * 3);
 115              		.loc 1 46 0
 116 0030 CA79     		ldrb	r2, [r1, #7]	@ zero_extendqisi2
 117 0032 43EA0263 		orr	r3, r3, r2, lsl #24
 118 0036 8360     		str	r3, [r0, #8]
 119              	.LVL6:
  47:ROSSerial/std_msgs/Time.h ****       offset += sizeof(this->data.nsec);
  48:ROSSerial/std_msgs/Time.h ****      return offset;
  49:ROSSerial/std_msgs/Time.h ****     }
 120              		.loc 1 49 0
 121 0038 0820     		movs	r0, #8
 122              	.LVL7:
 123 003a 7047     		bx	lr
 124              		.cfi_endproc
 125              	.LFE379:
ARM GAS  /var/folders/l3/4y5292px21b4835bsnjwqc7w009kq1/T//ccaF8PhA.s 			page 4


 126              		.cantunwind
 127              		.fnend
 129              		.section	.text._ZN8std_msgs4Time7getTypeEv,"axG",%progbits,_ZN8std_msgs4Time7getTypeEv,comdat
 130              		.align	1
 131              		.weak	_ZN8std_msgs4Time7getTypeEv
 132              		.syntax unified
 133              		.thumb
 134              		.thumb_func
 135              		.fpu fpv4-sp-d16
 137              	_ZN8std_msgs4Time7getTypeEv:
 138              		.fnstart
 139              	.LFB380:
  50:ROSSerial/std_msgs/Time.h **** 
  51:ROSSerial/std_msgs/Time.h ****     const char * getType(){ return "std_msgs/Time"; };
 140              		.loc 1 51 0
 141              		.cfi_startproc
 142              		@ args = 0, pretend = 0, frame = 0
 143              		@ frame_needed = 0, uses_anonymous_args = 0
 144              		@ link register save eliminated.
 145              	.LVL8:
 146              		.loc 1 51 0
 147 0000 0048     		ldr	r0, .L4
 148              	.LVL9:
 149 0002 7047     		bx	lr
 150              	.L5:
 151              		.align	2
 152              	.L4:
 153 0004 00000000 		.word	.LC0
 154              		.cfi_endproc
 155              	.LFE380:
 156              		.cantunwind
 157              		.fnend
 159              		.section	.text._ZN8std_msgs4Time6getMD5Ev,"axG",%progbits,_ZN8std_msgs4Time6getMD5Ev,comdat
 160              		.align	1
 161              		.weak	_ZN8std_msgs4Time6getMD5Ev
 162              		.syntax unified
 163              		.thumb
 164              		.thumb_func
 165              		.fpu fpv4-sp-d16
 167              	_ZN8std_msgs4Time6getMD5Ev:
 168              		.fnstart
 169              	.LFB381:
  52:ROSSerial/std_msgs/Time.h ****     const char * getMD5(){ return "cd7166c74c552c311fbcc2fe5a7bc289"; };
 170              		.loc 1 52 0
 171              		.cfi_startproc
 172              		@ args = 0, pretend = 0, frame = 0
 173              		@ frame_needed = 0, uses_anonymous_args = 0
 174              		@ link register save eliminated.
 175              	.LVL10:
 176              		.loc 1 52 0
 177 0000 0048     		ldr	r0, .L7
 178              	.LVL11:
 179 0002 7047     		bx	lr
 180              	.L8:
 181              		.align	2
 182              	.L7:
 183 0004 00000000 		.word	.LC1
ARM GAS  /var/folders/l3/4y5292px21b4835bsnjwqc7w009kq1/T//ccaF8PhA.s 			page 5


 184              		.cfi_endproc
 185              	.LFE381:
 186              		.cantunwind
 187              		.fnend
 189              		.section	.text._ZN14rosserial_msgs9TopicInfo11deserializeEPh,"axG",%progbits,_ZN14rosserial_msgs9T
 190              		.align	1
 191              		.weak	_ZN14rosserial_msgs9TopicInfo11deserializeEPh
 192              		.syntax unified
 193              		.thumb
 194              		.thumb_func
 195              		.fpu fpv4-sp-d16
 197              	_ZN14rosserial_msgs9TopicInfo11deserializeEPh:
 198              		.fnstart
 199              	.LFB383:
 200              		.file 2 "ROSSerial/rosserial_msgs/TopicInfo.h"
   1:ROSSerial/rosserial_msgs/TopicInfo.h **** #ifndef _ROS_rosserial_msgs_TopicInfo_h
   2:ROSSerial/rosserial_msgs/TopicInfo.h **** #define _ROS_rosserial_msgs_TopicInfo_h
   3:ROSSerial/rosserial_msgs/TopicInfo.h **** 
   4:ROSSerial/rosserial_msgs/TopicInfo.h **** #include <stdint.h>
   5:ROSSerial/rosserial_msgs/TopicInfo.h **** #include <string.h>
   6:ROSSerial/rosserial_msgs/TopicInfo.h **** #include <stdlib.h>
   7:ROSSerial/rosserial_msgs/TopicInfo.h **** #include "ros/msg.h"
   8:ROSSerial/rosserial_msgs/TopicInfo.h **** 
   9:ROSSerial/rosserial_msgs/TopicInfo.h **** namespace rosserial_msgs
  10:ROSSerial/rosserial_msgs/TopicInfo.h **** {
  11:ROSSerial/rosserial_msgs/TopicInfo.h **** 
  12:ROSSerial/rosserial_msgs/TopicInfo.h ****   class TopicInfo : public ros::Msg
  13:ROSSerial/rosserial_msgs/TopicInfo.h ****   {
  14:ROSSerial/rosserial_msgs/TopicInfo.h ****     public:
  15:ROSSerial/rosserial_msgs/TopicInfo.h ****       uint16_t topic_id;
  16:ROSSerial/rosserial_msgs/TopicInfo.h ****       const char* topic_name;
  17:ROSSerial/rosserial_msgs/TopicInfo.h ****       const char* message_type;
  18:ROSSerial/rosserial_msgs/TopicInfo.h ****       const char* md5sum;
  19:ROSSerial/rosserial_msgs/TopicInfo.h ****       int32_t buffer_size;
  20:ROSSerial/rosserial_msgs/TopicInfo.h ****       enum { ID_PUBLISHER = 0 };
  21:ROSSerial/rosserial_msgs/TopicInfo.h ****       enum { ID_SUBSCRIBER = 1 };
  22:ROSSerial/rosserial_msgs/TopicInfo.h ****       enum { ID_SERVICE_SERVER = 2 };
  23:ROSSerial/rosserial_msgs/TopicInfo.h ****       enum { ID_SERVICE_CLIENT = 4 };
  24:ROSSerial/rosserial_msgs/TopicInfo.h ****       enum { ID_PARAMETER_REQUEST = 6 };
  25:ROSSerial/rosserial_msgs/TopicInfo.h ****       enum { ID_LOG = 7 };
  26:ROSSerial/rosserial_msgs/TopicInfo.h ****       enum { ID_TIME = 10 };
  27:ROSSerial/rosserial_msgs/TopicInfo.h ****       enum { ID_TX_STOP = 11 };
  28:ROSSerial/rosserial_msgs/TopicInfo.h **** 
  29:ROSSerial/rosserial_msgs/TopicInfo.h ****     virtual int serialize(unsigned char *outbuffer) const
  30:ROSSerial/rosserial_msgs/TopicInfo.h ****     {
  31:ROSSerial/rosserial_msgs/TopicInfo.h ****       int offset = 0;
  32:ROSSerial/rosserial_msgs/TopicInfo.h ****       *(outbuffer + offset + 0) = (this->topic_id >> (8 * 0)) & 0xFF;
  33:ROSSerial/rosserial_msgs/TopicInfo.h ****       *(outbuffer + offset + 1) = (this->topic_id >> (8 * 1)) & 0xFF;
  34:ROSSerial/rosserial_msgs/TopicInfo.h ****       offset += sizeof(this->topic_id);
  35:ROSSerial/rosserial_msgs/TopicInfo.h ****       uint32_t length_topic_name = strlen(this->topic_name);
  36:ROSSerial/rosserial_msgs/TopicInfo.h ****       memcpy(outbuffer + offset, &length_topic_name, sizeof(uint32_t));
  37:ROSSerial/rosserial_msgs/TopicInfo.h ****       offset += 4;
  38:ROSSerial/rosserial_msgs/TopicInfo.h ****       memcpy(outbuffer + offset, this->topic_name, length_topic_name);
  39:ROSSerial/rosserial_msgs/TopicInfo.h ****       offset += length_topic_name;
  40:ROSSerial/rosserial_msgs/TopicInfo.h ****       uint32_t length_message_type = strlen(this->message_type);
  41:ROSSerial/rosserial_msgs/TopicInfo.h ****       memcpy(outbuffer + offset, &length_message_type, sizeof(uint32_t));
  42:ROSSerial/rosserial_msgs/TopicInfo.h ****       offset += 4;
ARM GAS  /var/folders/l3/4y5292px21b4835bsnjwqc7w009kq1/T//ccaF8PhA.s 			page 6


  43:ROSSerial/rosserial_msgs/TopicInfo.h ****       memcpy(outbuffer + offset, this->message_type, length_message_type);
  44:ROSSerial/rosserial_msgs/TopicInfo.h ****       offset += length_message_type;
  45:ROSSerial/rosserial_msgs/TopicInfo.h ****       uint32_t length_md5sum = strlen(this->md5sum);
  46:ROSSerial/rosserial_msgs/TopicInfo.h ****       memcpy(outbuffer + offset, &length_md5sum, sizeof(uint32_t));
  47:ROSSerial/rosserial_msgs/TopicInfo.h ****       offset += 4;
  48:ROSSerial/rosserial_msgs/TopicInfo.h ****       memcpy(outbuffer + offset, this->md5sum, length_md5sum);
  49:ROSSerial/rosserial_msgs/TopicInfo.h ****       offset += length_md5sum;
  50:ROSSerial/rosserial_msgs/TopicInfo.h ****       union {
  51:ROSSerial/rosserial_msgs/TopicInfo.h ****         int32_t real;
  52:ROSSerial/rosserial_msgs/TopicInfo.h ****         uint32_t base;
  53:ROSSerial/rosserial_msgs/TopicInfo.h ****       } u_buffer_size;
  54:ROSSerial/rosserial_msgs/TopicInfo.h ****       u_buffer_size.real = this->buffer_size;
  55:ROSSerial/rosserial_msgs/TopicInfo.h ****       *(outbuffer + offset + 0) = (u_buffer_size.base >> (8 * 0)) & 0xFF;
  56:ROSSerial/rosserial_msgs/TopicInfo.h ****       *(outbuffer + offset + 1) = (u_buffer_size.base >> (8 * 1)) & 0xFF;
  57:ROSSerial/rosserial_msgs/TopicInfo.h ****       *(outbuffer + offset + 2) = (u_buffer_size.base >> (8 * 2)) & 0xFF;
  58:ROSSerial/rosserial_msgs/TopicInfo.h ****       *(outbuffer + offset + 3) = (u_buffer_size.base >> (8 * 3)) & 0xFF;
  59:ROSSerial/rosserial_msgs/TopicInfo.h ****       offset += sizeof(this->buffer_size);
  60:ROSSerial/rosserial_msgs/TopicInfo.h ****       return offset;
  61:ROSSerial/rosserial_msgs/TopicInfo.h ****     }
  62:ROSSerial/rosserial_msgs/TopicInfo.h **** 
  63:ROSSerial/rosserial_msgs/TopicInfo.h ****     virtual int deserialize(unsigned char *inbuffer)
 201              		.loc 2 63 0
 202              		.cfi_startproc
 203              		@ args = 0, pretend = 0, frame = 0
 204              		@ frame_needed = 0, uses_anonymous_args = 0
 205              		@ link register save eliminated.
 206              	.LVL12:
 207 0000 70B4     		push	{r4, r5, r6}
 208              	.LCFI0:
 209              		.cfi_def_cfa_offset 12
 210              		.cfi_offset 4, -12
 211              		.cfi_offset 5, -8
 212              		.cfi_offset 6, -4
 213              	.LVL13:
  64:ROSSerial/rosserial_msgs/TopicInfo.h ****     {
  65:ROSSerial/rosserial_msgs/TopicInfo.h ****       int offset = 0;
  66:ROSSerial/rosserial_msgs/TopicInfo.h ****       this->topic_id =  ((uint16_t) (*(inbuffer + offset)));
 214              		.loc 2 66 0
 215 0002 0B78     		ldrb	r3, [r1]	@ zero_extendqisi2
 216 0004 8380     		strh	r3, [r0, #4]	@ movhi
  67:ROSSerial/rosserial_msgs/TopicInfo.h ****       this->topic_id |= ((uint16_t) (*(inbuffer + offset + 1))) << (8 * 1);
 217              		.loc 2 67 0
 218 0006 4A78     		ldrb	r2, [r1, #1]	@ zero_extendqisi2
 219 0008 43EA0223 		orr	r3, r3, r2, lsl #8
 220 000c 8380     		strh	r3, [r0, #4]	@ movhi
 221              	.LVL14:
  68:ROSSerial/rosserial_msgs/TopicInfo.h ****       offset += sizeof(this->topic_id);
  69:ROSSerial/rosserial_msgs/TopicInfo.h ****       uint32_t length_topic_name;
  70:ROSSerial/rosserial_msgs/TopicInfo.h ****       memcpy(&length_topic_name, (inbuffer + offset), sizeof(uint32_t));
 222              		.loc 2 70 0
 223 000e D1F80250 		ldr	r5, [r1, #2]	@ unaligned
 224              	.LVL15:
 225              	.LBB100:
  71:ROSSerial/rosserial_msgs/TopicInfo.h ****       offset += 4;
  72:ROSSerial/rosserial_msgs/TopicInfo.h ****       for(unsigned int k= offset; k< offset+length_topic_name; ++k){
 226              		.loc 2 72 0
 227 0012 0623     		movs	r3, #6
ARM GAS  /var/folders/l3/4y5292px21b4835bsnjwqc7w009kq1/T//ccaF8PhA.s 			page 7


 228              	.LVL16:
 229              	.L11:
 230              		.loc 2 72 0 is_stmt 0 discriminator 3
 231 0014 AA1D     		adds	r2, r5, #6
 232 0016 9A42     		cmp	r2, r3
 233 0018 04D9     		bls	.L10
  73:ROSSerial/rosserial_msgs/TopicInfo.h ****           inbuffer[k-1]=inbuffer[k];
 234              		.loc 2 73 0 is_stmt 1 discriminator 2
 235 001a 5A1E     		subs	r2, r3, #1
 236 001c CC5C     		ldrb	r4, [r1, r3]	@ zero_extendqisi2
 237 001e 8C54     		strb	r4, [r1, r2]
  72:ROSSerial/rosserial_msgs/TopicInfo.h ****           inbuffer[k-1]=inbuffer[k];
 238              		.loc 2 72 0 discriminator 2
 239 0020 0133     		adds	r3, r3, #1
 240              	.LVL17:
 241 0022 F7E7     		b	.L11
 242              	.L10:
 243              	.LBE100:
  74:ROSSerial/rosserial_msgs/TopicInfo.h ****       }
  75:ROSSerial/rosserial_msgs/TopicInfo.h ****       inbuffer[offset+length_topic_name-1]=0;
 244              		.loc 2 75 0
 245 0024 0535     		adds	r5, r5, #5
 246              	.LVL18:
 247 0026 0023     		movs	r3, #0
 248              	.LVL19:
 249 0028 4B55     		strb	r3, [r1, r5]
  76:ROSSerial/rosserial_msgs/TopicInfo.h ****       this->topic_name = (char *)(inbuffer + offset-1);
 250              		.loc 2 76 0
 251 002a 4B1D     		adds	r3, r1, #5
 252 002c 8360     		str	r3, [r0, #8]
 253              	.LVL20:
  77:ROSSerial/rosserial_msgs/TopicInfo.h ****       offset += length_topic_name;
  78:ROSSerial/rosserial_msgs/TopicInfo.h ****       uint32_t length_message_type;
  79:ROSSerial/rosserial_msgs/TopicInfo.h ****       memcpy(&length_message_type, (inbuffer + offset), sizeof(uint32_t));
 254              		.loc 2 79 0
 255 002e 8E58     		ldr	r6, [r1, r2]	@ unaligned
 256              	.LVL21:
  80:ROSSerial/rosserial_msgs/TopicInfo.h ****       offset += 4;
 257              		.loc 2 80 0
 258 0030 141D     		adds	r4, r2, #4
 259              	.LVL22:
 260              	.LBB101:
  81:ROSSerial/rosserial_msgs/TopicInfo.h ****       for(unsigned int k= offset; k< offset+length_message_type; ++k){
 261              		.loc 2 81 0
 262 0032 2346     		mov	r3, r4
 263              	.LVL23:
 264              	.L13:
 265              		.loc 2 81 0 is_stmt 0 discriminator 3
 266 0034 3219     		adds	r2, r6, r4
 267 0036 9A42     		cmp	r2, r3
 268 0038 04D9     		bls	.L12
  82:ROSSerial/rosserial_msgs/TopicInfo.h ****           inbuffer[k-1]=inbuffer[k];
 269              		.loc 2 82 0 is_stmt 1 discriminator 2
 270 003a 5A1E     		subs	r2, r3, #1
 271 003c CD5C     		ldrb	r5, [r1, r3]	@ zero_extendqisi2
 272 003e 8D54     		strb	r5, [r1, r2]
  81:ROSSerial/rosserial_msgs/TopicInfo.h ****       for(unsigned int k= offset; k< offset+length_message_type; ++k){
ARM GAS  /var/folders/l3/4y5292px21b4835bsnjwqc7w009kq1/T//ccaF8PhA.s 			page 8


 273              		.loc 2 81 0 discriminator 2
 274 0040 0133     		adds	r3, r3, #1
 275              	.LVL24:
 276 0042 F7E7     		b	.L13
 277              	.L12:
 278              	.LBE101:
  83:ROSSerial/rosserial_msgs/TopicInfo.h ****       }
  84:ROSSerial/rosserial_msgs/TopicInfo.h ****       inbuffer[offset+length_message_type-1]=0;
 279              		.loc 2 84 0
 280 0044 531E     		subs	r3, r2, #1
 281              	.LVL25:
 282 0046 0025     		movs	r5, #0
 283 0048 CD54     		strb	r5, [r1, r3]
  85:ROSSerial/rosserial_msgs/TopicInfo.h ****       this->message_type = (char *)(inbuffer + offset-1);
 284              		.loc 2 85 0
 285 004a 013C     		subs	r4, r4, #1
 286              	.LVL26:
 287 004c 0C44     		add	r4, r4, r1
 288              	.LVL27:
 289 004e C460     		str	r4, [r0, #12]
 290              	.LVL28:
  86:ROSSerial/rosserial_msgs/TopicInfo.h ****       offset += length_message_type;
  87:ROSSerial/rosserial_msgs/TopicInfo.h ****       uint32_t length_md5sum;
  88:ROSSerial/rosserial_msgs/TopicInfo.h ****       memcpy(&length_md5sum, (inbuffer + offset), sizeof(uint32_t));
 291              		.loc 2 88 0
 292 0050 8E58     		ldr	r6, [r1, r2]	@ unaligned
 293              	.LVL29:
  89:ROSSerial/rosserial_msgs/TopicInfo.h ****       offset += 4;
 294              		.loc 2 89 0
 295 0052 0432     		adds	r2, r2, #4
 296              	.LVL30:
 297              	.LBB102:
  90:ROSSerial/rosserial_msgs/TopicInfo.h ****       for(unsigned int k= offset; k< offset+length_md5sum; ++k){
 298              		.loc 2 90 0
 299 0054 1346     		mov	r3, r2
 300              	.LVL31:
 301              	.L15:
 302              		.loc 2 90 0 is_stmt 0 discriminator 3
 303 0056 B418     		adds	r4, r6, r2
 304 0058 9C42     		cmp	r4, r3
 305 005a 04D9     		bls	.L14
  91:ROSSerial/rosserial_msgs/TopicInfo.h ****           inbuffer[k-1]=inbuffer[k];
 306              		.loc 2 91 0 is_stmt 1 discriminator 2
 307 005c 5C1E     		subs	r4, r3, #1
 308 005e CD5C     		ldrb	r5, [r1, r3]	@ zero_extendqisi2
 309 0060 0D55     		strb	r5, [r1, r4]
  90:ROSSerial/rosserial_msgs/TopicInfo.h ****       for(unsigned int k= offset; k< offset+length_md5sum; ++k){
 310              		.loc 2 90 0 discriminator 2
 311 0062 0133     		adds	r3, r3, #1
 312              	.LVL32:
 313 0064 F7E7     		b	.L15
 314              	.L14:
 315              	.LBE102:
  92:ROSSerial/rosserial_msgs/TopicInfo.h ****       }
  93:ROSSerial/rosserial_msgs/TopicInfo.h ****       inbuffer[offset+length_md5sum-1]=0;
 316              		.loc 2 93 0
 317 0066 631E     		subs	r3, r4, #1
ARM GAS  /var/folders/l3/4y5292px21b4835bsnjwqc7w009kq1/T//ccaF8PhA.s 			page 9


 318              	.LVL33:
 319 0068 0025     		movs	r5, #0
 320 006a CD54     		strb	r5, [r1, r3]
  94:ROSSerial/rosserial_msgs/TopicInfo.h ****       this->md5sum = (char *)(inbuffer + offset-1);
 321              		.loc 2 94 0
 322 006c 013A     		subs	r2, r2, #1
 323 006e 0A44     		add	r2, r2, r1
 324 0070 0261     		str	r2, [r0, #16]
 325              	.LVL34:
  95:ROSSerial/rosserial_msgs/TopicInfo.h ****       offset += length_md5sum;
  96:ROSSerial/rosserial_msgs/TopicInfo.h ****       union {
  97:ROSSerial/rosserial_msgs/TopicInfo.h ****         int32_t real;
  98:ROSSerial/rosserial_msgs/TopicInfo.h ****         uint32_t base;
  99:ROSSerial/rosserial_msgs/TopicInfo.h ****       } u_buffer_size;
 100:ROSSerial/rosserial_msgs/TopicInfo.h ****       u_buffer_size.base = 0;
 101:ROSSerial/rosserial_msgs/TopicInfo.h ****       u_buffer_size.base |= ((uint32_t) (*(inbuffer + offset + 0))) << (8 * 0);
 326              		.loc 2 101 0
 327 0072 0B5D     		ldrb	r3, [r1, r4]	@ zero_extendqisi2
 102:ROSSerial/rosserial_msgs/TopicInfo.h ****       u_buffer_size.base |= ((uint32_t) (*(inbuffer + offset + 1))) << (8 * 1);
 328              		.loc 2 102 0
 329 0074 621C     		adds	r2, r4, #1
 330 0076 8A5C     		ldrb	r2, [r1, r2]	@ zero_extendqisi2
 331 0078 43EA0223 		orr	r3, r3, r2, lsl #8
 103:ROSSerial/rosserial_msgs/TopicInfo.h ****       u_buffer_size.base |= ((uint32_t) (*(inbuffer + offset + 2))) << (8 * 2);
 332              		.loc 2 103 0
 333 007c A21C     		adds	r2, r4, #2
 334 007e 8A5C     		ldrb	r2, [r1, r2]	@ zero_extendqisi2
 335 0080 43EA0243 		orr	r3, r3, r2, lsl #16
 104:ROSSerial/rosserial_msgs/TopicInfo.h ****       u_buffer_size.base |= ((uint32_t) (*(inbuffer + offset + 3))) << (8 * 3);
 336              		.loc 2 104 0
 337 0084 E21C     		adds	r2, r4, #3
 338 0086 8A5C     		ldrb	r2, [r1, r2]	@ zero_extendqisi2
 339 0088 43EA0263 		orr	r3, r3, r2, lsl #24
 105:ROSSerial/rosserial_msgs/TopicInfo.h ****       this->buffer_size = u_buffer_size.real;
 340              		.loc 2 105 0
 341 008c 4361     		str	r3, [r0, #20]
 342              	.LVL35:
 106:ROSSerial/rosserial_msgs/TopicInfo.h ****       offset += sizeof(this->buffer_size);
 107:ROSSerial/rosserial_msgs/TopicInfo.h ****      return offset;
 108:ROSSerial/rosserial_msgs/TopicInfo.h ****     }
 343              		.loc 2 108 0
 344 008e 201D     		adds	r0, r4, #4
 345              	.LVL36:
 346 0090 70BC     		pop	{r4, r5, r6}
 347              	.LCFI1:
 348              		.cfi_restore 6
 349              		.cfi_restore 5
 350              		.cfi_restore 4
 351              		.cfi_def_cfa_offset 0
 352 0092 7047     		bx	lr
 353              		.cfi_endproc
 354              	.LFE383:
 355              		.cantunwind
 356              		.fnend
 358              		.section	.text._ZN14rosserial_msgs9TopicInfo7getTypeEv,"axG",%progbits,_ZN14rosserial_msgs9TopicIn
 359              		.align	1
 360              		.weak	_ZN14rosserial_msgs9TopicInfo7getTypeEv
ARM GAS  /var/folders/l3/4y5292px21b4835bsnjwqc7w009kq1/T//ccaF8PhA.s 			page 10


 361              		.syntax unified
 362              		.thumb
 363              		.thumb_func
 364              		.fpu fpv4-sp-d16
 366              	_ZN14rosserial_msgs9TopicInfo7getTypeEv:
 367              		.fnstart
 368              	.LFB384:
 109:ROSSerial/rosserial_msgs/TopicInfo.h **** 
 110:ROSSerial/rosserial_msgs/TopicInfo.h ****     const char * getType(){ return "rosserial_msgs/TopicInfo"; };
 369              		.loc 2 110 0
 370              		.cfi_startproc
 371              		@ args = 0, pretend = 0, frame = 0
 372              		@ frame_needed = 0, uses_anonymous_args = 0
 373              		@ link register save eliminated.
 374              	.LVL37:
 375              		.loc 2 110 0
 376 0000 0048     		ldr	r0, .L18
 377              	.LVL38:
 378 0002 7047     		bx	lr
 379              	.L19:
 380              		.align	2
 381              	.L18:
 382 0004 00000000 		.word	.LC2
 383              		.cfi_endproc
 384              	.LFE384:
 385              		.cantunwind
 386              		.fnend
 388              		.section	.text._ZN14rosserial_msgs9TopicInfo6getMD5Ev,"axG",%progbits,_ZN14rosserial_msgs9TopicInf
 389              		.align	1
 390              		.weak	_ZN14rosserial_msgs9TopicInfo6getMD5Ev
 391              		.syntax unified
 392              		.thumb
 393              		.thumb_func
 394              		.fpu fpv4-sp-d16
 396              	_ZN14rosserial_msgs9TopicInfo6getMD5Ev:
 397              		.fnstart
 398              	.LFB385:
 111:ROSSerial/rosserial_msgs/TopicInfo.h ****     const char * getMD5(){ return "0ad51f88fc44892f8c10684077646005"; };
 399              		.loc 2 111 0
 400              		.cfi_startproc
 401              		@ args = 0, pretend = 0, frame = 0
 402              		@ frame_needed = 0, uses_anonymous_args = 0
 403              		@ link register save eliminated.
 404              	.LVL39:
 405              		.loc 2 111 0
 406 0000 0048     		ldr	r0, .L21
 407              	.LVL40:
 408 0002 7047     		bx	lr
 409              	.L22:
 410              		.align	2
 411              	.L21:
 412 0004 00000000 		.word	.LC3
 413              		.cfi_endproc
 414              	.LFE385:
 415              		.cantunwind
 416              		.fnend
 418              		.section	.text._ZN14rosserial_msgs3Log11deserializeEPh,"axG",%progbits,_ZN14rosserial_msgs3Log11de
ARM GAS  /var/folders/l3/4y5292px21b4835bsnjwqc7w009kq1/T//ccaF8PhA.s 			page 11


 419              		.align	1
 420              		.weak	_ZN14rosserial_msgs3Log11deserializeEPh
 421              		.syntax unified
 422              		.thumb
 423              		.thumb_func
 424              		.fpu fpv4-sp-d16
 426              	_ZN14rosserial_msgs3Log11deserializeEPh:
 427              		.fnstart
 428              	.LFB387:
 429              		.file 3 "ROSSerial/rosserial_msgs/Log.h"
   1:ROSSerial/rosserial_msgs/Log.h **** #ifndef _ROS_rosserial_msgs_Log_h
   2:ROSSerial/rosserial_msgs/Log.h **** #define _ROS_rosserial_msgs_Log_h
   3:ROSSerial/rosserial_msgs/Log.h **** 
   4:ROSSerial/rosserial_msgs/Log.h **** #include <stdint.h>
   5:ROSSerial/rosserial_msgs/Log.h **** #include <string.h>
   6:ROSSerial/rosserial_msgs/Log.h **** #include <stdlib.h>
   7:ROSSerial/rosserial_msgs/Log.h **** #include "ros/msg.h"
   8:ROSSerial/rosserial_msgs/Log.h **** 
   9:ROSSerial/rosserial_msgs/Log.h **** 
  10:ROSSerial/rosserial_msgs/Log.h **** namespace rosserial_msgs
  11:ROSSerial/rosserial_msgs/Log.h **** {
  12:ROSSerial/rosserial_msgs/Log.h **** 
  13:ROSSerial/rosserial_msgs/Log.h ****   class Log : public ros::Msg
  14:ROSSerial/rosserial_msgs/Log.h ****   {
  15:ROSSerial/rosserial_msgs/Log.h ****     public:
  16:ROSSerial/rosserial_msgs/Log.h ****       uint8_t level;
  17:ROSSerial/rosserial_msgs/Log.h ****       const char* msg;
  18:ROSSerial/rosserial_msgs/Log.h ****       enum { ROSDEBUG = 0 };
  19:ROSSerial/rosserial_msgs/Log.h ****       enum { INFO = 1 };
  20:ROSSerial/rosserial_msgs/Log.h ****       enum { WARN = 2 };
  21:ROSSerial/rosserial_msgs/Log.h ****       enum { ERROR = 3 };
  22:ROSSerial/rosserial_msgs/Log.h ****       enum { FATAL = 4 };
  23:ROSSerial/rosserial_msgs/Log.h **** 
  24:ROSSerial/rosserial_msgs/Log.h ****     virtual int serialize(unsigned char *outbuffer) const
  25:ROSSerial/rosserial_msgs/Log.h ****     {
  26:ROSSerial/rosserial_msgs/Log.h ****       int offset = 0;
  27:ROSSerial/rosserial_msgs/Log.h ****       *(outbuffer + offset + 0) = (this->level >> (8 * 0)) & 0xFF;
  28:ROSSerial/rosserial_msgs/Log.h ****       offset += sizeof(this->level);
  29:ROSSerial/rosserial_msgs/Log.h ****       uint32_t length_msg = strlen(this->msg);
  30:ROSSerial/rosserial_msgs/Log.h ****       memcpy(outbuffer + offset, &length_msg, sizeof(uint32_t));
  31:ROSSerial/rosserial_msgs/Log.h ****       offset += 4;
  32:ROSSerial/rosserial_msgs/Log.h ****       memcpy(outbuffer + offset, this->msg, length_msg);
  33:ROSSerial/rosserial_msgs/Log.h ****       offset += length_msg;
  34:ROSSerial/rosserial_msgs/Log.h ****       return offset;
  35:ROSSerial/rosserial_msgs/Log.h ****     }
  36:ROSSerial/rosserial_msgs/Log.h **** 
  37:ROSSerial/rosserial_msgs/Log.h ****     virtual int deserialize(unsigned char *inbuffer)
 430              		.loc 3 37 0
 431              		.cfi_startproc
 432              		@ args = 0, pretend = 0, frame = 0
 433              		@ frame_needed = 0, uses_anonymous_args = 0
 434              		@ link register save eliminated.
 435              	.LVL41:
 436 0000 30B4     		push	{r4, r5}
 437              	.LCFI2:
 438              		.cfi_def_cfa_offset 8
 439              		.cfi_offset 4, -8
ARM GAS  /var/folders/l3/4y5292px21b4835bsnjwqc7w009kq1/T//ccaF8PhA.s 			page 12


 440              		.cfi_offset 5, -4
 441              	.LVL42:
  38:ROSSerial/rosserial_msgs/Log.h ****     {
  39:ROSSerial/rosserial_msgs/Log.h ****       int offset = 0;
  40:ROSSerial/rosserial_msgs/Log.h ****       this->level =  ((uint8_t) (*(inbuffer + offset)));
 442              		.loc 3 40 0
 443 0002 0B78     		ldrb	r3, [r1]	@ zero_extendqisi2
 444 0004 0371     		strb	r3, [r0, #4]
 445              	.LVL43:
  41:ROSSerial/rosserial_msgs/Log.h ****       offset += sizeof(this->level);
  42:ROSSerial/rosserial_msgs/Log.h ****       uint32_t length_msg;
  43:ROSSerial/rosserial_msgs/Log.h ****       memcpy(&length_msg, (inbuffer + offset), sizeof(uint32_t));
 446              		.loc 3 43 0
 447 0006 D1F80150 		ldr	r5, [r1, #1]	@ unaligned
 448              	.LVL44:
 449              	.LBB103:
  44:ROSSerial/rosserial_msgs/Log.h ****       offset += 4;
  45:ROSSerial/rosserial_msgs/Log.h ****       for(unsigned int k= offset; k< offset+length_msg; ++k){
 450              		.loc 3 45 0
 451 000a 0523     		movs	r3, #5
 452              	.LVL45:
 453              	.L25:
 454              		.loc 3 45 0 is_stmt 0 discriminator 3
 455 000c 6A1D     		adds	r2, r5, #5
 456 000e 9A42     		cmp	r2, r3
 457 0010 04D9     		bls	.L24
  46:ROSSerial/rosserial_msgs/Log.h ****           inbuffer[k-1]=inbuffer[k];
 458              		.loc 3 46 0 is_stmt 1 discriminator 2
 459 0012 5A1E     		subs	r2, r3, #1
 460 0014 CC5C     		ldrb	r4, [r1, r3]	@ zero_extendqisi2
 461 0016 8C54     		strb	r4, [r1, r2]
  45:ROSSerial/rosserial_msgs/Log.h ****           inbuffer[k-1]=inbuffer[k];
 462              		.loc 3 45 0 discriminator 2
 463 0018 0133     		adds	r3, r3, #1
 464              	.LVL46:
 465 001a F7E7     		b	.L25
 466              	.L24:
 467              	.LBE103:
  47:ROSSerial/rosserial_msgs/Log.h ****       }
  48:ROSSerial/rosserial_msgs/Log.h ****       inbuffer[offset+length_msg-1]=0;
 468              		.loc 3 48 0
 469 001c 0435     		adds	r5, r5, #4
 470              	.LVL47:
 471 001e 0023     		movs	r3, #0
 472              	.LVL48:
 473 0020 4B55     		strb	r3, [r1, r5]
  49:ROSSerial/rosserial_msgs/Log.h ****       this->msg = (char *)(inbuffer + offset-1);
 474              		.loc 3 49 0
 475 0022 0431     		adds	r1, r1, #4
 476              	.LVL49:
 477 0024 8160     		str	r1, [r0, #8]
 478              	.LVL50:
  50:ROSSerial/rosserial_msgs/Log.h ****       offset += length_msg;
  51:ROSSerial/rosserial_msgs/Log.h ****      return offset;
  52:ROSSerial/rosserial_msgs/Log.h ****     }
 479              		.loc 3 52 0
 480 0026 1046     		mov	r0, r2
ARM GAS  /var/folders/l3/4y5292px21b4835bsnjwqc7w009kq1/T//ccaF8PhA.s 			page 13


 481              	.LVL51:
 482 0028 30BC     		pop	{r4, r5}
 483              	.LCFI3:
 484              		.cfi_restore 5
 485              		.cfi_restore 4
 486              		.cfi_def_cfa_offset 0
 487 002a 7047     		bx	lr
 488              		.cfi_endproc
 489              	.LFE387:
 490              		.cantunwind
 491              		.fnend
 493              		.section	.text._ZN14rosserial_msgs3Log7getTypeEv,"axG",%progbits,_ZN14rosserial_msgs3Log7getTypeEv
 494              		.align	1
 495              		.weak	_ZN14rosserial_msgs3Log7getTypeEv
 496              		.syntax unified
 497              		.thumb
 498              		.thumb_func
 499              		.fpu fpv4-sp-d16
 501              	_ZN14rosserial_msgs3Log7getTypeEv:
 502              		.fnstart
 503              	.LFB388:
  53:ROSSerial/rosserial_msgs/Log.h **** 
  54:ROSSerial/rosserial_msgs/Log.h ****     const char * getType(){ return "rosserial_msgs/Log"; };
 504              		.loc 3 54 0
 505              		.cfi_startproc
 506              		@ args = 0, pretend = 0, frame = 0
 507              		@ frame_needed = 0, uses_anonymous_args = 0
 508              		@ link register save eliminated.
 509              	.LVL52:
 510              		.loc 3 54 0
 511 0000 0048     		ldr	r0, .L28
 512              	.LVL53:
 513 0002 7047     		bx	lr
 514              	.L29:
 515              		.align	2
 516              	.L28:
 517 0004 00000000 		.word	.LC4
 518              		.cfi_endproc
 519              	.LFE388:
 520              		.cantunwind
 521              		.fnend
 523              		.section	.text._ZN14rosserial_msgs3Log6getMD5Ev,"axG",%progbits,_ZN14rosserial_msgs3Log6getMD5Ev,c
 524              		.align	1
 525              		.weak	_ZN14rosserial_msgs3Log6getMD5Ev
 526              		.syntax unified
 527              		.thumb
 528              		.thumb_func
 529              		.fpu fpv4-sp-d16
 531              	_ZN14rosserial_msgs3Log6getMD5Ev:
 532              		.fnstart
 533              	.LFB389:
  55:ROSSerial/rosserial_msgs/Log.h ****     const char * getMD5(){ return "11abd731c25933261cd6183bd12d6295"; };
 534              		.loc 3 55 0
 535              		.cfi_startproc
 536              		@ args = 0, pretend = 0, frame = 0
 537              		@ frame_needed = 0, uses_anonymous_args = 0
 538              		@ link register save eliminated.
ARM GAS  /var/folders/l3/4y5292px21b4835bsnjwqc7w009kq1/T//ccaF8PhA.s 			page 14


 539              	.LVL54:
 540              		.loc 3 55 0
 541 0000 0048     		ldr	r0, .L31
 542              	.LVL55:
 543 0002 7047     		bx	lr
 544              	.L32:
 545              		.align	2
 546              	.L31:
 547 0004 00000000 		.word	.LC5
 548              		.cfi_endproc
 549              	.LFE389:
 550              		.cantunwind
 551              		.fnend
 553              		.section	.text._ZN14rosserial_msgs20RequestParamResponse7getTypeEv,"axG",%progbits,_ZN14rosserial_
 554              		.align	1
 555              		.weak	_ZN14rosserial_msgs20RequestParamResponse7getTypeEv
 556              		.syntax unified
 557              		.thumb
 558              		.thumb_func
 559              		.fpu fpv4-sp-d16
 561              	_ZN14rosserial_msgs20RequestParamResponse7getTypeEv:
 562              		.fnstart
 563              	.LFB396:
 564              		.file 4 "ROSSerial/rosserial_msgs/RequestParam.h"
   1:ROSSerial/rosserial_msgs/RequestParam.h **** #ifndef _ROS_SERVICE_RequestParam_h
   2:ROSSerial/rosserial_msgs/RequestParam.h **** #define _ROS_SERVICE_RequestParam_h
   3:ROSSerial/rosserial_msgs/RequestParam.h **** 
   4:ROSSerial/rosserial_msgs/RequestParam.h **** #include <stdint.h>
   5:ROSSerial/rosserial_msgs/RequestParam.h **** #include <string.h>
   6:ROSSerial/rosserial_msgs/RequestParam.h **** #include <stdlib.h>
   7:ROSSerial/rosserial_msgs/RequestParam.h **** #include "ros/msg.h"
   8:ROSSerial/rosserial_msgs/RequestParam.h **** 
   9:ROSSerial/rosserial_msgs/RequestParam.h **** 
  10:ROSSerial/rosserial_msgs/RequestParam.h **** namespace rosserial_msgs
  11:ROSSerial/rosserial_msgs/RequestParam.h **** {
  12:ROSSerial/rosserial_msgs/RequestParam.h **** 
  13:ROSSerial/rosserial_msgs/RequestParam.h **** static const char REQUESTPARAM[] = "rosserial_msgs/RequestParam";
  14:ROSSerial/rosserial_msgs/RequestParam.h **** 
  15:ROSSerial/rosserial_msgs/RequestParam.h ****   class RequestParamRequest : public ros::Msg
  16:ROSSerial/rosserial_msgs/RequestParam.h ****   {
  17:ROSSerial/rosserial_msgs/RequestParam.h ****     public:
  18:ROSSerial/rosserial_msgs/RequestParam.h ****       const char* name;
  19:ROSSerial/rosserial_msgs/RequestParam.h **** 
  20:ROSSerial/rosserial_msgs/RequestParam.h ****     virtual int serialize(unsigned char *outbuffer) const
  21:ROSSerial/rosserial_msgs/RequestParam.h ****     {
  22:ROSSerial/rosserial_msgs/RequestParam.h ****       int offset = 0;
  23:ROSSerial/rosserial_msgs/RequestParam.h ****       uint32_t length_name = strlen(this->name);
  24:ROSSerial/rosserial_msgs/RequestParam.h ****       memcpy(outbuffer + offset, &length_name, sizeof(uint32_t));
  25:ROSSerial/rosserial_msgs/RequestParam.h ****       offset += 4;
  26:ROSSerial/rosserial_msgs/RequestParam.h ****       memcpy(outbuffer + offset, this->name, length_name);
  27:ROSSerial/rosserial_msgs/RequestParam.h ****       offset += length_name;
  28:ROSSerial/rosserial_msgs/RequestParam.h ****       return offset;
  29:ROSSerial/rosserial_msgs/RequestParam.h ****     }
  30:ROSSerial/rosserial_msgs/RequestParam.h **** 
  31:ROSSerial/rosserial_msgs/RequestParam.h ****     virtual int deserialize(unsigned char *inbuffer)
  32:ROSSerial/rosserial_msgs/RequestParam.h ****     {
  33:ROSSerial/rosserial_msgs/RequestParam.h ****       int offset = 0;
ARM GAS  /var/folders/l3/4y5292px21b4835bsnjwqc7w009kq1/T//ccaF8PhA.s 			page 15


  34:ROSSerial/rosserial_msgs/RequestParam.h ****       uint32_t length_name;
  35:ROSSerial/rosserial_msgs/RequestParam.h ****       memcpy(&length_name, (inbuffer + offset), sizeof(uint32_t));
  36:ROSSerial/rosserial_msgs/RequestParam.h ****       offset += 4;
  37:ROSSerial/rosserial_msgs/RequestParam.h ****       for(unsigned int k= offset; k< offset+length_name; ++k){
  38:ROSSerial/rosserial_msgs/RequestParam.h ****           inbuffer[k-1]=inbuffer[k];
  39:ROSSerial/rosserial_msgs/RequestParam.h ****       }
  40:ROSSerial/rosserial_msgs/RequestParam.h ****       inbuffer[offset+length_name-1]=0;
  41:ROSSerial/rosserial_msgs/RequestParam.h ****       this->name = (char *)(inbuffer + offset-1);
  42:ROSSerial/rosserial_msgs/RequestParam.h ****       offset += length_name;
  43:ROSSerial/rosserial_msgs/RequestParam.h ****      return offset;
  44:ROSSerial/rosserial_msgs/RequestParam.h ****     }
  45:ROSSerial/rosserial_msgs/RequestParam.h **** 
  46:ROSSerial/rosserial_msgs/RequestParam.h ****     const char * getType(){ return REQUESTPARAM; };
  47:ROSSerial/rosserial_msgs/RequestParam.h ****     const char * getMD5(){ return "c1f3d28f1b044c871e6eff2e9fc3c667"; };
  48:ROSSerial/rosserial_msgs/RequestParam.h **** 
  49:ROSSerial/rosserial_msgs/RequestParam.h ****   };
  50:ROSSerial/rosserial_msgs/RequestParam.h **** 
  51:ROSSerial/rosserial_msgs/RequestParam.h ****   class RequestParamResponse : public ros::Msg
  52:ROSSerial/rosserial_msgs/RequestParam.h ****   {
  53:ROSSerial/rosserial_msgs/RequestParam.h ****     public:
  54:ROSSerial/rosserial_msgs/RequestParam.h ****       uint8_t ints_length;
  55:ROSSerial/rosserial_msgs/RequestParam.h ****       int32_t st_ints;
  56:ROSSerial/rosserial_msgs/RequestParam.h ****       int32_t * ints;
  57:ROSSerial/rosserial_msgs/RequestParam.h ****       uint8_t floats_length;
  58:ROSSerial/rosserial_msgs/RequestParam.h ****       float st_floats;
  59:ROSSerial/rosserial_msgs/RequestParam.h ****       float * floats;
  60:ROSSerial/rosserial_msgs/RequestParam.h ****       uint8_t strings_length;
  61:ROSSerial/rosserial_msgs/RequestParam.h ****       char* st_strings;
  62:ROSSerial/rosserial_msgs/RequestParam.h ****       char* * strings;
  63:ROSSerial/rosserial_msgs/RequestParam.h **** 
  64:ROSSerial/rosserial_msgs/RequestParam.h ****     virtual int serialize(unsigned char *outbuffer) const
  65:ROSSerial/rosserial_msgs/RequestParam.h ****     {
  66:ROSSerial/rosserial_msgs/RequestParam.h ****       int offset = 0;
  67:ROSSerial/rosserial_msgs/RequestParam.h ****       *(outbuffer + offset++) = ints_length;
  68:ROSSerial/rosserial_msgs/RequestParam.h ****       *(outbuffer + offset++) = 0;
  69:ROSSerial/rosserial_msgs/RequestParam.h ****       *(outbuffer + offset++) = 0;
  70:ROSSerial/rosserial_msgs/RequestParam.h ****       *(outbuffer + offset++) = 0;
  71:ROSSerial/rosserial_msgs/RequestParam.h ****       for( uint8_t i = 0; i < ints_length; i++){
  72:ROSSerial/rosserial_msgs/RequestParam.h ****       union {
  73:ROSSerial/rosserial_msgs/RequestParam.h ****         int32_t real;
  74:ROSSerial/rosserial_msgs/RequestParam.h ****         uint32_t base;
  75:ROSSerial/rosserial_msgs/RequestParam.h ****       } u_intsi;
  76:ROSSerial/rosserial_msgs/RequestParam.h ****       u_intsi.real = this->ints[i];
  77:ROSSerial/rosserial_msgs/RequestParam.h ****       *(outbuffer + offset + 0) = (u_intsi.base >> (8 * 0)) & 0xFF;
  78:ROSSerial/rosserial_msgs/RequestParam.h ****       *(outbuffer + offset + 1) = (u_intsi.base >> (8 * 1)) & 0xFF;
  79:ROSSerial/rosserial_msgs/RequestParam.h ****       *(outbuffer + offset + 2) = (u_intsi.base >> (8 * 2)) & 0xFF;
  80:ROSSerial/rosserial_msgs/RequestParam.h ****       *(outbuffer + offset + 3) = (u_intsi.base >> (8 * 3)) & 0xFF;
  81:ROSSerial/rosserial_msgs/RequestParam.h ****       offset += sizeof(this->ints[i]);
  82:ROSSerial/rosserial_msgs/RequestParam.h ****       }
  83:ROSSerial/rosserial_msgs/RequestParam.h ****       *(outbuffer + offset++) = floats_length;
  84:ROSSerial/rosserial_msgs/RequestParam.h ****       *(outbuffer + offset++) = 0;
  85:ROSSerial/rosserial_msgs/RequestParam.h ****       *(outbuffer + offset++) = 0;
  86:ROSSerial/rosserial_msgs/RequestParam.h ****       *(outbuffer + offset++) = 0;
  87:ROSSerial/rosserial_msgs/RequestParam.h ****       for( uint8_t i = 0; i < floats_length; i++){
  88:ROSSerial/rosserial_msgs/RequestParam.h ****       union {
  89:ROSSerial/rosserial_msgs/RequestParam.h ****         float real;
  90:ROSSerial/rosserial_msgs/RequestParam.h ****         uint32_t base;
ARM GAS  /var/folders/l3/4y5292px21b4835bsnjwqc7w009kq1/T//ccaF8PhA.s 			page 16


  91:ROSSerial/rosserial_msgs/RequestParam.h ****       } u_floatsi;
  92:ROSSerial/rosserial_msgs/RequestParam.h ****       u_floatsi.real = this->floats[i];
  93:ROSSerial/rosserial_msgs/RequestParam.h ****       *(outbuffer + offset + 0) = (u_floatsi.base >> (8 * 0)) & 0xFF;
  94:ROSSerial/rosserial_msgs/RequestParam.h ****       *(outbuffer + offset + 1) = (u_floatsi.base >> (8 * 1)) & 0xFF;
  95:ROSSerial/rosserial_msgs/RequestParam.h ****       *(outbuffer + offset + 2) = (u_floatsi.base >> (8 * 2)) & 0xFF;
  96:ROSSerial/rosserial_msgs/RequestParam.h ****       *(outbuffer + offset + 3) = (u_floatsi.base >> (8 * 3)) & 0xFF;
  97:ROSSerial/rosserial_msgs/RequestParam.h ****       offset += sizeof(this->floats[i]);
  98:ROSSerial/rosserial_msgs/RequestParam.h ****       }
  99:ROSSerial/rosserial_msgs/RequestParam.h ****       *(outbuffer + offset++) = strings_length;
 100:ROSSerial/rosserial_msgs/RequestParam.h ****       *(outbuffer + offset++) = 0;
 101:ROSSerial/rosserial_msgs/RequestParam.h ****       *(outbuffer + offset++) = 0;
 102:ROSSerial/rosserial_msgs/RequestParam.h ****       *(outbuffer + offset++) = 0;
 103:ROSSerial/rosserial_msgs/RequestParam.h ****       for( uint8_t i = 0; i < strings_length; i++){
 104:ROSSerial/rosserial_msgs/RequestParam.h ****       uint32_t length_stringsi = strlen(this->strings[i]);
 105:ROSSerial/rosserial_msgs/RequestParam.h ****       memcpy(outbuffer + offset, &length_stringsi, sizeof(uint32_t));
 106:ROSSerial/rosserial_msgs/RequestParam.h ****       offset += 4;
 107:ROSSerial/rosserial_msgs/RequestParam.h ****       memcpy(outbuffer + offset, this->strings[i], length_stringsi);
 108:ROSSerial/rosserial_msgs/RequestParam.h ****       offset += length_stringsi;
 109:ROSSerial/rosserial_msgs/RequestParam.h ****       }
 110:ROSSerial/rosserial_msgs/RequestParam.h ****       return offset;
 111:ROSSerial/rosserial_msgs/RequestParam.h ****     }
 112:ROSSerial/rosserial_msgs/RequestParam.h **** 
 113:ROSSerial/rosserial_msgs/RequestParam.h ****     virtual int deserialize(unsigned char *inbuffer)
 114:ROSSerial/rosserial_msgs/RequestParam.h ****     {
 115:ROSSerial/rosserial_msgs/RequestParam.h ****       int offset = 0;
 116:ROSSerial/rosserial_msgs/RequestParam.h ****       uint8_t ints_lengthT = *(inbuffer + offset++);
 117:ROSSerial/rosserial_msgs/RequestParam.h ****       if(ints_lengthT > ints_length)
 118:ROSSerial/rosserial_msgs/RequestParam.h ****         this->ints = (int32_t*)realloc(this->ints, ints_lengthT * sizeof(int32_t));
 119:ROSSerial/rosserial_msgs/RequestParam.h ****       offset += 3;
 120:ROSSerial/rosserial_msgs/RequestParam.h ****       ints_length = ints_lengthT;
 121:ROSSerial/rosserial_msgs/RequestParam.h ****       for( uint8_t i = 0; i < ints_length; i++){
 122:ROSSerial/rosserial_msgs/RequestParam.h ****       union {
 123:ROSSerial/rosserial_msgs/RequestParam.h ****         int32_t real;
 124:ROSSerial/rosserial_msgs/RequestParam.h ****         uint32_t base;
 125:ROSSerial/rosserial_msgs/RequestParam.h ****       } u_st_ints;
 126:ROSSerial/rosserial_msgs/RequestParam.h ****       u_st_ints.base = 0;
 127:ROSSerial/rosserial_msgs/RequestParam.h ****       u_st_ints.base |= ((uint32_t) (*(inbuffer + offset + 0))) << (8 * 0);
 128:ROSSerial/rosserial_msgs/RequestParam.h ****       u_st_ints.base |= ((uint32_t) (*(inbuffer + offset + 1))) << (8 * 1);
 129:ROSSerial/rosserial_msgs/RequestParam.h ****       u_st_ints.base |= ((uint32_t) (*(inbuffer + offset + 2))) << (8 * 2);
 130:ROSSerial/rosserial_msgs/RequestParam.h ****       u_st_ints.base |= ((uint32_t) (*(inbuffer + offset + 3))) << (8 * 3);
 131:ROSSerial/rosserial_msgs/RequestParam.h ****       this->st_ints = u_st_ints.real;
 132:ROSSerial/rosserial_msgs/RequestParam.h ****       offset += sizeof(this->st_ints);
 133:ROSSerial/rosserial_msgs/RequestParam.h ****         memcpy( &(this->ints[i]), &(this->st_ints), sizeof(int32_t));
 134:ROSSerial/rosserial_msgs/RequestParam.h ****       }
 135:ROSSerial/rosserial_msgs/RequestParam.h ****       uint8_t floats_lengthT = *(inbuffer + offset++);
 136:ROSSerial/rosserial_msgs/RequestParam.h ****       if(floats_lengthT > floats_length)
 137:ROSSerial/rosserial_msgs/RequestParam.h ****         this->floats = (float*)realloc(this->floats, floats_lengthT * sizeof(float));
 138:ROSSerial/rosserial_msgs/RequestParam.h ****       offset += 3;
 139:ROSSerial/rosserial_msgs/RequestParam.h ****       floats_length = floats_lengthT;
 140:ROSSerial/rosserial_msgs/RequestParam.h ****       for( uint8_t i = 0; i < floats_length; i++){
 141:ROSSerial/rosserial_msgs/RequestParam.h ****       union {
 142:ROSSerial/rosserial_msgs/RequestParam.h ****         float real;
 143:ROSSerial/rosserial_msgs/RequestParam.h ****         uint32_t base;
 144:ROSSerial/rosserial_msgs/RequestParam.h ****       } u_st_floats;
 145:ROSSerial/rosserial_msgs/RequestParam.h ****       u_st_floats.base = 0;
 146:ROSSerial/rosserial_msgs/RequestParam.h ****       u_st_floats.base |= ((uint32_t) (*(inbuffer + offset + 0))) << (8 * 0);
 147:ROSSerial/rosserial_msgs/RequestParam.h ****       u_st_floats.base |= ((uint32_t) (*(inbuffer + offset + 1))) << (8 * 1);
ARM GAS  /var/folders/l3/4y5292px21b4835bsnjwqc7w009kq1/T//ccaF8PhA.s 			page 17


 148:ROSSerial/rosserial_msgs/RequestParam.h ****       u_st_floats.base |= ((uint32_t) (*(inbuffer + offset + 2))) << (8 * 2);
 149:ROSSerial/rosserial_msgs/RequestParam.h ****       u_st_floats.base |= ((uint32_t) (*(inbuffer + offset + 3))) << (8 * 3);
 150:ROSSerial/rosserial_msgs/RequestParam.h ****       this->st_floats = u_st_floats.real;
 151:ROSSerial/rosserial_msgs/RequestParam.h ****       offset += sizeof(this->st_floats);
 152:ROSSerial/rosserial_msgs/RequestParam.h ****         memcpy( &(this->floats[i]), &(this->st_floats), sizeof(float));
 153:ROSSerial/rosserial_msgs/RequestParam.h ****       }
 154:ROSSerial/rosserial_msgs/RequestParam.h ****       uint8_t strings_lengthT = *(inbuffer + offset++);
 155:ROSSerial/rosserial_msgs/RequestParam.h ****       if(strings_lengthT > strings_length)
 156:ROSSerial/rosserial_msgs/RequestParam.h ****         this->strings = (char**)realloc(this->strings, strings_lengthT * sizeof(char*));
 157:ROSSerial/rosserial_msgs/RequestParam.h ****       offset += 3;
 158:ROSSerial/rosserial_msgs/RequestParam.h ****       strings_length = strings_lengthT;
 159:ROSSerial/rosserial_msgs/RequestParam.h ****       for( uint8_t i = 0; i < strings_length; i++){
 160:ROSSerial/rosserial_msgs/RequestParam.h ****       uint32_t length_st_strings;
 161:ROSSerial/rosserial_msgs/RequestParam.h ****       memcpy(&length_st_strings, (inbuffer + offset), sizeof(uint32_t));
 162:ROSSerial/rosserial_msgs/RequestParam.h ****       offset += 4;
 163:ROSSerial/rosserial_msgs/RequestParam.h ****       for(unsigned int k= offset; k< offset+length_st_strings; ++k){
 164:ROSSerial/rosserial_msgs/RequestParam.h ****           inbuffer[k-1]=inbuffer[k];
 165:ROSSerial/rosserial_msgs/RequestParam.h ****       }
 166:ROSSerial/rosserial_msgs/RequestParam.h ****       inbuffer[offset+length_st_strings-1]=0;
 167:ROSSerial/rosserial_msgs/RequestParam.h ****       this->st_strings = (char *)(inbuffer + offset-1);
 168:ROSSerial/rosserial_msgs/RequestParam.h ****       offset += length_st_strings;
 169:ROSSerial/rosserial_msgs/RequestParam.h ****         memcpy( &(this->strings[i]), &(this->st_strings), sizeof(char*));
 170:ROSSerial/rosserial_msgs/RequestParam.h ****       }
 171:ROSSerial/rosserial_msgs/RequestParam.h ****      return offset;
 172:ROSSerial/rosserial_msgs/RequestParam.h ****     }
 173:ROSSerial/rosserial_msgs/RequestParam.h **** 
 174:ROSSerial/rosserial_msgs/RequestParam.h ****     const char * getType(){ return REQUESTPARAM; };
 565              		.loc 4 174 0
 566              		.cfi_startproc
 567              		@ args = 0, pretend = 0, frame = 0
 568              		@ frame_needed = 0, uses_anonymous_args = 0
 569              		@ link register save eliminated.
 570              	.LVL56:
 571              		.loc 4 174 0
 572 0000 0048     		ldr	r0, .L34
 573              	.LVL57:
 574 0002 7047     		bx	lr
 575              	.L35:
 576              		.align	2
 577              	.L34:
 578 0004 00000000 		.word	.LANCHOR0
 579              		.cfi_endproc
 580              	.LFE396:
 581              		.cantunwind
 582              		.fnend
 584              		.section	.text._ZN14rosserial_msgs20RequestParamResponse6getMD5Ev,"axG",%progbits,_ZN14rosserial_m
 585              		.align	1
 586              		.weak	_ZN14rosserial_msgs20RequestParamResponse6getMD5Ev
 587              		.syntax unified
 588              		.thumb
 589              		.thumb_func
 590              		.fpu fpv4-sp-d16
 592              	_ZN14rosserial_msgs20RequestParamResponse6getMD5Ev:
 593              		.fnstart
 594              	.LFB397:
 175:ROSSerial/rosserial_msgs/RequestParam.h ****     const char * getMD5(){ return "9f0e98bda65981986ddf53afa7a40e49"; };
 595              		.loc 4 175 0
ARM GAS  /var/folders/l3/4y5292px21b4835bsnjwqc7w009kq1/T//ccaF8PhA.s 			page 18


 596              		.cfi_startproc
 597              		@ args = 0, pretend = 0, frame = 0
 598              		@ frame_needed = 0, uses_anonymous_args = 0
 599              		@ link register save eliminated.
 600              	.LVL58:
 601              		.loc 4 175 0
 602 0000 0048     		ldr	r0, .L37
 603              	.LVL59:
 604 0002 7047     		bx	lr
 605              	.L38:
 606              		.align	2
 607              	.L37:
 608 0004 00000000 		.word	.LC6
 609              		.cfi_endproc
 610              	.LFE397:
 611              		.cantunwind
 612              		.fnend
 614              		.section	.text._ZN8std_msgs6String11deserializeEPh,"axG",%progbits,_ZN8std_msgs6String11deserializ
 615              		.align	1
 616              		.weak	_ZN8std_msgs6String11deserializeEPh
 617              		.syntax unified
 618              		.thumb
 619              		.thumb_func
 620              		.fpu fpv4-sp-d16
 622              	_ZN8std_msgs6String11deserializeEPh:
 623              		.fnstart
 624              	.LFB404:
 625              		.file 5 "ROSSerial/std_msgs/ROSString.h"
   1:ROSSerial/std_msgs/ROSString.h **** #ifndef _ROS_std_msgs_String_h
   2:ROSSerial/std_msgs/ROSString.h **** #define _ROS_std_msgs_String_h
   3:ROSSerial/std_msgs/ROSString.h **** 
   4:ROSSerial/std_msgs/ROSString.h **** #include <cstring>
   5:ROSSerial/std_msgs/ROSString.h **** #include <stdint.h>
   6:ROSSerial/std_msgs/ROSString.h **** #include <string.h>
   7:ROSSerial/std_msgs/ROSString.h **** #include <stdlib.h>
   8:ROSSerial/std_msgs/ROSString.h **** #include "ros/msg.h"
   9:ROSSerial/std_msgs/ROSString.h **** 
  10:ROSSerial/std_msgs/ROSString.h **** namespace std_msgs
  11:ROSSerial/std_msgs/ROSString.h **** {
  12:ROSSerial/std_msgs/ROSString.h **** 
  13:ROSSerial/std_msgs/ROSString.h ****   class String : public ros::Msg
  14:ROSSerial/std_msgs/ROSString.h ****   {
  15:ROSSerial/std_msgs/ROSString.h ****     public:
  16:ROSSerial/std_msgs/ROSString.h ****       const char* data;
  17:ROSSerial/std_msgs/ROSString.h **** 
  18:ROSSerial/std_msgs/ROSString.h ****     virtual int serialize(unsigned char *outbuffer) const
  19:ROSSerial/std_msgs/ROSString.h ****     {
  20:ROSSerial/std_msgs/ROSString.h ****       int offset = 0;
  21:ROSSerial/std_msgs/ROSString.h ****       uint32_t length_data = strlen(this->data);
  22:ROSSerial/std_msgs/ROSString.h ****       memcpy(outbuffer + offset, &length_data, sizeof(uint32_t));
  23:ROSSerial/std_msgs/ROSString.h ****       offset += 4;
  24:ROSSerial/std_msgs/ROSString.h ****       memcpy(outbuffer + offset, this->data, length_data);
  25:ROSSerial/std_msgs/ROSString.h ****       offset += length_data;
  26:ROSSerial/std_msgs/ROSString.h ****       return offset;
  27:ROSSerial/std_msgs/ROSString.h ****     }
  28:ROSSerial/std_msgs/ROSString.h **** 
  29:ROSSerial/std_msgs/ROSString.h ****     virtual int deserialize(unsigned char *inbuffer)
ARM GAS  /var/folders/l3/4y5292px21b4835bsnjwqc7w009kq1/T//ccaF8PhA.s 			page 19


 626              		.loc 5 29 0
 627              		.cfi_startproc
 628              		@ args = 0, pretend = 0, frame = 0
 629              		@ frame_needed = 0, uses_anonymous_args = 0
 630              		@ link register save eliminated.
 631              	.LVL60:
 632 0000 30B4     		push	{r4, r5}
 633              	.LCFI4:
 634              		.cfi_def_cfa_offset 8
 635              		.cfi_offset 4, -8
 636              		.cfi_offset 5, -4
 637              	.LVL61:
  30:ROSSerial/std_msgs/ROSString.h ****     {
  31:ROSSerial/std_msgs/ROSString.h ****       int offset = 0;
  32:ROSSerial/std_msgs/ROSString.h ****       uint32_t length_data;
  33:ROSSerial/std_msgs/ROSString.h ****       memcpy(&length_data, (inbuffer + offset), sizeof(uint32_t));
 638              		.loc 5 33 0
 639 0002 0D68     		ldr	r5, [r1]	@ unaligned
 640              	.LVL62:
 641              	.LBB104:
  34:ROSSerial/std_msgs/ROSString.h ****       offset += 4;
  35:ROSSerial/std_msgs/ROSString.h ****       for(unsigned int k= offset; k< offset+length_data; ++k){
 642              		.loc 5 35 0
 643 0004 0423     		movs	r3, #4
 644              	.LVL63:
 645              	.L41:
 646              		.loc 5 35 0 is_stmt 0 discriminator 3
 647 0006 2A1D     		adds	r2, r5, #4
 648 0008 9A42     		cmp	r2, r3
 649 000a 04D9     		bls	.L40
  36:ROSSerial/std_msgs/ROSString.h ****           inbuffer[k-1]=inbuffer[k];
 650              		.loc 5 36 0 is_stmt 1 discriminator 2
 651 000c 5A1E     		subs	r2, r3, #1
 652 000e CC5C     		ldrb	r4, [r1, r3]	@ zero_extendqisi2
 653 0010 8C54     		strb	r4, [r1, r2]
  35:ROSSerial/std_msgs/ROSString.h ****           inbuffer[k-1]=inbuffer[k];
 654              		.loc 5 35 0 discriminator 2
 655 0012 0133     		adds	r3, r3, #1
 656              	.LVL64:
 657 0014 F7E7     		b	.L41
 658              	.L40:
 659              	.LBE104:
  37:ROSSerial/std_msgs/ROSString.h ****       }
  38:ROSSerial/std_msgs/ROSString.h ****       inbuffer[offset+length_data-1]=0;
 660              		.loc 5 38 0
 661 0016 0335     		adds	r5, r5, #3
 662              	.LVL65:
 663 0018 0023     		movs	r3, #0
 664              	.LVL66:
 665 001a 4B55     		strb	r3, [r1, r5]
  39:ROSSerial/std_msgs/ROSString.h ****       this->data = (char *)(inbuffer + offset-1);
 666              		.loc 5 39 0
 667 001c 0331     		adds	r1, r1, #3
 668              	.LVL67:
 669 001e 4160     		str	r1, [r0, #4]
 670              	.LVL68:
  40:ROSSerial/std_msgs/ROSString.h ****       offset += length_data;
ARM GAS  /var/folders/l3/4y5292px21b4835bsnjwqc7w009kq1/T//ccaF8PhA.s 			page 20


  41:ROSSerial/std_msgs/ROSString.h ****      return offset;
  42:ROSSerial/std_msgs/ROSString.h ****     }
 671              		.loc 5 42 0
 672 0020 1046     		mov	r0, r2
 673              	.LVL69:
 674 0022 30BC     		pop	{r4, r5}
 675              	.LCFI5:
 676              		.cfi_restore 5
 677              		.cfi_restore 4
 678              		.cfi_def_cfa_offset 0
 679 0024 7047     		bx	lr
 680              		.cfi_endproc
 681              	.LFE404:
 682              		.cantunwind
 683              		.fnend
 685              		.section	.text._ZN8std_msgs6String7getTypeEv,"axG",%progbits,_ZN8std_msgs6String7getTypeEv,comdat
 686              		.align	1
 687              		.weak	_ZN8std_msgs6String7getTypeEv
 688              		.syntax unified
 689              		.thumb
 690              		.thumb_func
 691              		.fpu fpv4-sp-d16
 693              	_ZN8std_msgs6String7getTypeEv:
 694              		.fnstart
 695              	.LFB405:
  43:ROSSerial/std_msgs/ROSString.h **** 
  44:ROSSerial/std_msgs/ROSString.h ****     const char * getType(){ return "std_msgs/String"; };
 696              		.loc 5 44 0
 697              		.cfi_startproc
 698              		@ args = 0, pretend = 0, frame = 0
 699              		@ frame_needed = 0, uses_anonymous_args = 0
 700              		@ link register save eliminated.
 701              	.LVL70:
 702              		.loc 5 44 0
 703 0000 0048     		ldr	r0, .L44
 704              	.LVL71:
 705 0002 7047     		bx	lr
 706              	.L45:
 707              		.align	2
 708              	.L44:
 709 0004 00000000 		.word	.LC7
 710              		.cfi_endproc
 711              	.LFE405:
 712              		.cantunwind
 713              		.fnend
 715              		.section	.text._ZN8std_msgs6String6getMD5Ev,"axG",%progbits,_ZN8std_msgs6String6getMD5Ev,comdat
 716              		.align	1
 717              		.weak	_ZN8std_msgs6String6getMD5Ev
 718              		.syntax unified
 719              		.thumb
 720              		.thumb_func
 721              		.fpu fpv4-sp-d16
 723              	_ZN8std_msgs6String6getMD5Ev:
 724              		.fnstart
 725              	.LFB406:
  45:ROSSerial/std_msgs/ROSString.h ****     const char * getMD5(){ return "992ce8a1687cec8c8bd883ec73ca41d1"; };
 726              		.loc 5 45 0
ARM GAS  /var/folders/l3/4y5292px21b4835bsnjwqc7w009kq1/T//ccaF8PhA.s 			page 21


 727              		.cfi_startproc
 728              		@ args = 0, pretend = 0, frame = 0
 729              		@ frame_needed = 0, uses_anonymous_args = 0
 730              		@ link register save eliminated.
 731              	.LVL72:
 732              		.loc 5 45 0
 733 0000 0048     		ldr	r0, .L47
 734              	.LVL73:
 735 0002 7047     		bx	lr
 736              	.L48:
 737              		.align	2
 738              	.L47:
 739 0004 00000000 		.word	.LC8
 740              		.cfi_endproc
 741              	.LFE406:
 742              		.cantunwind
 743              		.fnend
 745              		.section	.text._Z41__static_initialization_and_destruction_0ii,"ax",%progbits
 746              		.align	1
 747              		.syntax unified
 748              		.thumb
 749              		.thumb_func
 750              		.fpu fpv4-sp-d16
 752              	_Z41__static_initialization_and_destruction_0ii:
 753              		.fnstart
 754              	.LFB510:
 755              		.file 6 "./Src/ROS_main.cpp"
   1:./Src/ROS_main.cpp **** /*
   2:./Src/ROS_main.cpp **** * Implement all ROS functions here.
   3:./Src/ROS_main.cpp **** */
   4:./Src/ROS_main.cpp **** 
   5:./Src/ROS_main.cpp **** #include "ros.h"
   6:./Src/ROS_main.cpp **** #include "ROS_subscribe.h"
   7:./Src/ROS_main.cpp **** #include "std_msgs/ROSString.h"
   8:./Src/ROS_main.cpp **** 
   9:./Src/ROS_main.cpp **** extern "C" 
  10:./Src/ROS_main.cpp **** {
  11:./Src/ROS_main.cpp ****     void ros_init();
  12:./Src/ROS_main.cpp ****     void ros_run();
  13:./Src/ROS_main.cpp **** }
  14:./Src/ROS_main.cpp **** 
  15:./Src/ROS_main.cpp **** ros::NodeHandle nh; /* ROS node handle */
  16:./Src/ROS_main.cpp **** 
  17:./Src/ROS_main.cpp **** ros::PublisherType *chatter;
  18:./Src/ROS_main.cpp **** //extern int16_t ledState;
  19:./Src/ROS_main.cpp **** 
  20:./Src/ROS_main.cpp **** void ros_init()
  21:./Src/ROS_main.cpp **** {
  22:./Src/ROS_main.cpp ****     /* ROS init, we can start UART hear in not in bsp */ 
  23:./Src/ROS_main.cpp ****     //nh_ = &nh;
  24:./Src/ROS_main.cpp ****     nh.initNode();
  25:./Src/ROS_main.cpp **** 
  26:./Src/ROS_main.cpp ****     /* Register Publisher Chatter */
  27:./Src/ROS_main.cpp ****     std_msgs::String str_msg;
  28:./Src/ROS_main.cpp ****     chatter = nh.addPublisher("chatter",  &str_msg);
  29:./Src/ROS_main.cpp **** 
  30:./Src/ROS_main.cpp ****     /* Register Subscriber led */
ARM GAS  /var/folders/l3/4y5292px21b4835bsnjwqc7w009kq1/T//ccaF8PhA.s 			page 22


  31:./Src/ROS_main.cpp ****     rosSubscribeInit(&nh);
  32:./Src/ROS_main.cpp **** }
  33:./Src/ROS_main.cpp **** 
  34:./Src/ROS_main.cpp **** void ros_run()
  35:./Src/ROS_main.cpp **** {
  36:./Src/ROS_main.cpp ****     nh.spinOnce1();
  37:./Src/ROS_main.cpp **** 
  38:./Src/ROS_main.cpp ****     //Note: If Msg is declared outside function/globally publish1 doesn't work.
  39:./Src/ROS_main.cpp ****     //may be constructor is not getting called.
  40:./Src/ROS_main.cpp ****     std_msgs::String str_msg;
  41:./Src/ROS_main.cpp **** 
  42:./Src/ROS_main.cpp ****     char buf[512];
  43:./Src/ROS_main.cpp ****     sprintf(buf,"Millis %ld ledState = %d",HAL_GetTick(), getLedState());
  44:./Src/ROS_main.cpp ****     str_msg.data = buf;
  45:./Src/ROS_main.cpp ****     //printf("%s\n",buf);
  46:./Src/ROS_main.cpp ****     
  47:./Src/ROS_main.cpp ****     nh.publish1(chatter->topic_id, &str_msg); 
  48:./Src/ROS_main.cpp **** 
  49:./Src/ROS_main.cpp **** }...
 756              		.loc 6 49 0
 757              		.cfi_startproc
 758              		@ args = 0, pretend = 0, frame = 0
 759              		@ frame_needed = 0, uses_anonymous_args = 0
 760              		@ link register save eliminated.
 761              	.LVL74:
 762              		.loc 6 49 0
 763 0000 0128     		cmp	r0, #1
 764 0002 00D0     		beq	.L59
 765              	.LVL75:
 766              	.L49:
 767 0004 7047     		bx	lr
 768              	.LVL76:
 769              	.L59:
 770              		.loc 6 49 0 is_stmt 0 discriminator 1
 771 0006 4FF6FF73 		movw	r3, #65535
 772 000a 9942     		cmp	r1, r3
 773 000c FAD1     		bne	.L49
 774              	.LVL77:
 775              	.LBB118:
 776              	.LBB119:
 777              	.LBB120:
 778              		.file 7 "ROSSerial/ros/node_handle.h"
   1:ROSSerial/ros/node_handle.h **** /*
   2:ROSSerial/ros/node_handle.h ****  * Software License Agreement (BSD License)
   3:ROSSerial/ros/node_handle.h ****  *
   4:ROSSerial/ros/node_handle.h ****  * Copyright (c) 2011, Willow Garage, Inc.
   5:ROSSerial/ros/node_handle.h ****  * All rights reserved.
   6:ROSSerial/ros/node_handle.h ****  *
   7:ROSSerial/ros/node_handle.h ****  * Redistribution and use in source and binary forms, with or without
   8:ROSSerial/ros/node_handle.h ****  * modification, are permitted provided that the following conditions
   9:ROSSerial/ros/node_handle.h ****  * are met:
  10:ROSSerial/ros/node_handle.h ****  *
  11:ROSSerial/ros/node_handle.h ****  *  * Redistributions of source code must retain the above copyright
  12:ROSSerial/ros/node_handle.h ****  *    notice, this list of conditions and the following disclaimer.
  13:ROSSerial/ros/node_handle.h ****  *  * Redistributions in binary form must reproduce the above
  14:ROSSerial/ros/node_handle.h ****  *    copyright notice, this list of conditions and the following
  15:ROSSerial/ros/node_handle.h ****  *    disclaimer in the documentation and/or other materials provided
ARM GAS  /var/folders/l3/4y5292px21b4835bsnjwqc7w009kq1/T//ccaF8PhA.s 			page 23


  16:ROSSerial/ros/node_handle.h ****  *    with the distribution.
  17:ROSSerial/ros/node_handle.h ****  *  * Neither the name of Willow Garage, Inc. nor the names of its
  18:ROSSerial/ros/node_handle.h ****  *    contributors may be used to endorse or promote prducts derived
  19:ROSSerial/ros/node_handle.h ****  *    from this software without specific prior written permission.
  20:ROSSerial/ros/node_handle.h ****  *
  21:ROSSerial/ros/node_handle.h ****  * THIS SOFTWARE IS PROVIDED BY THE COPYRIGHT HOLDERS AND CONTRIBUTORS
  22:ROSSerial/ros/node_handle.h ****  * "AS IS" AND ANY EXPRESS OR IMPLIED WARRANTIES, INCLUDING, BUT NOT
  23:ROSSerial/ros/node_handle.h ****  * LIMITED TO, THE IMPLIED WARRANTIES OF MERCHANTABILITY AND FITNESS
  24:ROSSerial/ros/node_handle.h ****  * FOR A PARTICULAR PURPOSE ARE DISCLAIMED. IN NO EVENT SHALL THE
  25:ROSSerial/ros/node_handle.h ****  * COPYRIGHT OWNER OR CONTRIBUTORS BE LIABLE FOR ANY DIRECT, INDIRECT,
  26:ROSSerial/ros/node_handle.h ****  * INCIDENTAL, SPECIAL, EXEMPLARY, OR CONSEQUENTIAL DAMAGES (INCLUDING,
  27:ROSSerial/ros/node_handle.h ****  * BUT NOT LIMITED TO, PROCUREMENT OF SUBSTITUTE GOODS OR SERVICES;
  28:ROSSerial/ros/node_handle.h ****  * LOSS OF USE, DATA, OR PROFITS; OR BUSINESS INTERRUPTION) HOWEVER
  29:ROSSerial/ros/node_handle.h ****  * CAUSED AND ON ANY THEORY OF LIABILITY, WHETHER IN CONTRACT, STRICT
  30:ROSSerial/ros/node_handle.h ****  * LIABILITY, OR TORT (INCLUDING NEGLIGENCE OR OTHERWISE) ARISING IN
  31:ROSSerial/ros/node_handle.h ****  * ANY WAY OUT OF THE USE OF THIS SOFTWARE, EVEN IF ADVISED OF THE
  32:ROSSerial/ros/node_handle.h ****  * POSSIBILITY OF SUCH DAMAGE.
  33:ROSSerial/ros/node_handle.h ****  */
  34:ROSSerial/ros/node_handle.h **** 
  35:ROSSerial/ros/node_handle.h **** #ifndef ROS_NODE_HANDLE_H_
  36:ROSSerial/ros/node_handle.h **** #define ROS_NODE_HANDLE_H_
  37:ROSSerial/ros/node_handle.h **** 
  38:ROSSerial/ros/node_handle.h **** #include <stdint.h>
  39:ROSSerial/ros/node_handle.h **** 
  40:ROSSerial/ros/node_handle.h **** #include "std_msgs/Time.h"
  41:ROSSerial/ros/node_handle.h **** #include "rosserial_msgs/TopicInfo.h"
  42:ROSSerial/ros/node_handle.h **** #include "rosserial_msgs/Log.h"
  43:ROSSerial/ros/node_handle.h **** #include "rosserial_msgs/RequestParam.h"
  44:ROSSerial/ros/node_handle.h **** #include "std_msgs/ROSString.h"
  45:ROSSerial/ros/node_handle.h **** #include "ros/msg.h"
  46:ROSSerial/ros/node_handle.h **** 
  47:ROSSerial/ros/node_handle.h **** namespace ros
  48:ROSSerial/ros/node_handle.h **** {
  49:ROSSerial/ros/node_handle.h **** 
  50:ROSSerial/ros/node_handle.h **** class NodeHandleBase_
  51:ROSSerial/ros/node_handle.h **** {
  52:ROSSerial/ros/node_handle.h **** public:
  53:ROSSerial/ros/node_handle.h ****   virtual int publish(int id, const Msg* msg) = 0;
  54:ROSSerial/ros/node_handle.h ****   virtual int spinOnce() = 0;
  55:ROSSerial/ros/node_handle.h ****   virtual bool connected() = 0;
  56:ROSSerial/ros/node_handle.h **** };
  57:ROSSerial/ros/node_handle.h **** }
  58:ROSSerial/ros/node_handle.h **** 
  59:ROSSerial/ros/node_handle.h **** #include "ros/publisher.h"
  60:ROSSerial/ros/node_handle.h **** #include "ros/subscriber.h"
  61:ROSSerial/ros/node_handle.h **** #include "ros/service_server.h"
  62:ROSSerial/ros/node_handle.h **** #include "ros/service_client.h"
  63:ROSSerial/ros/node_handle.h **** #include "std_msgs/UInt16.h"
  64:ROSSerial/ros/node_handle.h **** 
  65:ROSSerial/ros/node_handle.h **** namespace ros
  66:ROSSerial/ros/node_handle.h **** {
  67:ROSSerial/ros/node_handle.h **** 
  68:ROSSerial/ros/node_handle.h **** const int SPIN_OK = 0;
  69:ROSSerial/ros/node_handle.h **** const int SPIN_ERR = -1;
  70:ROSSerial/ros/node_handle.h **** const int SPIN_TIMEOUT = -2;
  71:ROSSerial/ros/node_handle.h **** 
  72:ROSSerial/ros/node_handle.h **** const uint8_t SYNC_SECONDS  = 5;
ARM GAS  /var/folders/l3/4y5292px21b4835bsnjwqc7w009kq1/T//ccaF8PhA.s 			page 24


  73:ROSSerial/ros/node_handle.h **** const uint8_t MODE_FIRST_FF = 0;
  74:ROSSerial/ros/node_handle.h **** 
  75:ROSSerial/ros/node_handle.h **** /*
  76:ROSSerial/ros/node_handle.h ****  * The second sync byte is a protocol version. It's value is 0xff for the first
  77:ROSSerial/ros/node_handle.h ****  * version of the rosserial protocol (used up to hydro), 0xfe for the second version
  78:ROSSerial/ros/node_handle.h ****  * (introduced in hydro), 0xfd for the next, and so on. Its purpose is to enable
  79:ROSSerial/ros/node_handle.h ****  * detection of mismatched protocol versions (e.g. hydro rosserial_python with groovy
  80:ROSSerial/ros/node_handle.h ****  * rosserial_arduino. It must be changed in both this file and in
  81:ROSSerial/ros/node_handle.h ****  * rosserial_python/src/rosserial_python/SerialClient.py
  82:ROSSerial/ros/node_handle.h ****  */
  83:ROSSerial/ros/node_handle.h **** const uint8_t MODE_PROTOCOL_VER   = 1;
  84:ROSSerial/ros/node_handle.h **** const uint8_t PROTOCOL_VER1       = 0xff; // through groovy
  85:ROSSerial/ros/node_handle.h **** const uint8_t PROTOCOL_VER2       = 0xfe; // in hydro
  86:ROSSerial/ros/node_handle.h **** const uint8_t PROTOCOL_VER        = PROTOCOL_VER2;
  87:ROSSerial/ros/node_handle.h **** const uint8_t MODE_SIZE_L         = 2;
  88:ROSSerial/ros/node_handle.h **** const uint8_t MODE_SIZE_H         = 3;
  89:ROSSerial/ros/node_handle.h **** const uint8_t MODE_SIZE_CHECKSUM  = 4;    // checksum for msg size received from size L and H
  90:ROSSerial/ros/node_handle.h **** const uint8_t MODE_TOPIC_L        = 5;    // waiting for topic id
  91:ROSSerial/ros/node_handle.h **** const uint8_t MODE_TOPIC_H        = 6;
  92:ROSSerial/ros/node_handle.h **** const uint8_t MODE_MESSAGE        = 7;
  93:ROSSerial/ros/node_handle.h **** const uint8_t MODE_MSG_CHECKSUM   = 8;    // checksum for msg and topic id
  94:ROSSerial/ros/node_handle.h **** 
  95:ROSSerial/ros/node_handle.h **** 
  96:ROSSerial/ros/node_handle.h **** const uint8_t SERIAL_MSG_TIMEOUT  = 20;   // 20 milliseconds to recieve all of message data
  97:ROSSerial/ros/node_handle.h **** 
  98:ROSSerial/ros/node_handle.h **** using rosserial_msgs::TopicInfo;
  99:ROSSerial/ros/node_handle.h **** 
 100:ROSSerial/ros/node_handle.h **** typedef struct
 101:ROSSerial/ros/node_handle.h **** {
 102:ROSSerial/ros/node_handle.h ****     uint16_t topic_id;
 103:ROSSerial/ros/node_handle.h ****     const char* topic_name;
 104:ROSSerial/ros/node_handle.h ****     const char* message_type;
 105:ROSSerial/ros/node_handle.h ****     const char* md5sum;
 106:ROSSerial/ros/node_handle.h ****     void (*callback)(const Msg& );
 107:ROSSerial/ros/node_handle.h **** } SubscriberType;
 108:ROSSerial/ros/node_handle.h **** 
 109:ROSSerial/ros/node_handle.h **** typedef struct
 110:ROSSerial/ros/node_handle.h **** {
 111:ROSSerial/ros/node_handle.h ****     uint16_t topic_id;
 112:ROSSerial/ros/node_handle.h ****     const char* topic_name;
 113:ROSSerial/ros/node_handle.h ****     const Msg* msg; 
 114:ROSSerial/ros/node_handle.h ****     const char* message_type;
 115:ROSSerial/ros/node_handle.h ****     const char* md5sum;
 116:ROSSerial/ros/node_handle.h **** } PublisherType;
 117:ROSSerial/ros/node_handle.h **** 
 118:ROSSerial/ros/node_handle.h **** /* Node Handle */
 119:ROSSerial/ros/node_handle.h **** template<class Hardware,
 120:ROSSerial/ros/node_handle.h ****          int MAX_SUBSCRIBERS = 25,
 121:ROSSerial/ros/node_handle.h ****          int MAX_PUBLISHERS = 25,
 122:ROSSerial/ros/node_handle.h ****          int INPUT_SIZE = 512,
 123:ROSSerial/ros/node_handle.h ****          int OUTPUT_SIZE = 512>
 124:ROSSerial/ros/node_handle.h **** class NodeHandle_ : public NodeHandleBase_
 125:ROSSerial/ros/node_handle.h **** {
 126:ROSSerial/ros/node_handle.h **** protected:
 127:ROSSerial/ros/node_handle.h ****   Hardware hardware_;
 128:ROSSerial/ros/node_handle.h **** 
 129:ROSSerial/ros/node_handle.h ****   /* time used for syncing */
ARM GAS  /var/folders/l3/4y5292px21b4835bsnjwqc7w009kq1/T//ccaF8PhA.s 			page 25


 130:ROSSerial/ros/node_handle.h ****   uint32_t rt_time;
 131:ROSSerial/ros/node_handle.h **** 
 132:ROSSerial/ros/node_handle.h ****   /* used for computing current time */
 133:ROSSerial/ros/node_handle.h ****   uint32_t sec_offset, nsec_offset;
 134:ROSSerial/ros/node_handle.h **** 
 135:ROSSerial/ros/node_handle.h ****   /* Spinonce maximum work timeout */
 136:ROSSerial/ros/node_handle.h ****   uint32_t spin_timeout_;
 137:ROSSerial/ros/node_handle.h **** 
 138:ROSSerial/ros/node_handle.h ****   uint8_t message_in[INPUT_SIZE];
 139:ROSSerial/ros/node_handle.h ****   uint8_t message_out[OUTPUT_SIZE];
 140:ROSSerial/ros/node_handle.h **** 
 141:ROSSerial/ros/node_handle.h ****   Publisher * publishers[MAX_PUBLISHERS];
 142:ROSSerial/ros/node_handle.h ****   PublisherType publishers2[MAX_PUBLISHERS];
 143:ROSSerial/ros/node_handle.h ****   Subscriber_ * subscribers[MAX_SUBSCRIBERS];
 144:ROSSerial/ros/node_handle.h ****   SubscriberType subscribers2[MAX_SUBSCRIBERS];
 145:ROSSerial/ros/node_handle.h **** 
 146:ROSSerial/ros/node_handle.h ****   /*
 147:ROSSerial/ros/node_handle.h ****    * Setup Functions
 148:ROSSerial/ros/node_handle.h ****    */
 149:ROSSerial/ros/node_handle.h **** public:
 150:ROSSerial/ros/node_handle.h ****   NodeHandle_() : configured_(false)
 779              		.loc 7 150 0 is_stmt 1
 780 000e 244A     		ldr	r2, .L60
 781 0010 244B     		ldr	r3, .L60+4
 782 0012 1360     		str	r3, [r2]
 783 0014 0023     		movs	r3, #0
 784 0016 82F81C35 		strb	r3, [r2, #1308]
 785              	.LVL78:
 786              	.LBB121:
 787              	.LBB122:
  51:ROSSerial/rosserial_msgs/RequestParam.h ****   {
 788              		.loc 4 51 0
 789 001a 2349     		ldr	r1, .L60+8
 790              	.LVL79:
 791 001c C2F83015 		str	r1, [r2, #1328]
 792              	.LVL80:
 793              	.L52:
 794              	.LBE122:
 795              	.LBE121:
 796              	.LBB123:
 797              	.LBB124:
 151:ROSSerial/ros/node_handle.h ****   {
 152:ROSSerial/ros/node_handle.h **** 
 153:ROSSerial/ros/node_handle.h ****     for (unsigned int i = 0; i < MAX_PUBLISHERS; i++) {
 798              		.loc 7 153 0
 799 0020 042B     		cmp	r3, #4
 800 0022 0CD8     		bhi	.L56
 154:ROSSerial/ros/node_handle.h ****       publishers[i] = 0;
 801              		.loc 7 154 0
 802 0024 1E48     		ldr	r0, .L60
 803 0026 03F58372 		add	r2, r3, #262
 804 002a 0021     		movs	r1, #0
 805 002c 40F82210 		str	r1, [r0, r2, lsl #2]
 155:ROSSerial/ros/node_handle.h ****       publishers2[i].topic_id = 0;
 806              		.loc 7 155 0
 807 0030 1422     		movs	r2, #20
 808 0032 02FB0302 		mla	r2, r2, r3, r0
ARM GAS  /var/folders/l3/4y5292px21b4835bsnjwqc7w009kq1/T//ccaF8PhA.s 			page 26


 809 0036 A2F82C14 		strh	r1, [r2, #1068]	@ movhi
 153:ROSSerial/ros/node_handle.h ****       publishers[i] = 0;
 810              		.loc 7 153 0
 811 003a 0133     		adds	r3, r3, #1
 812              	.LVL81:
 813 003c F0E7     		b	.L52
 814              	.L56:
 815              	.LBE124:
 816              	.LBB125:
 156:ROSSerial/ros/node_handle.h ****     }
 157:ROSSerial/ros/node_handle.h **** 
 158:ROSSerial/ros/node_handle.h ****     for (unsigned int i = 0; i < MAX_SUBSCRIBERS; i++) {
 817              		.loc 7 158 0
 818 003e 0023     		movs	r3, #0
 819              	.LVL82:
 820              	.L51:
 821 0040 042B     		cmp	r3, #4
 822 0042 0CD8     		bhi	.L57
 159:ROSSerial/ros/node_handle.h ****       subscribers[i] = 0;
 823              		.loc 7 159 0
 824 0044 1648     		ldr	r0, .L60
 825 0046 03F59272 		add	r2, r3, #292
 826 004a 0021     		movs	r1, #0
 827 004c 40F82210 		str	r1, [r0, r2, lsl #2]
 160:ROSSerial/ros/node_handle.h ****       subscribers2[i].topic_id = 0;
 828              		.loc 7 160 0
 829 0050 1422     		movs	r2, #20
 830 0052 02FB0302 		mla	r2, r2, r3, r0
 831 0056 A2F8A414 		strh	r1, [r2, #1188]	@ movhi
 158:ROSSerial/ros/node_handle.h ****       subscribers[i] = 0;
 832              		.loc 7 158 0
 833 005a 0133     		adds	r3, r3, #1
 834              	.LVL83:
 835 005c F0E7     		b	.L51
 836              	.L57:
 837              	.LBE125:
 838              	.LBB126:
 161:ROSSerial/ros/node_handle.h ****     }
 162:ROSSerial/ros/node_handle.h **** 
 163:ROSSerial/ros/node_handle.h ****     for (unsigned int i = 0; i < INPUT_SIZE; i++)
 839              		.loc 7 163 0
 840 005e 0023     		movs	r3, #0
 841              	.LVL84:
 842              	.L53:
 843 0060 B3F5007F 		cmp	r3, #512
 844 0064 05D2     		bcs	.L58
 164:ROSSerial/ros/node_handle.h ****       message_in[i] = 0;
 845              		.loc 7 164 0
 846 0066 0E4A     		ldr	r2, .L60
 847 0068 1A44     		add	r2, r2, r3
 848 006a 0021     		movs	r1, #0
 849 006c 1176     		strb	r1, [r2, #24]
 163:ROSSerial/ros/node_handle.h ****       message_in[i] = 0;
 850              		.loc 7 163 0
 851 006e 0133     		adds	r3, r3, #1
 852              	.LVL85:
 853 0070 F6E7     		b	.L53
ARM GAS  /var/folders/l3/4y5292px21b4835bsnjwqc7w009kq1/T//ccaF8PhA.s 			page 27


 854              	.L58:
 855              	.LBE126:
 856              	.LBB127:
 165:ROSSerial/ros/node_handle.h **** 
 166:ROSSerial/ros/node_handle.h ****     for (unsigned int i = 0; i < OUTPUT_SIZE; i++)
 857              		.loc 7 166 0
 858 0072 0023     		movs	r3, #0
 859              	.LVL86:
 860              	.L54:
 861 0074 B3F5007F 		cmp	r3, #512
 862 0078 06D2     		bcs	.L55
 167:ROSSerial/ros/node_handle.h ****       message_out[i] = 0;
 863              		.loc 7 167 0
 864 007a 094A     		ldr	r2, .L60
 865 007c 1A44     		add	r2, r2, r3
 866 007e 0021     		movs	r1, #0
 867 0080 82F81812 		strb	r1, [r2, #536]
 166:ROSSerial/ros/node_handle.h ****       message_out[i] = 0;
 868              		.loc 7 166 0
 869 0084 0133     		adds	r3, r3, #1
 870              	.LVL87:
 871 0086 F5E7     		b	.L54
 872              	.L55:
 873              	.LBE127:
 168:ROSSerial/ros/node_handle.h **** 
 169:ROSSerial/ros/node_handle.h ****     req_param_resp.ints_length = 0;
 874              		.loc 7 169 0
 875 0088 054B     		ldr	r3, .L60
 876              	.LVL88:
 877 008a 0022     		movs	r2, #0
 878 008c 83F83425 		strb	r2, [r3, #1332]
 170:ROSSerial/ros/node_handle.h ****     req_param_resp.ints = NULL;
 879              		.loc 7 170 0
 880 0090 C3F83C25 		str	r2, [r3, #1340]
 171:ROSSerial/ros/node_handle.h ****     req_param_resp.floats_length = 0;
 881              		.loc 7 171 0
 882 0094 83F84025 		strb	r2, [r3, #1344]
 172:ROSSerial/ros/node_handle.h ****     req_param_resp.floats = NULL;
 883              		.loc 7 172 0
 884 0098 C3F84825 		str	r2, [r3, #1352]
 173:ROSSerial/ros/node_handle.h ****     req_param_resp.ints_length = 0;
 174:ROSSerial/ros/node_handle.h ****     req_param_resp.ints = NULL;
 175:ROSSerial/ros/node_handle.h **** 
 176:ROSSerial/ros/node_handle.h ****     spin_timeout_ = 0;
 885              		.loc 7 176 0
 886 009c 5A61     		str	r2, [r3, #20]
 887              	.LBE123:
 888              	.LBE120:
 889              	.LBE119:
 890              	.LBE118:
 891              		.loc 6 49 0
 892 009e B1E7     		b	.L49
 893              	.L61:
 894              		.align	2
 895              	.L60:
 896 00a0 00000000 		.word	.LANCHOR1
 897 00a4 08000000 		.word	_ZTVN3ros11NodeHandle_I13STM32HardwareLi5ELi5ELi512ELi512EEE+8
ARM GAS  /var/folders/l3/4y5292px21b4835bsnjwqc7w009kq1/T//ccaF8PhA.s 			page 28


 898 00a8 08000000 		.word	_ZTVN14rosserial_msgs20RequestParamResponseE+8
 899              		.cfi_endproc
 900              	.LFE510:
 901              		.cantunwind
 902              		.fnend
 904              		.section	.text._ZN3ros11NodeHandle_I13STM32HardwareLi5ELi5ELi512ELi512EE9connectedEv,"axG",%progbi
 905              		.align	1
 906              		.weak	_ZN3ros11NodeHandle_I13STM32HardwareLi5ELi5ELi512ELi512EE9connectedEv
 907              		.syntax unified
 908              		.thumb
 909              		.thumb_func
 910              		.fpu fpv4-sp-d16
 912              	_ZN3ros11NodeHandle_I13STM32HardwareLi5ELi5ELi512ELi512EE9connectedEv:
 913              		.fnstart
 914              	.LFB513:
 177:ROSSerial/ros/node_handle.h ****   }
 178:ROSSerial/ros/node_handle.h **** 
 179:ROSSerial/ros/node_handle.h ****   Hardware* getHardware()
 180:ROSSerial/ros/node_handle.h ****   {
 181:ROSSerial/ros/node_handle.h ****     return &hardware_;
 182:ROSSerial/ros/node_handle.h ****   }
 183:ROSSerial/ros/node_handle.h **** 
 184:ROSSerial/ros/node_handle.h ****   /* Start serial, initialize buffers */
 185:ROSSerial/ros/node_handle.h ****   void initNode()
 186:ROSSerial/ros/node_handle.h ****   {
 187:ROSSerial/ros/node_handle.h ****     hardware_.init();
 188:ROSSerial/ros/node_handle.h ****     mode_ = 0;
 189:ROSSerial/ros/node_handle.h ****     bytes_ = 0;
 190:ROSSerial/ros/node_handle.h ****     index_ = 0;
 191:ROSSerial/ros/node_handle.h ****     topic_ = 0;
 192:ROSSerial/ros/node_handle.h ****     printf("Node init\n");
 193:ROSSerial/ros/node_handle.h ****   };
 194:ROSSerial/ros/node_handle.h **** 
 195:ROSSerial/ros/node_handle.h ****   /* Start a named port, which may be network server IP, initialize buffers */
 196:ROSSerial/ros/node_handle.h ****   void initNode(char *portName)
 197:ROSSerial/ros/node_handle.h ****   {
 198:ROSSerial/ros/node_handle.h ****     hardware_.init(portName);
 199:ROSSerial/ros/node_handle.h ****     mode_ = 0;
 200:ROSSerial/ros/node_handle.h ****     bytes_ = 0;
 201:ROSSerial/ros/node_handle.h ****     index_ = 0;
 202:ROSSerial/ros/node_handle.h ****     topic_ = 0;
 203:ROSSerial/ros/node_handle.h ****   };
 204:ROSSerial/ros/node_handle.h **** 
 205:ROSSerial/ros/node_handle.h ****   /**
 206:ROSSerial/ros/node_handle.h ****    * @brief Sets the maximum time in millisconds that spinOnce() can work.
 207:ROSSerial/ros/node_handle.h ****    * This will not effect the processing of the buffer, as spinOnce processes
 208:ROSSerial/ros/node_handle.h ****    * one byte at a time. It simply sets the maximum time that one call can
 209:ROSSerial/ros/node_handle.h ****    * process for. You can choose to clear the buffer if that is beneficial if
 210:ROSSerial/ros/node_handle.h ****    * SPIN_TIMEOUT is returned from spinOnce().
 211:ROSSerial/ros/node_handle.h ****    * @param timeout The timeout in milliseconds that spinOnce will function.
 212:ROSSerial/ros/node_handle.h ****    */
 213:ROSSerial/ros/node_handle.h ****   void setSpinTimeout(const uint32_t& timeout)
 214:ROSSerial/ros/node_handle.h ****   {
 215:ROSSerial/ros/node_handle.h ****      spin_timeout_ = timeout;
 216:ROSSerial/ros/node_handle.h ****   }
 217:ROSSerial/ros/node_handle.h **** 
 218:ROSSerial/ros/node_handle.h **** protected:
ARM GAS  /var/folders/l3/4y5292px21b4835bsnjwqc7w009kq1/T//ccaF8PhA.s 			page 29


 219:ROSSerial/ros/node_handle.h ****   //State machine variables for spinOnce
 220:ROSSerial/ros/node_handle.h ****   int mode_;
 221:ROSSerial/ros/node_handle.h ****   int bytes_;
 222:ROSSerial/ros/node_handle.h ****   int topic_;
 223:ROSSerial/ros/node_handle.h ****   int index_;
 224:ROSSerial/ros/node_handle.h ****   int checksum_;
 225:ROSSerial/ros/node_handle.h **** 
 226:ROSSerial/ros/node_handle.h ****   bool configured_;
 227:ROSSerial/ros/node_handle.h **** 
 228:ROSSerial/ros/node_handle.h ****   /* used for syncing the time */
 229:ROSSerial/ros/node_handle.h ****   uint32_t last_sync_time;
 230:ROSSerial/ros/node_handle.h ****   uint32_t last_sync_receive_time;
 231:ROSSerial/ros/node_handle.h ****   uint32_t last_msg_timeout_time;
 232:ROSSerial/ros/node_handle.h **** 
 233:ROSSerial/ros/node_handle.h **** public:
 234:ROSSerial/ros/node_handle.h ****   /* This function goes in your loop() function, it handles
 235:ROSSerial/ros/node_handle.h ****    *  serial input and callbacks for subscribers.
 236:ROSSerial/ros/node_handle.h ****    */
 237:ROSSerial/ros/node_handle.h **** 
 238:ROSSerial/ros/node_handle.h ****   virtual int spinOnce() {
 239:ROSSerial/ros/node_handle.h ****     return spinOnce1();
 240:ROSSerial/ros/node_handle.h ****   }
 241:ROSSerial/ros/node_handle.h **** 
 242:ROSSerial/ros/node_handle.h **** //calling spinOnce() directly from spin_task gives stackoverflow
 243:ROSSerial/ros/node_handle.h ****   int spinOnce1()
 244:ROSSerial/ros/node_handle.h ****   {
 245:ROSSerial/ros/node_handle.h ****     static void (*s_CallBack)(char *);
 246:ROSSerial/ros/node_handle.h ****     
 247:ROSSerial/ros/node_handle.h ****     //printf("spinOnce\n");
 248:ROSSerial/ros/node_handle.h ****     /* restart if timed out */
 249:ROSSerial/ros/node_handle.h ****     uint32_t c_time = hardware_.time();
 250:ROSSerial/ros/node_handle.h ****     //printf("spinOnce %ld\n",c_time);
 251:ROSSerial/ros/node_handle.h **** 
 252:ROSSerial/ros/node_handle.h ****     if ((c_time - last_sync_receive_time) > (SYNC_SECONDS * 2200))
 253:ROSSerial/ros/node_handle.h ****     {
 254:ROSSerial/ros/node_handle.h ****       configured_ = false;
 255:ROSSerial/ros/node_handle.h ****     }
 256:ROSSerial/ros/node_handle.h **** 
 257:ROSSerial/ros/node_handle.h ****     /* reset if message has timed out */
 258:ROSSerial/ros/node_handle.h ****     if (mode_ != MODE_FIRST_FF)
 259:ROSSerial/ros/node_handle.h ****     {
 260:ROSSerial/ros/node_handle.h ****       if (c_time > last_msg_timeout_time)
 261:ROSSerial/ros/node_handle.h ****       {
 262:ROSSerial/ros/node_handle.h ****         mode_ = MODE_FIRST_FF;
 263:ROSSerial/ros/node_handle.h ****       }
 264:ROSSerial/ros/node_handle.h ****     }
 265:ROSSerial/ros/node_handle.h **** 
 266:ROSSerial/ros/node_handle.h ****     /* while available buffer, read data */
 267:ROSSerial/ros/node_handle.h ****     while (true)
 268:ROSSerial/ros/node_handle.h ****     {
 269:ROSSerial/ros/node_handle.h ****       // If a timeout has been specified, check how long spinOnce has been running.
 270:ROSSerial/ros/node_handle.h ****       if (spin_timeout_ > 0)
 271:ROSSerial/ros/node_handle.h ****       {
 272:ROSSerial/ros/node_handle.h ****         // If the maximum processing timeout has been exceeded, exit with error.
 273:ROSSerial/ros/node_handle.h ****         // The next spinOnce can continue where it left off, or optionally
 274:ROSSerial/ros/node_handle.h ****         // based on the application in use, the hardware buffer could be flushed
 275:ROSSerial/ros/node_handle.h ****         // and start fresh.
ARM GAS  /var/folders/l3/4y5292px21b4835bsnjwqc7w009kq1/T//ccaF8PhA.s 			page 30


 276:ROSSerial/ros/node_handle.h ****         if ((hardware_.time() - c_time) > spin_timeout_)
 277:ROSSerial/ros/node_handle.h ****         {
 278:ROSSerial/ros/node_handle.h ****           // Exit the spin, processing timeout exceeded.
 279:ROSSerial/ros/node_handle.h ****           return SPIN_TIMEOUT;
 280:ROSSerial/ros/node_handle.h ****         }
 281:ROSSerial/ros/node_handle.h ****       }
 282:ROSSerial/ros/node_handle.h ****       int data = hardware_.read();
 283:ROSSerial/ros/node_handle.h ****       if (data < 0)
 284:ROSSerial/ros/node_handle.h ****         break;
 285:ROSSerial/ros/node_handle.h ****       checksum_ += data;
 286:ROSSerial/ros/node_handle.h ****       if (mode_ == MODE_MESSAGE)          /* message data being recieved */
 287:ROSSerial/ros/node_handle.h ****       {
 288:ROSSerial/ros/node_handle.h ****         message_in[index_++] = data;
 289:ROSSerial/ros/node_handle.h ****         bytes_--;
 290:ROSSerial/ros/node_handle.h ****         if (bytes_ == 0)                 /* is message complete? if so, checksum */
 291:ROSSerial/ros/node_handle.h ****           mode_ = MODE_MSG_CHECKSUM;
 292:ROSSerial/ros/node_handle.h ****       }
 293:ROSSerial/ros/node_handle.h ****       else if (mode_ == MODE_FIRST_FF)
 294:ROSSerial/ros/node_handle.h ****       {
 295:ROSSerial/ros/node_handle.h ****         if (data == 0xff)
 296:ROSSerial/ros/node_handle.h ****         {
 297:ROSSerial/ros/node_handle.h ****           mode_++;
 298:ROSSerial/ros/node_handle.h ****           last_msg_timeout_time = c_time + SERIAL_MSG_TIMEOUT;
 299:ROSSerial/ros/node_handle.h ****         }
 300:ROSSerial/ros/node_handle.h ****         else if (hardware_.time() - c_time > (SYNC_SECONDS * 1000))
 301:ROSSerial/ros/node_handle.h ****         {
 302:ROSSerial/ros/node_handle.h ****           /* We have been stuck in spinOnce too long, return error */
 303:ROSSerial/ros/node_handle.h ****           configured_ = false;
 304:ROSSerial/ros/node_handle.h ****           return SPIN_TIMEOUT;
 305:ROSSerial/ros/node_handle.h ****         }
 306:ROSSerial/ros/node_handle.h ****       }
 307:ROSSerial/ros/node_handle.h ****       else if (mode_ == MODE_PROTOCOL_VER)
 308:ROSSerial/ros/node_handle.h ****       {
 309:ROSSerial/ros/node_handle.h ****         if (data == PROTOCOL_VER)
 310:ROSSerial/ros/node_handle.h ****         {
 311:ROSSerial/ros/node_handle.h ****           mode_++;
 312:ROSSerial/ros/node_handle.h ****         }
 313:ROSSerial/ros/node_handle.h ****         else
 314:ROSSerial/ros/node_handle.h ****         {
 315:ROSSerial/ros/node_handle.h ****           mode_ = MODE_FIRST_FF;
 316:ROSSerial/ros/node_handle.h ****           if (configured_ == false)
 317:ROSSerial/ros/node_handle.h ****             requestSyncTime();  /* send a msg back showing our protocol version */
 318:ROSSerial/ros/node_handle.h ****         }
 319:ROSSerial/ros/node_handle.h ****       }
 320:ROSSerial/ros/node_handle.h ****       else if (mode_ == MODE_SIZE_L)      /* bottom half of message size */
 321:ROSSerial/ros/node_handle.h ****       {
 322:ROSSerial/ros/node_handle.h ****         bytes_ = data;
 323:ROSSerial/ros/node_handle.h ****         index_ = 0;
 324:ROSSerial/ros/node_handle.h ****         mode_++;
 325:ROSSerial/ros/node_handle.h ****         checksum_ = data;               /* first byte for calculating size checksum */
 326:ROSSerial/ros/node_handle.h ****       }
 327:ROSSerial/ros/node_handle.h ****       else if (mode_ == MODE_SIZE_H)      /* top half of message size */
 328:ROSSerial/ros/node_handle.h ****       {
 329:ROSSerial/ros/node_handle.h ****         bytes_ += data << 8;
 330:ROSSerial/ros/node_handle.h ****         mode_++;
 331:ROSSerial/ros/node_handle.h ****       }
 332:ROSSerial/ros/node_handle.h ****       else if (mode_ == MODE_SIZE_CHECKSUM)
ARM GAS  /var/folders/l3/4y5292px21b4835bsnjwqc7w009kq1/T//ccaF8PhA.s 			page 31


 333:ROSSerial/ros/node_handle.h ****       {
 334:ROSSerial/ros/node_handle.h ****         if ((checksum_ % 256) == 255)
 335:ROSSerial/ros/node_handle.h ****           mode_++;
 336:ROSSerial/ros/node_handle.h ****         else
 337:ROSSerial/ros/node_handle.h ****           mode_ = MODE_FIRST_FF;          /* Abandon the frame if the msg len is wrong */
 338:ROSSerial/ros/node_handle.h ****       }
 339:ROSSerial/ros/node_handle.h ****       else if (mode_ == MODE_TOPIC_L)     /* bottom half of topic id */
 340:ROSSerial/ros/node_handle.h ****       {
 341:ROSSerial/ros/node_handle.h ****         topic_ = data;
 342:ROSSerial/ros/node_handle.h ****         mode_++;
 343:ROSSerial/ros/node_handle.h ****         checksum_ = data;               /* first byte included in checksum */
 344:ROSSerial/ros/node_handle.h ****       }
 345:ROSSerial/ros/node_handle.h ****       else if (mode_ == MODE_TOPIC_H)     /* top half of topic id */
 346:ROSSerial/ros/node_handle.h ****       {
 347:ROSSerial/ros/node_handle.h ****         topic_ += data << 8;
 348:ROSSerial/ros/node_handle.h ****         mode_ = MODE_MESSAGE;
 349:ROSSerial/ros/node_handle.h ****         if (bytes_ == 0)
 350:ROSSerial/ros/node_handle.h ****           mode_ = MODE_MSG_CHECKSUM;
 351:ROSSerial/ros/node_handle.h ****       }
 352:ROSSerial/ros/node_handle.h ****       else if (mode_ == MODE_MSG_CHECKSUM)    /* do checksum */
 353:ROSSerial/ros/node_handle.h ****       {
 354:ROSSerial/ros/node_handle.h ****         mode_ = MODE_FIRST_FF;
 355:ROSSerial/ros/node_handle.h ****         if ((checksum_ % 256) == 255)
 356:ROSSerial/ros/node_handle.h ****         {
 357:ROSSerial/ros/node_handle.h ****           if (topic_ == TopicInfo::ID_PUBLISHER)
 358:ROSSerial/ros/node_handle.h ****           {
 359:ROSSerial/ros/node_handle.h ****             requestSyncTime();
 360:ROSSerial/ros/node_handle.h ****             negotiateTopics();
 361:ROSSerial/ros/node_handle.h ****             last_sync_time = c_time;
 362:ROSSerial/ros/node_handle.h ****             last_sync_receive_time = c_time;
 363:ROSSerial/ros/node_handle.h ****             return SPIN_ERR;
 364:ROSSerial/ros/node_handle.h ****           }
 365:ROSSerial/ros/node_handle.h ****           else if (topic_ == TopicInfo::ID_TIME)
 366:ROSSerial/ros/node_handle.h ****           {
 367:ROSSerial/ros/node_handle.h ****             syncTime(message_in);
 368:ROSSerial/ros/node_handle.h ****           }
 369:ROSSerial/ros/node_handle.h ****           else if (topic_ == TopicInfo::ID_PARAMETER_REQUEST)
 370:ROSSerial/ros/node_handle.h ****           {
 371:ROSSerial/ros/node_handle.h ****             req_param_resp.deserialize(message_in);
 372:ROSSerial/ros/node_handle.h ****             param_recieved = true;
 373:ROSSerial/ros/node_handle.h ****           }
 374:ROSSerial/ros/node_handle.h ****           else if (topic_ == TopicInfo::ID_TX_STOP)
 375:ROSSerial/ros/node_handle.h ****           {
 376:ROSSerial/ros/node_handle.h ****             configured_ = false;
 377:ROSSerial/ros/node_handle.h ****           }
 378:ROSSerial/ros/node_handle.h ****           else
 379:ROSSerial/ros/node_handle.h ****           {
 380:ROSSerial/ros/node_handle.h ****             if (subscribers2[topic_ - 100].topic_id != 0) {
 381:ROSSerial/ros/node_handle.h ****               s_CallBack = (void (*)(char*))subscribers2[topic_ - 100].callback;
 382:ROSSerial/ros/node_handle.h ****               //printf("Calling callback with %id\n",subscribers2[topic_ - 100].topic_id);
 383:ROSSerial/ros/node_handle.h ****               s_CallBack(message_in);
 384:ROSSerial/ros/node_handle.h ****             }
 385:ROSSerial/ros/node_handle.h ****           }
 386:ROSSerial/ros/node_handle.h ****         }
 387:ROSSerial/ros/node_handle.h ****       }
 388:ROSSerial/ros/node_handle.h ****     }
 389:ROSSerial/ros/node_handle.h **** 
ARM GAS  /var/folders/l3/4y5292px21b4835bsnjwqc7w009kq1/T//ccaF8PhA.s 			page 32


 390:ROSSerial/ros/node_handle.h ****     /* occasionally sync time */
 391:ROSSerial/ros/node_handle.h ****     if (configured_ && ((c_time - last_sync_time) > (SYNC_SECONDS * 500)))
 392:ROSSerial/ros/node_handle.h ****     {
 393:ROSSerial/ros/node_handle.h ****       requestSyncTime();
 394:ROSSerial/ros/node_handle.h ****       last_sync_time = c_time;
 395:ROSSerial/ros/node_handle.h ****     }
 396:ROSSerial/ros/node_handle.h **** 
 397:ROSSerial/ros/node_handle.h ****     return SPIN_OK;
 398:ROSSerial/ros/node_handle.h ****   }
 399:ROSSerial/ros/node_handle.h **** 
 400:ROSSerial/ros/node_handle.h **** 
 401:ROSSerial/ros/node_handle.h ****   /* Are we connected to the PC? */
 402:ROSSerial/ros/node_handle.h ****   virtual bool connected()
 915              		.loc 7 402 0
 916              		.cfi_startproc
 917              		@ args = 0, pretend = 0, frame = 0
 918              		@ frame_needed = 0, uses_anonymous_args = 0
 919              		@ link register save eliminated.
 920              	.LVL89:
 403:ROSSerial/ros/node_handle.h ****   {
 404:ROSSerial/ros/node_handle.h ****     return configured_;
 405:ROSSerial/ros/node_handle.h ****   };
 921              		.loc 7 405 0
 922 0000 90F81C05 		ldrb	r0, [r0, #1308]	@ zero_extendqisi2
 923              	.LVL90:
 924 0004 7047     		bx	lr
 925              		.cfi_endproc
 926              	.LFE513:
 927              		.cantunwind
 928              		.fnend
 930              		.section	.text._ZNK8std_msgs6String9serializeEPh,"axG",%progbits,_ZNK8std_msgs6String9serializeEPh
 931              		.align	1
 932              		.weak	_ZNK8std_msgs6String9serializeEPh
 933              		.syntax unified
 934              		.thumb
 935              		.thumb_func
 936              		.fpu fpv4-sp-d16
 938              	_ZNK8std_msgs6String9serializeEPh:
 939              		.fnstart
 940              	.LFB403:
  18:ROSSerial/std_msgs/ROSString.h ****     {
 941              		.loc 5 18 0
 942              		.cfi_startproc
 943              		@ args = 0, pretend = 0, frame = 0
 944              		@ frame_needed = 0, uses_anonymous_args = 0
 945              	.LVL91:
 946 0000 70B5     		push	{r4, r5, r6, lr}
 947              	.LCFI6:
 948              		.cfi_def_cfa_offset 16
 949              		.cfi_offset 4, -16
 950              		.cfi_offset 5, -12
 951              		.cfi_offset 6, -8
 952              		.cfi_offset 14, -4
 953 0002 0646     		mov	r6, r0
 954 0004 0C46     		mov	r4, r1
 955              	.LVL92:
  21:ROSSerial/std_msgs/ROSString.h ****       memcpy(outbuffer + offset, &length_data, sizeof(uint32_t));
ARM GAS  /var/folders/l3/4y5292px21b4835bsnjwqc7w009kq1/T//ccaF8PhA.s 			page 33


 956              		.loc 5 21 0
 957 0006 4068     		ldr	r0, [r0, #4]
 958              	.LVL93:
 959 0008 FFF7FEFF 		bl	strlen
 960              	.LVL94:
 961 000c 0546     		mov	r5, r0
 962              	.LVL95:
  22:ROSSerial/std_msgs/ROSString.h ****       offset += 4;
 963              		.loc 5 22 0
 964 000e 2046     		mov	r0, r4
 965              	.LVL96:
 966 0010 40F8045B 		str	r5, [r0], #4	@ unaligned
 967              	.LVL97:
  24:ROSSerial/std_msgs/ROSString.h ****       offset += length_data;
 968              		.loc 5 24 0
 969 0014 2A46     		mov	r2, r5
 970 0016 7168     		ldr	r1, [r6, #4]
 971 0018 FFF7FEFF 		bl	memcpy
 972              	.LVL98:
  27:ROSSerial/std_msgs/ROSString.h **** 
 973              		.loc 5 27 0
 974 001c 281D     		adds	r0, r5, #4
 975              	.LVL99:
 976 001e 70BD     		pop	{r4, r5, r6, pc}
 977              		.cfi_endproc
 978              	.LFE403:
 979              		.cantunwind
 980              		.fnend
 982              		.section	.text._ZNK14rosserial_msgs9TopicInfo9serializeEPh,"axG",%progbits,_ZNK14rosserial_msgs9To
 983              		.align	1
 984              		.weak	_ZNK14rosserial_msgs9TopicInfo9serializeEPh
 985              		.syntax unified
 986              		.thumb
 987              		.thumb_func
 988              		.fpu fpv4-sp-d16
 990              	_ZNK14rosserial_msgs9TopicInfo9serializeEPh:
 991              		.fnstart
 992              	.LFB382:
  29:ROSSerial/rosserial_msgs/TopicInfo.h ****     {
 993              		.loc 2 29 0
 994              		.cfi_startproc
 995              		@ args = 0, pretend = 0, frame = 0
 996              		@ frame_needed = 0, uses_anonymous_args = 0
 997              	.LVL100:
 998 0000 2DE9F041 		push	{r4, r5, r6, r7, r8, lr}
 999              	.LCFI7:
 1000              		.cfi_def_cfa_offset 24
 1001              		.cfi_offset 4, -24
 1002              		.cfi_offset 5, -20
 1003              		.cfi_offset 6, -16
 1004              		.cfi_offset 7, -12
 1005              		.cfi_offset 8, -8
 1006              		.cfi_offset 14, -4
 1007 0004 0646     		mov	r6, r0
 1008 0006 0C46     		mov	r4, r1
 1009              	.LVL101:
  32:ROSSerial/rosserial_msgs/TopicInfo.h ****       *(outbuffer + offset + 1) = (this->topic_id >> (8 * 1)) & 0xFF;
ARM GAS  /var/folders/l3/4y5292px21b4835bsnjwqc7w009kq1/T//ccaF8PhA.s 			page 34


 1010              		.loc 2 32 0
 1011 0008 8388     		ldrh	r3, [r0, #4]
 1012 000a 0B70     		strb	r3, [r1]
  33:ROSSerial/rosserial_msgs/TopicInfo.h ****       offset += sizeof(this->topic_id);
 1013              		.loc 2 33 0
 1014 000c 8388     		ldrh	r3, [r0, #4]
 1015 000e 1B0A     		lsrs	r3, r3, #8
 1016 0010 4B70     		strb	r3, [r1, #1]
 1017              	.LVL102:
  35:ROSSerial/rosserial_msgs/TopicInfo.h ****       memcpy(outbuffer + offset, &length_topic_name, sizeof(uint32_t));
 1018              		.loc 2 35 0
 1019 0012 8068     		ldr	r0, [r0, #8]
 1020              	.LVL103:
 1021 0014 FFF7FEFF 		bl	strlen
 1022              	.LVL104:
 1023 0018 0746     		mov	r7, r0
 1024              	.LVL105:
  36:ROSSerial/rosserial_msgs/TopicInfo.h ****       offset += 4;
 1025              		.loc 2 36 0
 1026 001a C4F80200 		str	r0, [r4, #2]	@ unaligned
 1027              	.LVL106:
  38:ROSSerial/rosserial_msgs/TopicInfo.h ****       offset += length_topic_name;
 1028              		.loc 2 38 0
 1029 001e 0246     		mov	r2, r0
 1030 0020 B168     		ldr	r1, [r6, #8]
 1031 0022 A01D     		adds	r0, r4, #6
 1032              	.LVL107:
 1033 0024 FFF7FEFF 		bl	memcpy
 1034              	.LVL108:
  39:ROSSerial/rosserial_msgs/TopicInfo.h ****       uint32_t length_message_type = strlen(this->message_type);
 1035              		.loc 2 39 0
 1036 0028 07F10608 		add	r8, r7, #6
 1037              	.LVL109:
  40:ROSSerial/rosserial_msgs/TopicInfo.h ****       memcpy(outbuffer + offset, &length_message_type, sizeof(uint32_t));
 1038              		.loc 2 40 0
 1039 002c F068     		ldr	r0, [r6, #12]
 1040 002e FFF7FEFF 		bl	strlen
 1041              	.LVL110:
 1042 0032 0546     		mov	r5, r0
 1043              	.LVL111:
  41:ROSSerial/rosserial_msgs/TopicInfo.h ****       offset += 4;
 1044              		.loc 2 41 0
 1045 0034 44F80800 		str	r0, [r4, r8]	@ unaligned
  42:ROSSerial/rosserial_msgs/TopicInfo.h ****       memcpy(outbuffer + offset, this->message_type, length_message_type);
 1046              		.loc 2 42 0
 1047 0038 0A37     		adds	r7, r7, #10
 1048              	.LVL112:
  43:ROSSerial/rosserial_msgs/TopicInfo.h ****       offset += length_message_type;
 1049              		.loc 2 43 0
 1050 003a 0246     		mov	r2, r0
 1051 003c F168     		ldr	r1, [r6, #12]
 1052 003e E019     		adds	r0, r4, r7
 1053              	.LVL113:
 1054 0040 FFF7FEFF 		bl	memcpy
 1055              	.LVL114:
  44:ROSSerial/rosserial_msgs/TopicInfo.h ****       uint32_t length_md5sum = strlen(this->md5sum);
 1056              		.loc 2 44 0
ARM GAS  /var/folders/l3/4y5292px21b4835bsnjwqc7w009kq1/T//ccaF8PhA.s 			page 35


 1057 0044 2F44     		add	r7, r7, r5
 1058              	.LVL115:
  45:ROSSerial/rosserial_msgs/TopicInfo.h ****       memcpy(outbuffer + offset, &length_md5sum, sizeof(uint32_t));
 1059              		.loc 2 45 0
 1060 0046 3069     		ldr	r0, [r6, #16]
 1061 0048 FFF7FEFF 		bl	strlen
 1062              	.LVL116:
 1063 004c 0546     		mov	r5, r0
 1064              	.LVL117:
  46:ROSSerial/rosserial_msgs/TopicInfo.h ****       offset += 4;
 1065              		.loc 2 46 0
 1066 004e E051     		str	r0, [r4, r7]	@ unaligned
  47:ROSSerial/rosserial_msgs/TopicInfo.h ****       memcpy(outbuffer + offset, this->md5sum, length_md5sum);
 1067              		.loc 2 47 0
 1068 0050 0437     		adds	r7, r7, #4
 1069              	.LVL118:
  48:ROSSerial/rosserial_msgs/TopicInfo.h ****       offset += length_md5sum;
 1070              		.loc 2 48 0
 1071 0052 0246     		mov	r2, r0
 1072 0054 3169     		ldr	r1, [r6, #16]
 1073 0056 E019     		adds	r0, r4, r7
 1074              	.LVL119:
 1075 0058 FFF7FEFF 		bl	memcpy
 1076              	.LVL120:
  49:ROSSerial/rosserial_msgs/TopicInfo.h ****       union {
 1077              		.loc 2 49 0
 1078 005c E819     		adds	r0, r5, r7
 1079              	.LVL121:
  54:ROSSerial/rosserial_msgs/TopicInfo.h ****       *(outbuffer + offset + 0) = (u_buffer_size.base >> (8 * 0)) & 0xFF;
 1080              		.loc 2 54 0
 1081 005e 7369     		ldr	r3, [r6, #20]
  55:ROSSerial/rosserial_msgs/TopicInfo.h ****       *(outbuffer + offset + 1) = (u_buffer_size.base >> (8 * 1)) & 0xFF;
 1082              		.loc 2 55 0
 1083 0060 2354     		strb	r3, [r4, r0]
  56:ROSSerial/rosserial_msgs/TopicInfo.h ****       *(outbuffer + offset + 2) = (u_buffer_size.base >> (8 * 2)) & 0xFF;
 1084              		.loc 2 56 0
 1085 0062 190A     		lsrs	r1, r3, #8
 1086 0064 421C     		adds	r2, r0, #1
 1087 0066 A154     		strb	r1, [r4, r2]
  57:ROSSerial/rosserial_msgs/TopicInfo.h ****       *(outbuffer + offset + 3) = (u_buffer_size.base >> (8 * 3)) & 0xFF;
 1088              		.loc 2 57 0
 1089 0068 190C     		lsrs	r1, r3, #16
 1090 006a 821C     		adds	r2, r0, #2
 1091 006c A154     		strb	r1, [r4, r2]
  58:ROSSerial/rosserial_msgs/TopicInfo.h ****       offset += sizeof(this->buffer_size);
 1092              		.loc 2 58 0
 1093 006e 1B0E     		lsrs	r3, r3, #24
 1094 0070 C21C     		adds	r2, r0, #3
 1095 0072 A354     		strb	r3, [r4, r2]
 1096              	.LVL122:
  61:ROSSerial/rosserial_msgs/TopicInfo.h **** 
 1097              		.loc 2 61 0
 1098 0074 0430     		adds	r0, r0, #4
 1099              	.LVL123:
 1100 0076 BDE8F081 		pop	{r4, r5, r6, r7, r8, pc}
 1101              		.cfi_endproc
 1102              	.LFE382:
ARM GAS  /var/folders/l3/4y5292px21b4835bsnjwqc7w009kq1/T//ccaF8PhA.s 			page 36


 1103              		.cantunwind
 1104              		.fnend
 1106              		.section	.text._ZNK14rosserial_msgs3Log9serializeEPh,"axG",%progbits,_ZNK14rosserial_msgs3Log9seri
 1107              		.align	1
 1108              		.weak	_ZNK14rosserial_msgs3Log9serializeEPh
 1109              		.syntax unified
 1110              		.thumb
 1111              		.thumb_func
 1112              		.fpu fpv4-sp-d16
 1114              	_ZNK14rosserial_msgs3Log9serializeEPh:
 1115              		.fnstart
 1116              	.LFB386:
  24:ROSSerial/rosserial_msgs/Log.h ****     {
 1117              		.loc 3 24 0
 1118              		.cfi_startproc
 1119              		@ args = 0, pretend = 0, frame = 0
 1120              		@ frame_needed = 0, uses_anonymous_args = 0
 1121              	.LVL124:
 1122 0000 70B5     		push	{r4, r5, r6, lr}
 1123              	.LCFI8:
 1124              		.cfi_def_cfa_offset 16
 1125              		.cfi_offset 4, -16
 1126              		.cfi_offset 5, -12
 1127              		.cfi_offset 6, -8
 1128              		.cfi_offset 14, -4
 1129 0002 0646     		mov	r6, r0
 1130 0004 0D46     		mov	r5, r1
 1131              	.LVL125:
  27:ROSSerial/rosserial_msgs/Log.h ****       offset += sizeof(this->level);
 1132              		.loc 3 27 0
 1133 0006 0379     		ldrb	r3, [r0, #4]	@ zero_extendqisi2
 1134 0008 0B70     		strb	r3, [r1]
 1135              	.LVL126:
  29:ROSSerial/rosserial_msgs/Log.h ****       memcpy(outbuffer + offset, &length_msg, sizeof(uint32_t));
 1136              		.loc 3 29 0
 1137 000a 8068     		ldr	r0, [r0, #8]
 1138              	.LVL127:
 1139 000c FFF7FEFF 		bl	strlen
 1140              	.LVL128:
 1141 0010 0446     		mov	r4, r0
 1142              	.LVL129:
  30:ROSSerial/rosserial_msgs/Log.h ****       offset += 4;
 1143              		.loc 3 30 0
 1144 0012 C5F80100 		str	r0, [r5, #1]	@ unaligned
 1145              	.LVL130:
  32:ROSSerial/rosserial_msgs/Log.h ****       offset += length_msg;
 1146              		.loc 3 32 0
 1147 0016 0246     		mov	r2, r0
 1148 0018 B168     		ldr	r1, [r6, #8]
 1149 001a 681D     		adds	r0, r5, #5
 1150              	.LVL131:
 1151 001c FFF7FEFF 		bl	memcpy
 1152              	.LVL132:
  35:ROSSerial/rosserial_msgs/Log.h **** 
 1153              		.loc 3 35 0
 1154 0020 601D     		adds	r0, r4, #5
 1155              	.LVL133:
ARM GAS  /var/folders/l3/4y5292px21b4835bsnjwqc7w009kq1/T//ccaF8PhA.s 			page 37


 1156 0022 70BD     		pop	{r4, r5, r6, pc}
 1157              		.cfi_endproc
 1158              	.LFE386:
 1159              		.cantunwind
 1160              		.fnend
 1162              		.section	.text._ZNK14rosserial_msgs20RequestParamResponse9serializeEPh,"axG",%progbits,_ZNK14rosse
 1163              		.align	1
 1164              		.weak	_ZNK14rosserial_msgs20RequestParamResponse9serializeEPh
 1165              		.syntax unified
 1166              		.thumb
 1167              		.thumb_func
 1168              		.fpu fpv4-sp-d16
 1170              	_ZNK14rosserial_msgs20RequestParamResponse9serializeEPh:
 1171              		.fnstart
 1172              	.LFB394:
  64:ROSSerial/rosserial_msgs/RequestParam.h ****     {
 1173              		.loc 4 64 0
 1174              		.cfi_startproc
 1175              		@ args = 0, pretend = 0, frame = 0
 1176              		@ frame_needed = 0, uses_anonymous_args = 0
 1177              	.LVL134:
 1178 0000 2DE9F041 		push	{r4, r5, r6, r7, r8, lr}
 1179              	.LCFI9:
 1180              		.cfi_def_cfa_offset 24
 1181              		.cfi_offset 4, -24
 1182              		.cfi_offset 5, -20
 1183              		.cfi_offset 6, -16
 1184              		.cfi_offset 7, -12
 1185              		.cfi_offset 8, -8
 1186              		.cfi_offset 14, -4
 1187 0004 0546     		mov	r5, r0
 1188 0006 0C46     		mov	r4, r1
 1189              	.LVL135:
  67:ROSSerial/rosserial_msgs/RequestParam.h ****       *(outbuffer + offset++) = 0;
 1190              		.loc 4 67 0
 1191 0008 0379     		ldrb	r3, [r0, #4]	@ zero_extendqisi2
 1192 000a 0B70     		strb	r3, [r1]
 1193              	.LVL136:
  68:ROSSerial/rosserial_msgs/RequestParam.h ****       *(outbuffer + offset++) = 0;
 1194              		.loc 4 68 0
 1195 000c 0022     		movs	r2, #0
 1196 000e 4A70     		strb	r2, [r1, #1]
 1197              	.LVL137:
  69:ROSSerial/rosserial_msgs/RequestParam.h ****       *(outbuffer + offset++) = 0;
 1198              		.loc 4 69 0
 1199 0010 8A70     		strb	r2, [r1, #2]
 1200              	.LVL138:
  70:ROSSerial/rosserial_msgs/RequestParam.h ****       for( uint8_t i = 0; i < ints_length; i++){
 1201              		.loc 4 70 0
 1202 0012 CA70     		strb	r2, [r1, #3]
 1203              	.LVL139:
 1204 0014 0423     		movs	r3, #4
 1205              	.LVL140:
 1206              	.L71:
 1207              	.LBB128:
  71:ROSSerial/rosserial_msgs/RequestParam.h ****       union {
 1208              		.loc 4 71 0 discriminator 3
ARM GAS  /var/folders/l3/4y5292px21b4835bsnjwqc7w009kq1/T//ccaF8PhA.s 			page 38


 1209 0016 2979     		ldrb	r1, [r5, #4]	@ zero_extendqisi2
 1210 0018 9142     		cmp	r1, r2
 1211 001a 10D9     		bls	.L70
 1212              	.LBB129:
  76:ROSSerial/rosserial_msgs/RequestParam.h ****       *(outbuffer + offset + 0) = (u_intsi.base >> (8 * 0)) & 0xFF;
 1213              		.loc 4 76 0 discriminator 2
 1214 001c E968     		ldr	r1, [r5, #12]
 1215 001e 51F82210 		ldr	r1, [r1, r2, lsl #2]
  77:ROSSerial/rosserial_msgs/RequestParam.h ****       *(outbuffer + offset + 1) = (u_intsi.base >> (8 * 1)) & 0xFF;
 1216              		.loc 4 77 0 discriminator 2
 1217 0022 E154     		strb	r1, [r4, r3]
  78:ROSSerial/rosserial_msgs/RequestParam.h ****       *(outbuffer + offset + 2) = (u_intsi.base >> (8 * 2)) & 0xFF;
 1218              		.loc 4 78 0 discriminator 2
 1219 0024 0E0A     		lsrs	r6, r1, #8
 1220 0026 581C     		adds	r0, r3, #1
 1221 0028 2654     		strb	r6, [r4, r0]
  79:ROSSerial/rosserial_msgs/RequestParam.h ****       *(outbuffer + offset + 3) = (u_intsi.base >> (8 * 3)) & 0xFF;
 1222              		.loc 4 79 0 discriminator 2
 1223 002a 0E0C     		lsrs	r6, r1, #16
 1224 002c 981C     		adds	r0, r3, #2
 1225 002e 2654     		strb	r6, [r4, r0]
  80:ROSSerial/rosserial_msgs/RequestParam.h ****       offset += sizeof(this->ints[i]);
 1226              		.loc 4 80 0 discriminator 2
 1227 0030 090E     		lsrs	r1, r1, #24
 1228 0032 D81C     		adds	r0, r3, #3
 1229 0034 2154     		strb	r1, [r4, r0]
  81:ROSSerial/rosserial_msgs/RequestParam.h ****       }
 1230              		.loc 4 81 0 discriminator 2
 1231 0036 0433     		adds	r3, r3, #4
 1232              	.LVL141:
 1233              	.LBE129:
  71:ROSSerial/rosserial_msgs/RequestParam.h ****       union {
 1234              		.loc 4 71 0 discriminator 2
 1235 0038 0132     		adds	r2, r2, #1
 1236              	.LVL142:
 1237 003a D2B2     		uxtb	r2, r2
 1238              	.LVL143:
 1239 003c EBE7     		b	.L71
 1240              	.L70:
 1241              	.LBE128:
  83:ROSSerial/rosserial_msgs/RequestParam.h ****       *(outbuffer + offset++) = 0;
 1242              		.loc 4 83 0
 1243 003e 591C     		adds	r1, r3, #1
 1244              	.LVL144:
 1245 0040 2A7C     		ldrb	r2, [r5, #16]	@ zero_extendqisi2
 1246              	.LVL145:
 1247 0042 E254     		strb	r2, [r4, r3]
  84:ROSSerial/rosserial_msgs/RequestParam.h ****       *(outbuffer + offset++) = 0;
 1248              		.loc 4 84 0
 1249 0044 981C     		adds	r0, r3, #2
 1250              	.LVL146:
 1251 0046 0022     		movs	r2, #0
 1252 0048 6254     		strb	r2, [r4, r1]
  85:ROSSerial/rosserial_msgs/RequestParam.h ****       *(outbuffer + offset++) = 0;
 1253              		.loc 4 85 0
 1254 004a D91C     		adds	r1, r3, #3
 1255              	.LVL147:
ARM GAS  /var/folders/l3/4y5292px21b4835bsnjwqc7w009kq1/T//ccaF8PhA.s 			page 39


 1256 004c 2254     		strb	r2, [r4, r0]
  86:ROSSerial/rosserial_msgs/RequestParam.h ****       for( uint8_t i = 0; i < floats_length; i++){
 1257              		.loc 4 86 0
 1258 004e 0433     		adds	r3, r3, #4
 1259              	.LVL148:
 1260 0050 6254     		strb	r2, [r4, r1]
 1261              	.LVL149:
 1262              	.L73:
 1263              	.LBB130:
  87:ROSSerial/rosserial_msgs/RequestParam.h ****       union {
 1264              		.loc 4 87 0 discriminator 3
 1265 0052 297C     		ldrb	r1, [r5, #16]	@ zero_extendqisi2
 1266 0054 9142     		cmp	r1, r2
 1267 0056 10D9     		bls	.L72
 1268              	.LBB131:
  92:ROSSerial/rosserial_msgs/RequestParam.h ****       *(outbuffer + offset + 0) = (u_floatsi.base >> (8 * 0)) & 0xFF;
 1269              		.loc 4 92 0 discriminator 2
 1270 0058 A969     		ldr	r1, [r5, #24]
 1271 005a 51F82210 		ldr	r1, [r1, r2, lsl #2]
  93:ROSSerial/rosserial_msgs/RequestParam.h ****       *(outbuffer + offset + 1) = (u_floatsi.base >> (8 * 1)) & 0xFF;
 1272              		.loc 4 93 0 discriminator 2
 1273 005e E154     		strb	r1, [r4, r3]
  94:ROSSerial/rosserial_msgs/RequestParam.h ****       *(outbuffer + offset + 2) = (u_floatsi.base >> (8 * 2)) & 0xFF;
 1274              		.loc 4 94 0 discriminator 2
 1275 0060 0E0A     		lsrs	r6, r1, #8
 1276 0062 581C     		adds	r0, r3, #1
 1277 0064 2654     		strb	r6, [r4, r0]
  95:ROSSerial/rosserial_msgs/RequestParam.h ****       *(outbuffer + offset + 3) = (u_floatsi.base >> (8 * 3)) & 0xFF;
 1278              		.loc 4 95 0 discriminator 2
 1279 0066 0E0C     		lsrs	r6, r1, #16
 1280 0068 981C     		adds	r0, r3, #2
 1281 006a 2654     		strb	r6, [r4, r0]
  96:ROSSerial/rosserial_msgs/RequestParam.h ****       offset += sizeof(this->floats[i]);
 1282              		.loc 4 96 0 discriminator 2
 1283 006c 090E     		lsrs	r1, r1, #24
 1284 006e D81C     		adds	r0, r3, #3
 1285 0070 2154     		strb	r1, [r4, r0]
  97:ROSSerial/rosserial_msgs/RequestParam.h ****       }
 1286              		.loc 4 97 0 discriminator 2
 1287 0072 0433     		adds	r3, r3, #4
 1288              	.LVL150:
 1289              	.LBE131:
  87:ROSSerial/rosserial_msgs/RequestParam.h ****       union {
 1290              		.loc 4 87 0 discriminator 2
 1291 0074 0132     		adds	r2, r2, #1
 1292              	.LVL151:
 1293 0076 D2B2     		uxtb	r2, r2
 1294              	.LVL152:
 1295 0078 EBE7     		b	.L73
 1296              	.L72:
 1297              	.LBE130:
  99:ROSSerial/rosserial_msgs/RequestParam.h ****       *(outbuffer + offset++) = 0;
 1298              		.loc 4 99 0
 1299 007a 5A1C     		adds	r2, r3, #1
 1300              	.LVL153:
 1301 007c 297F     		ldrb	r1, [r5, #28]	@ zero_extendqisi2
 1302 007e E154     		strb	r1, [r4, r3]
ARM GAS  /var/folders/l3/4y5292px21b4835bsnjwqc7w009kq1/T//ccaF8PhA.s 			page 40


 100:ROSSerial/rosserial_msgs/RequestParam.h ****       *(outbuffer + offset++) = 0;
 1303              		.loc 4 100 0
 1304 0080 991C     		adds	r1, r3, #2
 1305              	.LVL154:
 1306 0082 4FF00008 		mov	r8, #0
 1307 0086 04F80280 		strb	r8, [r4, r2]
 101:ROSSerial/rosserial_msgs/RequestParam.h ****       *(outbuffer + offset++) = 0;
 1308              		.loc 4 101 0
 1309 008a DA1C     		adds	r2, r3, #3
 1310              	.LVL155:
 1311 008c 04F80180 		strb	r8, [r4, r1]
 102:ROSSerial/rosserial_msgs/RequestParam.h ****       for( uint8_t i = 0; i < strings_length; i++){
 1312              		.loc 4 102 0
 1313 0090 1E1D     		adds	r6, r3, #4
 1314              	.LVL156:
 1315 0092 04F80280 		strb	r8, [r4, r2]
 1316              	.LVL157:
 1317              	.L75:
 1318              	.LBB132:
 103:ROSSerial/rosserial_msgs/RequestParam.h ****       uint32_t length_stringsi = strlen(this->strings[i]);
 1319              		.loc 4 103 0 discriminator 3
 1320 0096 2B7F     		ldrb	r3, [r5, #28]	@ zero_extendqisi2
 1321 0098 4345     		cmp	r3, r8
 1322 009a 14D9     		bls	.L69
 1323              	.LBB133:
 104:ROSSerial/rosserial_msgs/RequestParam.h ****       memcpy(outbuffer + offset, &length_stringsi, sizeof(uint32_t));
 1324              		.loc 4 104 0 discriminator 2
 1325 009c 6B6A     		ldr	r3, [r5, #36]
 1326 009e 53F82800 		ldr	r0, [r3, r8, lsl #2]
 1327 00a2 FFF7FEFF 		bl	strlen
 1328              	.LVL158:
 1329 00a6 0746     		mov	r7, r0
 1330              	.LVL159:
 105:ROSSerial/rosserial_msgs/RequestParam.h ****       offset += 4;
 1331              		.loc 4 105 0 discriminator 2
 1332 00a8 A051     		str	r0, [r4, r6]	@ unaligned
 106:ROSSerial/rosserial_msgs/RequestParam.h ****       memcpy(outbuffer + offset, this->strings[i], length_stringsi);
 1333              		.loc 4 106 0 discriminator 2
 1334 00aa 0436     		adds	r6, r6, #4
 1335              	.LVL160:
 107:ROSSerial/rosserial_msgs/RequestParam.h ****       offset += length_stringsi;
 1336              		.loc 4 107 0 discriminator 2
 1337 00ac 6B6A     		ldr	r3, [r5, #36]
 1338 00ae 0246     		mov	r2, r0
 1339 00b0 53F82810 		ldr	r1, [r3, r8, lsl #2]
 1340 00b4 A019     		adds	r0, r4, r6
 1341              	.LVL161:
 1342 00b6 FFF7FEFF 		bl	memcpy
 1343              	.LVL162:
 108:ROSSerial/rosserial_msgs/RequestParam.h ****       }
 1344              		.loc 4 108 0 discriminator 2
 1345 00ba 3E44     		add	r6, r6, r7
 1346              	.LVL163:
 1347              	.LBE133:
 103:ROSSerial/rosserial_msgs/RequestParam.h ****       uint32_t length_stringsi = strlen(this->strings[i]);
 1348              		.loc 4 103 0 discriminator 2
 1349 00bc 08F10108 		add	r8, r8, #1
ARM GAS  /var/folders/l3/4y5292px21b4835bsnjwqc7w009kq1/T//ccaF8PhA.s 			page 41


 1350              	.LVL164:
 1351 00c0 5FFA88F8 		uxtb	r8, r8
 1352              	.LVL165:
 1353 00c4 E7E7     		b	.L75
 1354              	.L69:
 1355              	.LBE132:
 111:ROSSerial/rosserial_msgs/RequestParam.h **** 
 1356              		.loc 4 111 0
 1357 00c6 3046     		mov	r0, r6
 1358 00c8 BDE8F081 		pop	{r4, r5, r6, r7, r8, pc}
 1359              		.cfi_endproc
 1360              	.LFE394:
 1361              		.cantunwind
 1362              		.fnend
 1364              		.section	.text._ZN14rosserial_msgs20RequestParamResponse11deserializeEPh,"axG",%progbits,_ZN14ross
 1365              		.align	1
 1366              		.weak	_ZN14rosserial_msgs20RequestParamResponse11deserializeEPh
 1367              		.syntax unified
 1368              		.thumb
 1369              		.thumb_func
 1370              		.fpu fpv4-sp-d16
 1372              	_ZN14rosserial_msgs20RequestParamResponse11deserializeEPh:
 1373              		.fnstart
 1374              	.LFB395:
 113:ROSSerial/rosserial_msgs/RequestParam.h ****     {
 1375              		.loc 4 113 0
 1376              		.cfi_startproc
 1377              		@ args = 0, pretend = 0, frame = 0
 1378              		@ frame_needed = 0, uses_anonymous_args = 0
 1379              	.LVL166:
 1380 0000 F8B5     		push	{r3, r4, r5, r6, r7, lr}
 1381              	.LCFI10:
 1382              		.cfi_def_cfa_offset 24
 1383              		.cfi_offset 3, -24
 1384              		.cfi_offset 4, -20
 1385              		.cfi_offset 5, -16
 1386              		.cfi_offset 6, -12
 1387              		.cfi_offset 7, -8
 1388              		.cfi_offset 14, -4
 1389 0002 0646     		mov	r6, r0
 1390 0004 0D46     		mov	r5, r1
 1391              	.LVL167:
 116:ROSSerial/rosserial_msgs/RequestParam.h ****       if(ints_lengthT > ints_length)
 1392              		.loc 4 116 0
 1393 0006 0C78     		ldrb	r4, [r1]	@ zero_extendqisi2
 1394              	.LVL168:
 117:ROSSerial/rosserial_msgs/RequestParam.h ****         this->ints = (int32_t*)realloc(this->ints, ints_lengthT * sizeof(int32_t));
 1395              		.loc 4 117 0
 1396 0008 0379     		ldrb	r3, [r0, #4]	@ zero_extendqisi2
 1397 000a A342     		cmp	r3, r4
 1398 000c 1AD3     		bcc	.L90
 1399              	.LVL169:
 1400              	.L78:
 120:ROSSerial/rosserial_msgs/RequestParam.h ****       for( uint8_t i = 0; i < ints_length; i++){
 1401              		.loc 4 120 0
 1402 000e 3471     		strb	r4, [r6, #4]
 1403              	.LVL170:
ARM GAS  /var/folders/l3/4y5292px21b4835bsnjwqc7w009kq1/T//ccaF8PhA.s 			page 42


 1404              	.LBB141:
 121:ROSSerial/rosserial_msgs/RequestParam.h ****       union {
 1405              		.loc 4 121 0
 1406 0010 0022     		movs	r2, #0
 1407              	.LBE141:
 119:ROSSerial/rosserial_msgs/RequestParam.h ****       ints_length = ints_lengthT;
 1408              		.loc 4 119 0
 1409 0012 0424     		movs	r4, #4
 1410              	.LVL171:
 1411              	.L80:
 1412              	.LBB143:
 121:ROSSerial/rosserial_msgs/RequestParam.h ****       union {
 1413              		.loc 4 121 0 discriminator 3
 1414 0014 3379     		ldrb	r3, [r6, #4]	@ zero_extendqisi2
 1415 0016 9342     		cmp	r3, r2
 1416 0018 1AD9     		bls	.L79
 1417              	.LBB142:
 127:ROSSerial/rosserial_msgs/RequestParam.h ****       u_st_ints.base |= ((uint32_t) (*(inbuffer + offset + 1))) << (8 * 1);
 1418              		.loc 4 127 0 discriminator 2
 1419 001a 2B5D     		ldrb	r3, [r5, r4]	@ zero_extendqisi2
 128:ROSSerial/rosserial_msgs/RequestParam.h ****       u_st_ints.base |= ((uint32_t) (*(inbuffer + offset + 2))) << (8 * 2);
 1420              		.loc 4 128 0 discriminator 2
 1421 001c 611C     		adds	r1, r4, #1
 1422 001e 695C     		ldrb	r1, [r5, r1]	@ zero_extendqisi2
 1423 0020 43EA0123 		orr	r3, r3, r1, lsl #8
 129:ROSSerial/rosserial_msgs/RequestParam.h ****       u_st_ints.base |= ((uint32_t) (*(inbuffer + offset + 3))) << (8 * 3);
 1424              		.loc 4 129 0 discriminator 2
 1425 0024 A11C     		adds	r1, r4, #2
 1426 0026 695C     		ldrb	r1, [r5, r1]	@ zero_extendqisi2
 1427 0028 43EA0143 		orr	r3, r3, r1, lsl #16
 130:ROSSerial/rosserial_msgs/RequestParam.h ****       this->st_ints = u_st_ints.real;
 1428              		.loc 4 130 0 discriminator 2
 1429 002c E11C     		adds	r1, r4, #3
 1430 002e 695C     		ldrb	r1, [r5, r1]	@ zero_extendqisi2
 1431 0030 43EA0163 		orr	r3, r3, r1, lsl #24
 131:ROSSerial/rosserial_msgs/RequestParam.h ****       offset += sizeof(this->st_ints);
 1432              		.loc 4 131 0 discriminator 2
 1433 0034 B360     		str	r3, [r6, #8]
 132:ROSSerial/rosserial_msgs/RequestParam.h ****         memcpy( &(this->ints[i]), &(this->st_ints), sizeof(int32_t));
 1434              		.loc 4 132 0 discriminator 2
 1435 0036 0434     		adds	r4, r4, #4
 1436              	.LVL172:
 133:ROSSerial/rosserial_msgs/RequestParam.h ****       }
 1437              		.loc 4 133 0 discriminator 2
 1438 0038 F168     		ldr	r1, [r6, #12]
 1439 003a 41F82230 		str	r3, [r1, r2, lsl #2]	@ unaligned
 1440              	.LBE142:
 121:ROSSerial/rosserial_msgs/RequestParam.h ****       union {
 1441              		.loc 4 121 0 discriminator 2
 1442 003e 0132     		adds	r2, r2, #1
 1443              	.LVL173:
 1444 0040 D2B2     		uxtb	r2, r2
 1445              	.LVL174:
 1446 0042 E7E7     		b	.L80
 1447              	.LVL175:
 1448              	.L90:
 1449              	.LBE143:
ARM GAS  /var/folders/l3/4y5292px21b4835bsnjwqc7w009kq1/T//ccaF8PhA.s 			page 43


 118:ROSSerial/rosserial_msgs/RequestParam.h ****       offset += 3;
 1450              		.loc 4 118 0
 1451 0044 A100     		lsls	r1, r4, #2
 1452              	.LVL176:
 1453 0046 C068     		ldr	r0, [r0, #12]
 1454              	.LVL177:
 1455 0048 FFF7FEFF 		bl	realloc
 1456              	.LVL178:
 1457 004c F060     		str	r0, [r6, #12]
 1458 004e DEE7     		b	.L78
 1459              	.LVL179:
 1460              	.L79:
 135:ROSSerial/rosserial_msgs/RequestParam.h ****       if(floats_lengthT > floats_length)
 1461              		.loc 4 135 0
 1462 0050 2F5D     		ldrb	r7, [r5, r4]	@ zero_extendqisi2
 1463              	.LVL180:
 136:ROSSerial/rosserial_msgs/RequestParam.h ****         this->floats = (float*)realloc(this->floats, floats_lengthT * sizeof(float));
 1464              		.loc 4 136 0
 1465 0052 337C     		ldrb	r3, [r6, #16]	@ zero_extendqisi2
 1466 0054 BB42     		cmp	r3, r7
 1467 0056 1AD3     		bcc	.L91
 1468              	.LVL181:
 1469              	.L81:
 138:ROSSerial/rosserial_msgs/RequestParam.h ****       floats_length = floats_lengthT;
 1470              		.loc 4 138 0
 1471 0058 0434     		adds	r4, r4, #4
 1472              	.LVL182:
 139:ROSSerial/rosserial_msgs/RequestParam.h ****       for( uint8_t i = 0; i < floats_length; i++){
 1473              		.loc 4 139 0
 1474 005a 3774     		strb	r7, [r6, #16]
 1475              	.LVL183:
 1476              	.LBB144:
 140:ROSSerial/rosserial_msgs/RequestParam.h ****       union {
 1477              		.loc 4 140 0
 1478 005c 0022     		movs	r2, #0
 1479              	.LVL184:
 1480              	.L83:
 140:ROSSerial/rosserial_msgs/RequestParam.h ****       union {
 1481              		.loc 4 140 0 is_stmt 0 discriminator 3
 1482 005e 337C     		ldrb	r3, [r6, #16]	@ zero_extendqisi2
 1483 0060 9342     		cmp	r3, r2
 1484 0062 1AD9     		bls	.L82
 1485              	.LBB145:
 146:ROSSerial/rosserial_msgs/RequestParam.h ****       u_st_floats.base |= ((uint32_t) (*(inbuffer + offset + 1))) << (8 * 1);
 1486              		.loc 4 146 0 is_stmt 1 discriminator 2
 1487 0064 2B5D     		ldrb	r3, [r5, r4]	@ zero_extendqisi2
 147:ROSSerial/rosserial_msgs/RequestParam.h ****       u_st_floats.base |= ((uint32_t) (*(inbuffer + offset + 2))) << (8 * 2);
 1488              		.loc 4 147 0 discriminator 2
 1489 0066 611C     		adds	r1, r4, #1
 1490 0068 695C     		ldrb	r1, [r5, r1]	@ zero_extendqisi2
 1491 006a 43EA0123 		orr	r3, r3, r1, lsl #8
 148:ROSSerial/rosserial_msgs/RequestParam.h ****       u_st_floats.base |= ((uint32_t) (*(inbuffer + offset + 3))) << (8 * 3);
 1492              		.loc 4 148 0 discriminator 2
 1493 006e A11C     		adds	r1, r4, #2
 1494 0070 695C     		ldrb	r1, [r5, r1]	@ zero_extendqisi2
 1495 0072 43EA0143 		orr	r3, r3, r1, lsl #16
 149:ROSSerial/rosserial_msgs/RequestParam.h ****       this->st_floats = u_st_floats.real;
ARM GAS  /var/folders/l3/4y5292px21b4835bsnjwqc7w009kq1/T//ccaF8PhA.s 			page 44


 1496              		.loc 4 149 0 discriminator 2
 1497 0076 E11C     		adds	r1, r4, #3
 1498 0078 695C     		ldrb	r1, [r5, r1]	@ zero_extendqisi2
 1499 007a 43EA0163 		orr	r3, r3, r1, lsl #24
 150:ROSSerial/rosserial_msgs/RequestParam.h ****       offset += sizeof(this->st_floats);
 1500              		.loc 4 150 0 discriminator 2
 1501 007e 7361     		str	r3, [r6, #20]	@ float
 151:ROSSerial/rosserial_msgs/RequestParam.h ****         memcpy( &(this->floats[i]), &(this->st_floats), sizeof(float));
 1502              		.loc 4 151 0 discriminator 2
 1503 0080 0434     		adds	r4, r4, #4
 1504              	.LVL185:
 152:ROSSerial/rosserial_msgs/RequestParam.h ****       }
 1505              		.loc 4 152 0 discriminator 2
 1506 0082 B169     		ldr	r1, [r6, #24]
 1507 0084 41F82230 		str	r3, [r1, r2, lsl #2]	@ unaligned
 1508              	.LBE145:
 140:ROSSerial/rosserial_msgs/RequestParam.h ****       union {
 1509              		.loc 4 140 0 discriminator 2
 1510 0088 0132     		adds	r2, r2, #1
 1511              	.LVL186:
 1512 008a D2B2     		uxtb	r2, r2
 1513              	.LVL187:
 1514 008c E7E7     		b	.L83
 1515              	.LVL188:
 1516              	.L91:
 1517              	.LBE144:
 137:ROSSerial/rosserial_msgs/RequestParam.h ****       offset += 3;
 1518              		.loc 4 137 0
 1519 008e B900     		lsls	r1, r7, #2
 1520 0090 B069     		ldr	r0, [r6, #24]
 1521 0092 FFF7FEFF 		bl	realloc
 1522              	.LVL189:
 1523 0096 B061     		str	r0, [r6, #24]
 1524 0098 DEE7     		b	.L81
 1525              	.LVL190:
 1526              	.L82:
 154:ROSSerial/rosserial_msgs/RequestParam.h ****       if(strings_lengthT > strings_length)
 1527              		.loc 4 154 0
 1528 009a 2F5D     		ldrb	r7, [r5, r4]	@ zero_extendqisi2
 1529              	.LVL191:
 155:ROSSerial/rosserial_msgs/RequestParam.h ****         this->strings = (char**)realloc(this->strings, strings_lengthT * sizeof(char*));
 1530              		.loc 4 155 0
 1531 009c 337F     		ldrb	r3, [r6, #28]	@ zero_extendqisi2
 1532 009e BB42     		cmp	r3, r7
 1533 00a0 04D3     		bcc	.L92
 1534              	.LVL192:
 1535              	.L84:
 157:ROSSerial/rosserial_msgs/RequestParam.h ****       strings_length = strings_lengthT;
 1536              		.loc 4 157 0
 1537 00a2 201D     		adds	r0, r4, #4
 1538              	.LVL193:
 158:ROSSerial/rosserial_msgs/RequestParam.h ****       for( uint8_t i = 0; i < strings_length; i++){
 1539              		.loc 4 158 0
 1540 00a4 3777     		strb	r7, [r6, #28]
 1541              	.LVL194:
 1542              	.LBB146:
 159:ROSSerial/rosserial_msgs/RequestParam.h ****       uint32_t length_st_strings;
ARM GAS  /var/folders/l3/4y5292px21b4835bsnjwqc7w009kq1/T//ccaF8PhA.s 			page 45


 1543              		.loc 4 159 0
 1544 00a6 4FF0000C 		mov	ip, #0
 1545 00aa 12E0     		b	.L88
 1546              	.LVL195:
 1547              	.L92:
 1548              	.LBE146:
 156:ROSSerial/rosserial_msgs/RequestParam.h ****       offset += 3;
 1549              		.loc 4 156 0
 1550 00ac B900     		lsls	r1, r7, #2
 1551 00ae 706A     		ldr	r0, [r6, #36]
 1552 00b0 FFF7FEFF 		bl	realloc
 1553              	.LVL196:
 1554 00b4 7062     		str	r0, [r6, #36]
 1555 00b6 F4E7     		b	.L84
 1556              	.LVL197:
 1557              	.L86:
 1558              	.LBB150:
 1559              	.LBB147:
 166:ROSSerial/rosserial_msgs/RequestParam.h ****       this->st_strings = (char *)(inbuffer + offset-1);
 1560              		.loc 4 166 0 discriminator 2
 1561 00b8 431E     		subs	r3, r0, #1
 1562              	.LVL198:
 1563 00ba 0022     		movs	r2, #0
 1564 00bc EA54     		strb	r2, [r5, r3]
 167:ROSSerial/rosserial_msgs/RequestParam.h ****       offset += length_st_strings;
 1565              		.loc 4 167 0 discriminator 2
 1566 00be 013C     		subs	r4, r4, #1
 1567 00c0 2C44     		add	r4, r4, r5
 1568 00c2 3462     		str	r4, [r6, #32]
 1569              	.LVL199:
 169:ROSSerial/rosserial_msgs/RequestParam.h ****       }
 1570              		.loc 4 169 0 discriminator 2
 1571 00c4 736A     		ldr	r3, [r6, #36]
 1572 00c6 43F82C40 		str	r4, [r3, ip, lsl #2]	@ unaligned
 1573              	.LVL200:
 1574              	.LBE147:
 159:ROSSerial/rosserial_msgs/RequestParam.h ****       uint32_t length_st_strings;
 1575              		.loc 4 159 0 discriminator 2
 1576 00ca 0CF1010C 		add	ip, ip, #1
 1577              	.LVL201:
 1578 00ce 5FFA8CFC 		uxtb	ip, ip
 1579              	.LVL202:
 1580              	.L88:
 159:ROSSerial/rosserial_msgs/RequestParam.h ****       uint32_t length_st_strings;
 1581              		.loc 4 159 0 is_stmt 0 discriminator 1
 1582 00d2 337F     		ldrb	r3, [r6, #28]	@ zero_extendqisi2
 1583 00d4 6345     		cmp	r3, ip
 1584 00d6 0AD9     		bls	.L77
 1585              	.LBB149:
 161:ROSSerial/rosserial_msgs/RequestParam.h ****       offset += 4;
 1586              		.loc 4 161 0 is_stmt 1
 1587 00d8 2F58     		ldr	r7, [r5, r0]	@ unaligned
 1588              	.LVL203:
 162:ROSSerial/rosserial_msgs/RequestParam.h ****       for(unsigned int k= offset; k< offset+length_st_strings; ++k){
 1589              		.loc 4 162 0
 1590 00da 041D     		adds	r4, r0, #4
 1591              	.LVL204:
ARM GAS  /var/folders/l3/4y5292px21b4835bsnjwqc7w009kq1/T//ccaF8PhA.s 			page 46


 1592              	.LBB148:
 163:ROSSerial/rosserial_msgs/RequestParam.h ****           inbuffer[k-1]=inbuffer[k];
 1593              		.loc 4 163 0
 1594 00dc 2346     		mov	r3, r4
 1595              	.LVL205:
 1596              	.L87:
 163:ROSSerial/rosserial_msgs/RequestParam.h ****           inbuffer[k-1]=inbuffer[k];
 1597              		.loc 4 163 0 is_stmt 0 discriminator 3
 1598 00de 3819     		adds	r0, r7, r4
 1599 00e0 9842     		cmp	r0, r3
 1600 00e2 E9D9     		bls	.L86
 164:ROSSerial/rosserial_msgs/RequestParam.h ****       }
 1601              		.loc 4 164 0 is_stmt 1 discriminator 2
 1602 00e4 5A1E     		subs	r2, r3, #1
 1603 00e6 E95C     		ldrb	r1, [r5, r3]	@ zero_extendqisi2
 1604 00e8 A954     		strb	r1, [r5, r2]
 163:ROSSerial/rosserial_msgs/RequestParam.h ****           inbuffer[k-1]=inbuffer[k];
 1605              		.loc 4 163 0 discriminator 2
 1606 00ea 0133     		adds	r3, r3, #1
 1607              	.LVL206:
 1608 00ec F7E7     		b	.L87
 1609              	.LVL207:
 1610              	.L77:
 1611              	.LBE148:
 1612              	.LBE149:
 1613              	.LBE150:
 172:ROSSerial/rosserial_msgs/RequestParam.h **** 
 1614              		.loc 4 172 0
 1615 00ee F8BD     		pop	{r3, r4, r5, r6, r7, pc}
 1616              		.cfi_endproc
 1617              	.LFE395:
 1618              		.cantunwind
 1619              		.fnend
 1621              		.section	.text.ros_init,"ax",%progbits
 1622              		.align	1
 1623              		.global	ros_init
 1624              		.syntax unified
 1625              		.thumb
 1626              		.thumb_func
 1627              		.fpu fpv4-sp-d16
 1629              	ros_init:
 1630              		.fnstart
 1631              	.LFB474:
  21:./Src/ROS_main.cpp **** {
 1632              		.loc 6 21 0
 1633              		.cfi_startproc
 1634              		@ args = 0, pretend = 0, frame = 8
 1635              		@ frame_needed = 0, uses_anonymous_args = 0
 1636 0000 F0B5     		push	{r4, r5, r6, r7, lr}
 1637              		.save {r4, r5, r6, r7, lr}
 1638              	.LCFI11:
 1639              		.cfi_def_cfa_offset 20
 1640              		.cfi_offset 4, -20
 1641              		.cfi_offset 5, -16
 1642              		.cfi_offset 6, -12
 1643              		.cfi_offset 7, -8
 1644              		.cfi_offset 14, -4
ARM GAS  /var/folders/l3/4y5292px21b4835bsnjwqc7w009kq1/T//ccaF8PhA.s 			page 47


 1645              		.pad #12
 1646 0002 83B0     		sub	sp, sp, #12
 1647              	.LCFI12:
 1648              		.cfi_def_cfa_offset 32
 1649              	.LVL208:
 1650              	.LBB161:
 1651              	.LBB162:
 1652              	.LBB163:
 1653              	.LBB164:
 1654              		.file 8 "ROSSerial/AT32hardware.h"
   1:ROSSerial/AT32hardware.h **** /*
   2:ROSSerial/AT32hardware.h ****  * Software License Agreement (BSD License)
   3:ROSSerial/AT32hardware.h ****  *
   4:ROSSerial/AT32hardware.h ****  * Copyright (c) 2011, Willow Garage, Inc.
   5:ROSSerial/AT32hardware.h ****  * All rights reserved.
   6:ROSSerial/AT32hardware.h ****  *
   7:ROSSerial/AT32hardware.h ****  * Redistribution and use in source and binary forms, with or without
   8:ROSSerial/AT32hardware.h ****  * modification, are permitted provided that the following conditions
   9:ROSSerial/AT32hardware.h ****  * are met:
  10:ROSSerial/AT32hardware.h ****  *
  11:ROSSerial/AT32hardware.h ****  *  * Redistributions of source code must retain the above copyright
  12:ROSSerial/AT32hardware.h ****  *    notice, this list of conditions and the following disclaimer.
  13:ROSSerial/AT32hardware.h ****  *  * Redistributions in binary form must reproduce the above
  14:ROSSerial/AT32hardware.h ****  *    copyright notice, this list of conditions and the following
  15:ROSSerial/AT32hardware.h ****  *    disclaimer in the documentation and/or other materials provided
  16:ROSSerial/AT32hardware.h ****  *    with the distribution.
  17:ROSSerial/AT32hardware.h ****  *  * Neither the name of Willow Garage, Inc. nor the names of its
  18:ROSSerial/AT32hardware.h ****  *    contributors may be used to endorse or promote prducts derived
  19:ROSSerial/AT32hardware.h ****  *    from this software without specific prior written permission.
  20:ROSSerial/AT32hardware.h ****  *
  21:ROSSerial/AT32hardware.h ****  * THIS SOFTWARE IS PROVIDED BY THE COPYRIGHT HOLDERS AND CONTRIBUTORS
  22:ROSSerial/AT32hardware.h ****  * "AS IS" AND ANY EXPRESS OR IMPLIED WARRANTIES, INCLUDING, BUT NOT
  23:ROSSerial/AT32hardware.h ****  * LIMITED TO, THE IMPLIED WARRANTIES OF MERCHANTABILITY AND FITNESS
  24:ROSSerial/AT32hardware.h ****  * FOR A PARTICULAR PURPOSE ARE DISCLAIMED. IN NO EVENT SHALL THE
  25:ROSSerial/AT32hardware.h ****  * COPYRIGHT OWNER OR CONTRIBUTORS BE LIABLE FOR ANY DIRECT, INDIRECT,
  26:ROSSerial/AT32hardware.h ****  * INCIDENTAL, SPECIAL, EXEMPLARY, OR CONSEQUENTIAL DAMAGES (INCLUDING,
  27:ROSSerial/AT32hardware.h ****  * BUT NOT LIMITED TO, PROCUREMENT OF SUBSTITUTE GOODS OR SERVICES;
  28:ROSSerial/AT32hardware.h ****  * LOSS OF USE, DATA, OR PROFITS; OR BUSINESS INTERRUPTION) HOWEVER
  29:ROSSerial/AT32hardware.h ****  * CAUSED AND ON ANY THEORY OF LIABILITY, WHETHER IN CONTRACT, STRICT
  30:ROSSerial/AT32hardware.h ****  * LIABILITY, OR TORT (INCLUDING NEGLIGENCE OR OTHERWISE) ARISING IN
  31:ROSSerial/AT32hardware.h ****  * ANY WAY OUT OF THE USE OF THIS SOFTWARE, EVEN IF ADVISED OF THE
  32:ROSSerial/AT32hardware.h ****  * POSSIBILITY OF SUCH DAMAGE.
  33:ROSSerial/AT32hardware.h ****  */
  34:ROSSerial/AT32hardware.h **** 
  35:ROSSerial/AT32hardware.h **** #ifndef STM32HARDWARE_H_
  36:ROSSerial/AT32hardware.h **** #define STM32HARDWARE_H_
  37:ROSSerial/AT32hardware.h **** 
  38:ROSSerial/AT32hardware.h **** #include "stm32f1xx_hal.h"
  39:ROSSerial/AT32hardware.h **** #include <stdio.h>
  40:ROSSerial/AT32hardware.h **** #include "setup.h"
  41:ROSSerial/AT32hardware.h **** 
  42:ROSSerial/AT32hardware.h **** extern UART_HandleTypeDef huart2; 
  43:ROSSerial/AT32hardware.h **** 
  44:ROSSerial/AT32hardware.h **** extern uint8_t g_RxBuf[];
  45:ROSSerial/AT32hardware.h **** extern uint8_t byte;		/* receive byte */
  46:ROSSerial/AT32hardware.h **** extern uint8_t g_RxRead;
  47:ROSSerial/AT32hardware.h **** extern uint8_t g_RxWritten;
ARM GAS  /var/folders/l3/4y5292px21b4835bsnjwqc7w009kq1/T//ccaF8PhA.s 			page 48


  48:ROSSerial/AT32hardware.h **** 
  49:ROSSerial/AT32hardware.h **** class STM32Hardware
  50:ROSSerial/AT32hardware.h **** {
  51:ROSSerial/AT32hardware.h **** public:
  52:ROSSerial/AT32hardware.h **** 	STM32Hardware()
  53:ROSSerial/AT32hardware.h **** 	{
  54:ROSSerial/AT32hardware.h **** 	}
  55:ROSSerial/AT32hardware.h **** 
  56:ROSSerial/AT32hardware.h **** 	/*
  57:ROSSerial/AT32hardware.h **** 	 * Method: init
  58:ROSSerial/AT32hardware.h **** 	 * ----------------------------
  59:ROSSerial/AT32hardware.h **** 	 *   Initialize the STM32 hardware specific to ROS like UART
  60:ROSSerial/AT32hardware.h **** 	 *   parameters: none
  61:ROSSerial/AT32hardware.h **** 	 *   returns: none
  62:ROSSerial/AT32hardware.h **** 	 */
  63:ROSSerial/AT32hardware.h **** 	void init(void)
  64:ROSSerial/AT32hardware.h **** 	{
  65:ROSSerial/AT32hardware.h **** 		if(HAL_UART_Receive_IT(&huart2, &byte, 1) != 0)
 1655              		.loc 8 65 0
 1656 0004 0122     		movs	r2, #1
 1657 0006 2349     		ldr	r1, .L99
 1658 0008 2348     		ldr	r0, .L99+4
 1659 000a FFF7FEFF 		bl	HAL_UART_Receive_IT
 1660              	.LVL209:
 1661              	.LBE164:
 1662              	.LBE163:
 188:ROSSerial/ros/node_handle.h ****     bytes_ = 0;
 1663              		.loc 7 188 0
 1664 000e 234B     		ldr	r3, .L99+8
 1665 0010 0024     		movs	r4, #0
 1666 0012 C3F80845 		str	r4, [r3, #1288]
 189:ROSSerial/ros/node_handle.h ****     index_ = 0;
 1667              		.loc 7 189 0
 1668 0016 C3F80C45 		str	r4, [r3, #1292]
 190:ROSSerial/ros/node_handle.h ****     topic_ = 0;
 1669              		.loc 7 190 0
 1670 001a C3F81445 		str	r4, [r3, #1300]
 191:ROSSerial/ros/node_handle.h ****     printf("Node init\n");
 1671              		.loc 7 191 0
 1672 001e C3F81045 		str	r4, [r3, #1296]
 192:ROSSerial/ros/node_handle.h ****   };
 1673              		.loc 7 192 0
 1674 0022 1F48     		ldr	r0, .L99+12
 1675 0024 FFF7FEFF 		bl	puts
 1676              	.LVL210:
 1677              	.LBE162:
 1678              	.LBE161:
 1679              	.LBB165:
 1680              	.LBB166:
  13:ROSSerial/std_msgs/ROSString.h ****   {
 1681              		.loc 5 13 0
 1682 0028 1E4B     		ldr	r3, .L99+16
 1683 002a 0093     		str	r3, [sp]
 1684              	.LVL211:
 1685              	.L96:
 1686              	.LBE166:
 1687              	.LBE165:
ARM GAS  /var/folders/l3/4y5292px21b4835bsnjwqc7w009kq1/T//ccaF8PhA.s 			page 49


 1688              	.LBB167:
 1689              	.LBB168:
 406:ROSSerial/ros/node_handle.h **** 
 407:ROSSerial/ros/node_handle.h ****   /********************************************************************
 408:ROSSerial/ros/node_handle.h ****    * Time functions
 409:ROSSerial/ros/node_handle.h ****    */
 410:ROSSerial/ros/node_handle.h **** 
 411:ROSSerial/ros/node_handle.h ****   void requestSyncTime()
 412:ROSSerial/ros/node_handle.h ****   {
 413:ROSSerial/ros/node_handle.h ****     std_msgs::Time t;
 414:ROSSerial/ros/node_handle.h ****     publish1(TopicInfo::ID_TIME, &t);
 415:ROSSerial/ros/node_handle.h ****     rt_time = hardware_.time();
 416:ROSSerial/ros/node_handle.h ****   }
 417:ROSSerial/ros/node_handle.h **** 
 418:ROSSerial/ros/node_handle.h ****   void syncTime(uint8_t * data)
 419:ROSSerial/ros/node_handle.h ****   {
 420:ROSSerial/ros/node_handle.h ****     std_msgs::Time t;
 421:ROSSerial/ros/node_handle.h ****     uint32_t offset = hardware_.time() - rt_time;
 422:ROSSerial/ros/node_handle.h **** 
 423:ROSSerial/ros/node_handle.h ****     t.deserialize(data);
 424:ROSSerial/ros/node_handle.h ****     t.data.sec += offset / 1000;
 425:ROSSerial/ros/node_handle.h ****     t.data.nsec += (offset % 1000) * 1000000UL;
 426:ROSSerial/ros/node_handle.h **** 
 427:ROSSerial/ros/node_handle.h ****     this->setNow(t.data);
 428:ROSSerial/ros/node_handle.h ****     last_sync_receive_time = hardware_.time();
 429:ROSSerial/ros/node_handle.h ****   }
 430:ROSSerial/ros/node_handle.h **** 
 431:ROSSerial/ros/node_handle.h ****   Time now()
 432:ROSSerial/ros/node_handle.h ****   {
 433:ROSSerial/ros/node_handle.h ****     uint32_t ms = hardware_.time();
 434:ROSSerial/ros/node_handle.h ****     Time current_time;
 435:ROSSerial/ros/node_handle.h ****     current_time.sec = ms / 1000 + sec_offset;
 436:ROSSerial/ros/node_handle.h ****     current_time.nsec = (ms % 1000) * 1000000UL + nsec_offset;
 437:ROSSerial/ros/node_handle.h ****     normalizeSecNSec(current_time.sec, current_time.nsec);
 438:ROSSerial/ros/node_handle.h ****     return current_time;
 439:ROSSerial/ros/node_handle.h ****   }
 440:ROSSerial/ros/node_handle.h **** 
 441:ROSSerial/ros/node_handle.h ****   void setNow(Time & new_now)
 442:ROSSerial/ros/node_handle.h ****   {
 443:ROSSerial/ros/node_handle.h ****     uint32_t ms = hardware_.time();
 444:ROSSerial/ros/node_handle.h ****     sec_offset = new_now.sec - ms / 1000 - 1;
 445:ROSSerial/ros/node_handle.h ****     nsec_offset = new_now.nsec - (ms % 1000) * 1000000UL + 1000000000UL;
 446:ROSSerial/ros/node_handle.h ****     normalizeSecNSec(sec_offset, nsec_offset);
 447:ROSSerial/ros/node_handle.h ****   }
 448:ROSSerial/ros/node_handle.h **** 
 449:ROSSerial/ros/node_handle.h ****   /********************************************************************
 450:ROSSerial/ros/node_handle.h ****    * Topic Management
 451:ROSSerial/ros/node_handle.h ****    */
 452:ROSSerial/ros/node_handle.h **** 
 453:ROSSerial/ros/node_handle.h ****    /* Register a new publisher without C++ template */
 454:ROSSerial/ros/node_handle.h ****   PublisherType* addPublisher(char * topic_name, Msg * msg)
 455:ROSSerial/ros/node_handle.h ****   {
 456:ROSSerial/ros/node_handle.h ****     for (int i = 0; i < MAX_PUBLISHERS; i++)
 1690              		.loc 7 456 0
 1691 002c 042C     		cmp	r4, #4
 1692 002e 29DC     		bgt	.L94
 457:ROSSerial/ros/node_handle.h ****     {
ARM GAS  /var/folders/l3/4y5292px21b4835bsnjwqc7w009kq1/T//ccaF8PhA.s 			page 50


 458:ROSSerial/ros/node_handle.h ****       if (publishers2[i].topic_id == 0) {// empty slot}
 1693              		.loc 7 458 0
 1694 0030 04EB8403 		add	r3, r4, r4, lsl #2
 1695 0034 9A00     		lsls	r2, r3, #2
 1696 0036 194B     		ldr	r3, .L99+8
 1697 0038 1344     		add	r3, r3, r2
 1698 003a B3F82C34 		ldrh	r3, [r3, #1068]
 1699 003e 0BB1     		cbz	r3, .L98
 456:ROSSerial/ros/node_handle.h ****     {
 1700              		.loc 7 456 0
 1701 0040 0134     		adds	r4, r4, #1
 1702              	.LVL212:
 1703 0042 F3E7     		b	.L96
 1704              	.L98:
 459:ROSSerial/ros/node_handle.h **** 
 460:ROSSerial/ros/node_handle.h ****         publishers2[i].topic_id = i + 100 + MAX_SUBSCRIBERS;
 1705              		.loc 7 460 0
 1706 0044 04F16902 		add	r2, r4, #105
 1707 0048 144D     		ldr	r5, .L99+8
 1708 004a A700     		lsls	r7, r4, #2
 1709 004c 3B19     		adds	r3, r7, r4
 1710 004e 9E00     		lsls	r6, r3, #2
 1711 0050 2E44     		add	r6, r6, r5
 1712 0052 A6F82C24 		strh	r2, [r6, #1068]	@ movhi
 461:ROSSerial/ros/node_handle.h ****         publishers2[i].topic_name = topic_name;
 1713              		.loc 7 461 0
 1714 0056 144B     		ldr	r3, .L99+20
 1715 0058 C6F83034 		str	r3, [r6, #1072]
 462:ROSSerial/ros/node_handle.h ****         publishers2[i].msg = msg;
 1716              		.loc 7 462 0
 1717 005c C6F834D4 		str	sp, [r6, #1076]
 463:ROSSerial/ros/node_handle.h ****         publishers2[i].message_type = msg->getType();
 1718              		.loc 7 463 0
 1719 0060 009B     		ldr	r3, [sp]
 1720 0062 9B68     		ldr	r3, [r3, #8]
 1721 0064 6846     		mov	r0, sp
 1722 0066 9847     		blx	r3
 1723              	.LVL213:
 1724 0068 C6F83804 		str	r0, [r6, #1080]
 464:ROSSerial/ros/node_handle.h ****         publishers2[i].md5sum = msg->getMD5();
 1725              		.loc 7 464 0
 1726 006c 009B     		ldr	r3, [sp]
 1727 006e DB68     		ldr	r3, [r3, #12]
 1728 0070 6846     		mov	r0, sp
 1729 0072 9847     		blx	r3
 1730              	.LVL214:
 1731 0074 C6F83C04 		str	r0, [r6, #1084]
 465:ROSSerial/ros/node_handle.h **** 
 466:ROSSerial/ros/node_handle.h ****         return &publishers2[i];
 1732              		.loc 7 466 0
 1733 0078 3C44     		add	r4, r4, r7
 1734              	.LVL215:
 1735 007a A300     		lsls	r3, r4, #2
 1736 007c 03F58563 		add	r3, r3, #1064
 1737 0080 1D44     		add	r5, r5, r3
 1738 0082 0435     		adds	r5, r5, #4
 1739              	.L94:
ARM GAS  /var/folders/l3/4y5292px21b4835bsnjwqc7w009kq1/T//ccaF8PhA.s 			page 51


 1740              	.LVL216:
 1741              	.LBE168:
 1742              	.LBE167:
  28:./Src/ROS_main.cpp ****     chatter = nh.addPublisher("chatter",  &str_msg);
 1743              		.loc 6 28 0
 1744 0084 094B     		ldr	r3, .L99+24
 1745 0086 1D60     		str	r5, [r3]
  31:./Src/ROS_main.cpp ****     rosSubscribeInit(&nh);
 1746              		.loc 6 31 0
 1747 0088 0448     		ldr	r0, .L99+8
 1748 008a FFF7FEFF 		bl	_Z16rosSubscribeInitPN3ros11NodeHandle_I13STM32HardwareLi5ELi5ELi512ELi512EEE
 1749              	.LVL217:
  32:./Src/ROS_main.cpp **** }
 1750              		.loc 6 32 0
 1751 008e 03B0     		add	sp, sp, #12
 1752              	.LCFI13:
 1753              		.cfi_def_cfa_offset 20
 1754              		@ sp needed
 1755 0090 F0BD     		pop	{r4, r5, r6, r7, pc}
 1756              	.L100:
 1757 0092 00BF     		.align	2
 1758              	.L99:
 1759 0094 00000000 		.word	byte
 1760 0098 00000000 		.word	huart2
 1761 009c 00000000 		.word	.LANCHOR1
 1762 00a0 00000000 		.word	.LC9
 1763 00a4 08000000 		.word	_ZTVN8std_msgs6StringE+8
 1764 00a8 0C000000 		.word	.LC10
 1765 00ac 00000000 		.word	.LANCHOR2
 1766              		.cfi_endproc
 1767              	.LFE474:
 1768              		.fnend
 1770              		.section	.text._ZN3ros11NodeHandle_I13STM32HardwareLi5ELi5ELi512ELi512EE8publish1EiPNS_3MsgE,"axG"
 1771              		.align	1
 1772              		.weak	_ZN3ros11NodeHandle_I13STM32HardwareLi5ELi5ELi512ELi512EE8publish1EiPNS_3MsgE
 1773              		.syntax unified
 1774              		.thumb
 1775              		.thumb_func
 1776              		.fpu fpv4-sp-d16
 1778              	_ZN3ros11NodeHandle_I13STM32HardwareLi5ELi5ELi512ELi512EE8publish1EiPNS_3MsgE:
 1779              		.fnstart
 1780              	.LFB494:
 467:ROSSerial/ros/node_handle.h ****       }
 468:ROSSerial/ros/node_handle.h ****     }
 469:ROSSerial/ros/node_handle.h ****     return ;
 470:ROSSerial/ros/node_handle.h ****   }
 471:ROSSerial/ros/node_handle.h **** 
 472:ROSSerial/ros/node_handle.h ****   /* Register a new publisher */
 473:ROSSerial/ros/node_handle.h ****   bool advertise(Publisher & p)
 474:ROSSerial/ros/node_handle.h ****   {
 475:ROSSerial/ros/node_handle.h ****     for (int i = 0; i < MAX_PUBLISHERS; i++)
 476:ROSSerial/ros/node_handle.h ****     {
 477:ROSSerial/ros/node_handle.h ****       if (publishers[i] == 0) // empty slot
 478:ROSSerial/ros/node_handle.h ****       {
 479:ROSSerial/ros/node_handle.h ****         publishers[i] = &p;
 480:ROSSerial/ros/node_handle.h ****         p.id_ = i + 100 + MAX_SUBSCRIBERS;
 481:ROSSerial/ros/node_handle.h ****         p.nh_ = this;
ARM GAS  /var/folders/l3/4y5292px21b4835bsnjwqc7w009kq1/T//ccaF8PhA.s 			page 52


 482:ROSSerial/ros/node_handle.h ****         return true;
 483:ROSSerial/ros/node_handle.h ****       }
 484:ROSSerial/ros/node_handle.h ****     }
 485:ROSSerial/ros/node_handle.h ****     return false;
 486:ROSSerial/ros/node_handle.h ****   }
 487:ROSSerial/ros/node_handle.h **** 
 488:ROSSerial/ros/node_handle.h ****   /* Register a new subscriber */
 489:ROSSerial/ros/node_handle.h ****   template<typename SubscriberT>
 490:ROSSerial/ros/node_handle.h ****   bool subscribe(SubscriberT& s)
 491:ROSSerial/ros/node_handle.h ****   {
 492:ROSSerial/ros/node_handle.h ****     for (int i = 0; i < MAX_SUBSCRIBERS; i++)
 493:ROSSerial/ros/node_handle.h ****     {
 494:ROSSerial/ros/node_handle.h ****       if (subscribers[i] == 0) // empty slot
 495:ROSSerial/ros/node_handle.h ****       {
 496:ROSSerial/ros/node_handle.h ****         subscribers[i] = static_cast<Subscriber_*>(&s);
 497:ROSSerial/ros/node_handle.h ****         s.id_ = i + 100;
 498:ROSSerial/ros/node_handle.h ****         return true;
 499:ROSSerial/ros/node_handle.h ****       }
 500:ROSSerial/ros/node_handle.h ****     }
 501:ROSSerial/ros/node_handle.h ****     return false;
 502:ROSSerial/ros/node_handle.h ****   }
 503:ROSSerial/ros/node_handle.h **** 
 504:ROSSerial/ros/node_handle.h ****   bool addSubscriber(SubscriberType sub)
 505:ROSSerial/ros/node_handle.h ****   {
 506:ROSSerial/ros/node_handle.h ****     for (int i = 0; i < MAX_SUBSCRIBERS; i++)
 507:ROSSerial/ros/node_handle.h ****     {
 508:ROSSerial/ros/node_handle.h ****       if (subscribers2[i].topic_id == 0) {// empty slot}
 509:ROSSerial/ros/node_handle.h ****         void * ptr = &subscribers2[i];
 510:ROSSerial/ros/node_handle.h ****         memcpy(ptr, &sub, sizeof(sub));
 511:ROSSerial/ros/node_handle.h ****         subscribers2[i].topic_id = i + 100;
 512:ROSSerial/ros/node_handle.h ****         printf("Registered %s with id %d\n", \
 513:ROSSerial/ros/node_handle.h ****           subscribers2[i].topic_name,subscribers2[i].topic_id);
 514:ROSSerial/ros/node_handle.h ****         return true;
 515:ROSSerial/ros/node_handle.h ****       }
 516:ROSSerial/ros/node_handle.h ****     }
 517:ROSSerial/ros/node_handle.h ****     return false;
 518:ROSSerial/ros/node_handle.h ****   }
 519:ROSSerial/ros/node_handle.h **** 
 520:ROSSerial/ros/node_handle.h ****   /* Register a new Service Server */
 521:ROSSerial/ros/node_handle.h ****   template<typename MReq, typename MRes, typename ObjT>
 522:ROSSerial/ros/node_handle.h ****   bool advertiseService(ServiceServer<MReq, MRes, ObjT>& srv)
 523:ROSSerial/ros/node_handle.h ****   {
 524:ROSSerial/ros/node_handle.h ****     bool v = advertise(srv.pub);
 525:ROSSerial/ros/node_handle.h ****     for (int i = 0; i < MAX_SUBSCRIBERS; i++)
 526:ROSSerial/ros/node_handle.h ****     {
 527:ROSSerial/ros/node_handle.h ****       if (subscribers[i] == 0) // empty slot
 528:ROSSerial/ros/node_handle.h ****       {
 529:ROSSerial/ros/node_handle.h ****         subscribers[i] = static_cast<Subscriber_*>(&srv);
 530:ROSSerial/ros/node_handle.h ****         srv.id_ = i + 100;
 531:ROSSerial/ros/node_handle.h ****         return v;
 532:ROSSerial/ros/node_handle.h ****       }
 533:ROSSerial/ros/node_handle.h ****     }
 534:ROSSerial/ros/node_handle.h ****     return false;
 535:ROSSerial/ros/node_handle.h ****   }
 536:ROSSerial/ros/node_handle.h **** 
 537:ROSSerial/ros/node_handle.h ****   /* Register a new Service Client */
 538:ROSSerial/ros/node_handle.h ****   template<typename MReq, typename MRes>
ARM GAS  /var/folders/l3/4y5292px21b4835bsnjwqc7w009kq1/T//ccaF8PhA.s 			page 53


 539:ROSSerial/ros/node_handle.h ****   bool serviceClient(ServiceClient<MReq, MRes>& srv)
 540:ROSSerial/ros/node_handle.h ****   {
 541:ROSSerial/ros/node_handle.h ****     bool v = advertise(srv.pub);
 542:ROSSerial/ros/node_handle.h ****     for (int i = 0; i < MAX_SUBSCRIBERS; i++)
 543:ROSSerial/ros/node_handle.h ****     {
 544:ROSSerial/ros/node_handle.h ****       if (subscribers[i] == 0) // empty slot
 545:ROSSerial/ros/node_handle.h ****       {
 546:ROSSerial/ros/node_handle.h ****         subscribers[i] = static_cast<Subscriber_*>(&srv);
 547:ROSSerial/ros/node_handle.h ****         srv.id_ = i + 100;
 548:ROSSerial/ros/node_handle.h ****         return v;
 549:ROSSerial/ros/node_handle.h ****       }
 550:ROSSerial/ros/node_handle.h ****     }
 551:ROSSerial/ros/node_handle.h ****     return false;
 552:ROSSerial/ros/node_handle.h ****   }
 553:ROSSerial/ros/node_handle.h **** 
 554:ROSSerial/ros/node_handle.h ****   void negotiateTopics()
 555:ROSSerial/ros/node_handle.h ****   {
 556:ROSSerial/ros/node_handle.h ****     rosserial_msgs::TopicInfo ti;
 557:ROSSerial/ros/node_handle.h ****     int i;
 558:ROSSerial/ros/node_handle.h ****     for (i = 0; i < MAX_PUBLISHERS; i++)
 559:ROSSerial/ros/node_handle.h ****     {
 560:ROSSerial/ros/node_handle.h ****       if (publishers2[i].topic_id != 0) // non-empty slot
 561:ROSSerial/ros/node_handle.h ****       {
 562:ROSSerial/ros/node_handle.h ****         ti.topic_id = publishers2[i].topic_id;
 563:ROSSerial/ros/node_handle.h ****         ti.topic_name = publishers2[i].topic_name;
 564:ROSSerial/ros/node_handle.h ****         ti.message_type = publishers2[i].message_type;
 565:ROSSerial/ros/node_handle.h ****         ti.md5sum = publishers2[i].md5sum;
 566:ROSSerial/ros/node_handle.h ****         ti.buffer_size = OUTPUT_SIZE;
 567:ROSSerial/ros/node_handle.h ****         publish1(TopicInfo::ID_PUBLISHER, &ti);
 568:ROSSerial/ros/node_handle.h ****       }
 569:ROSSerial/ros/node_handle.h ****     }
 570:ROSSerial/ros/node_handle.h ****     for (i = 0; i < MAX_SUBSCRIBERS; i++)
 571:ROSSerial/ros/node_handle.h ****     {
 572:ROSSerial/ros/node_handle.h ****       if (subscribers2[i].topic_id != 0) // non-empty slot
 573:ROSSerial/ros/node_handle.h ****       {
 574:ROSSerial/ros/node_handle.h ****         ti.topic_id = subscribers2[i].topic_id;
 575:ROSSerial/ros/node_handle.h ****         ti.topic_name = subscribers2[i].topic_name;
 576:ROSSerial/ros/node_handle.h ****         ti.message_type = subscribers2[i].message_type;
 577:ROSSerial/ros/node_handle.h ****         ti.md5sum = subscribers2[i].md5sum;
 578:ROSSerial/ros/node_handle.h ****         ti.buffer_size = INPUT_SIZE;
 579:ROSSerial/ros/node_handle.h ****         publish1(rosserial_msgs::TopicInfo::ID_SUBSCRIBER, &ti);
 580:ROSSerial/ros/node_handle.h ****       }
 581:ROSSerial/ros/node_handle.h ****     }
 582:ROSSerial/ros/node_handle.h ****     configured_ = true;
 583:ROSSerial/ros/node_handle.h ****   }
 584:ROSSerial/ros/node_handle.h **** 
 585:ROSSerial/ros/node_handle.h ****   virtual int publish(int id, const Msg * msg)
 586:ROSSerial/ros/node_handle.h ****   {
 587:ROSSerial/ros/node_handle.h ****     return publish1(id, msg);
 588:ROSSerial/ros/node_handle.h ****   }
 589:ROSSerial/ros/node_handle.h **** 
 590:ROSSerial/ros/node_handle.h ****   int publish1(int id, Msg * msg)
 1781              		.loc 7 590 0
 1782              		.cfi_startproc
 1783              		@ args = 0, pretend = 0, frame = 16
 1784              		@ frame_needed = 0, uses_anonymous_args = 0
 1785              	.LVL218:
ARM GAS  /var/folders/l3/4y5292px21b4835bsnjwqc7w009kq1/T//ccaF8PhA.s 			page 54


 1786 0000 30B5     		push	{r4, r5, lr}
 1787              		.save {r4, r5, lr}
 1788              	.LCFI14:
 1789              		.cfi_def_cfa_offset 12
 1790              		.cfi_offset 4, -12
 1791              		.cfi_offset 5, -8
 1792              		.cfi_offset 14, -4
 1793              		.pad #20
 1794 0002 85B0     		sub	sp, sp, #20
 1795              	.LCFI15:
 1796              		.cfi_def_cfa_offset 32
 591:ROSSerial/ros/node_handle.h ****   {
 592:ROSSerial/ros/node_handle.h ****     //printf("in nh.publsh %d\n",id);
 593:ROSSerial/ros/node_handle.h ****     if (id >= 100 && !configured_)
 1797              		.loc 7 593 0
 1798 0004 6329     		cmp	r1, #99
 1799 0006 03DD     		ble	.L102
 1800              		.loc 7 593 0 is_stmt 0 discriminator 1
 1801 0008 90F81C35 		ldrb	r3, [r0, #1308]	@ zero_extendqisi2
 1802 000c 002B     		cmp	r3, #0
 1803 000e 5AD0     		beq	.L107
 1804              	.L102:
 1805 0010 0D46     		mov	r5, r1
 1806 0012 0446     		mov	r4, r0
 594:ROSSerial/ros/node_handle.h ****       return 0;
 595:ROSSerial/ros/node_handle.h ****     //printf("in nh.publsh %s\n",msg->getType());
 596:ROSSerial/ros/node_handle.h ****     /* serialize message */
 597:ROSSerial/ros/node_handle.h ****     int l = msg->serialize(message_out + 7);
 1807              		.loc 7 597 0 is_stmt 1
 1808 0014 1368     		ldr	r3, [r2]
 1809 0016 1B68     		ldr	r3, [r3]
 1810 0018 00F21F21 		addw	r1, r0, #543
 1811              	.LVL219:
 1812 001c 1046     		mov	r0, r2
 1813              	.LVL220:
 1814 001e 9847     		blx	r3
 1815              	.LVL221:
 598:ROSSerial/ros/node_handle.h **** 
 599:ROSSerial/ros/node_handle.h ****     /* setup the header */
 600:ROSSerial/ros/node_handle.h ****     message_out[0] = 0xff;
 1816              		.loc 7 600 0
 1817 0020 FF23     		movs	r3, #255
 1818 0022 84F81832 		strb	r3, [r4, #536]
 601:ROSSerial/ros/node_handle.h ****     message_out[1] = PROTOCOL_VER;
 1819              		.loc 7 601 0
 1820 0026 FE23     		movs	r3, #254
 1821 0028 84F81932 		strb	r3, [r4, #537]
 602:ROSSerial/ros/node_handle.h ****     message_out[2] = (uint8_t)((uint16_t)l & 255);
 1822              		.loc 7 602 0
 1823 002c C3B2     		uxtb	r3, r0
 1824 002e 84F81A32 		strb	r3, [r4, #538]
 603:ROSSerial/ros/node_handle.h ****     message_out[3] = (uint8_t)((uint16_t)l >> 8);
 1825              		.loc 7 603 0
 1826 0032 C0F30722 		ubfx	r2, r0, #8, #8
 1827 0036 84F81B22 		strb	r2, [r4, #539]
 604:ROSSerial/ros/node_handle.h ****     message_out[4] = 255 - ((message_out[2] + message_out[3]) % 256);
 1828              		.loc 7 604 0
ARM GAS  /var/folders/l3/4y5292px21b4835bsnjwqc7w009kq1/T//ccaF8PhA.s 			page 55


 1829 003a 1344     		add	r3, r3, r2
 1830 003c DBB2     		uxtb	r3, r3
 1831 003e DB43     		mvns	r3, r3
 1832 0040 84F81C32 		strb	r3, [r4, #540]
 605:ROSSerial/ros/node_handle.h ****     message_out[5] = (uint8_t)((int16_t)id & 255);
 1833              		.loc 7 605 0
 1834 0044 84F81D52 		strb	r5, [r4, #541]
 606:ROSSerial/ros/node_handle.h ****     message_out[6] = (uint8_t)((int16_t)id >> 8);
 1835              		.loc 7 606 0
 1836 0048 45F30721 		sbfx	r1, r5, #8, #8
 1837 004c 84F81E12 		strb	r1, [r4, #542]
 1838              	.LVL222:
 1839              	.LBB185:
 607:ROSSerial/ros/node_handle.h **** 
 608:ROSSerial/ros/node_handle.h ****     /* calculate checksum */
 609:ROSSerial/ros/node_handle.h ****     int chk = 0;
 610:ROSSerial/ros/node_handle.h ****     for (int i = 5; i < l + 7; i++)
 1840              		.loc 7 610 0
 1841 0050 0523     		movs	r3, #5
 1842              	.LBE185:
 609:ROSSerial/ros/node_handle.h ****     for (int i = 5; i < l + 7; i++)
 1843              		.loc 7 609 0
 1844 0052 0022     		movs	r2, #0
 1845              	.LVL223:
 1846              	.L105:
 1847              	.LBB186:
 1848              		.loc 7 610 0 discriminator 3
 1849 0054 C11D     		adds	r1, r0, #7
 1850 0056 9942     		cmp	r1, r3
 1851 0058 05DD     		ble	.L104
 611:ROSSerial/ros/node_handle.h ****       chk += message_out[i];
 1852              		.loc 7 611 0 discriminator 2
 1853 005a E118     		adds	r1, r4, r3
 1854 005c 91F81812 		ldrb	r1, [r1, #536]	@ zero_extendqisi2
 1855 0060 0A44     		add	r2, r2, r1
 1856              	.LVL224:
 610:ROSSerial/ros/node_handle.h ****       chk += message_out[i];
 1857              		.loc 7 610 0 discriminator 2
 1858 0062 0133     		adds	r3, r3, #1
 1859              	.LVL225:
 1860 0064 F6E7     		b	.L105
 1861              	.L104:
 1862              	.LVL226:
 1863              	.LBE186:
 612:ROSSerial/ros/node_handle.h ****     l += 7;
 613:ROSSerial/ros/node_handle.h ****     message_out[l++] = 255 - (chk % 256);
 1864              		.loc 7 613 0
 1865 0066 5342     		rsbs	r3, r2, #0
 1866              	.LVL227:
 1867 0068 D2B2     		uxtb	r2, r2
 1868              	.LVL228:
 1869 006a DBB2     		uxtb	r3, r3
 1870 006c 58BF     		it	pl
 1871 006e 5A42     		rsbpl	r2, r3, #0
 1872 0070 00F10805 		add	r5, r0, #8
 1873              	.LVL229:
 1874 0074 D243     		mvns	r2, r2
ARM GAS  /var/folders/l3/4y5292px21b4835bsnjwqc7w009kq1/T//ccaF8PhA.s 			page 56


 1875 0076 2144     		add	r1, r1, r4
 1876 0078 81F81822 		strb	r2, [r1, #536]
 614:ROSSerial/ros/node_handle.h ****     //printf("Sending message - %s, length %d\n",msg->getType(), l);
 615:ROSSerial/ros/node_handle.h ****     if (l <= OUTPUT_SIZE)
 1877              		.loc 7 615 0
 1878 007c B5F5007F 		cmp	r5, #512
 1879 0080 12DC     		bgt	.L106
 616:ROSSerial/ros/node_handle.h ****     {
 617:ROSSerial/ros/node_handle.h ****       hardware_.write(message_out, l);
 1880              		.loc 7 617 0
 1881 0082 04F50674 		add	r4, r4, #536
 1882              	.LVL230:
 1883              	.LBB187:
 1884              	.LBB188:
  66:ROSSerial/AT32hardware.h **** 		{
  67:ROSSerial/AT32hardware.h **** 			return -1;
  68:ROSSerial/AT32hardware.h **** 		}
  69:ROSSerial/AT32hardware.h **** 	}
  70:ROSSerial/AT32hardware.h **** 
  71:ROSSerial/AT32hardware.h **** 	/*
  72:ROSSerial/AT32hardware.h ****      * Method: read
  73:ROSSerial/AT32hardware.h **** 	 * ----------------------------
  74:ROSSerial/AT32hardware.h **** 	 *   Read a byte of data from ROS connection
  75:ROSSerial/AT32hardware.h **** 	 *   parameters: none
  76:ROSSerial/AT32hardware.h **** 	 *   returns: data, or -1 if there are no data
  77:ROSSerial/AT32hardware.h **** 	 */
  78:ROSSerial/AT32hardware.h **** 	int read(void)
  79:ROSSerial/AT32hardware.h **** 	{
  80:ROSSerial/AT32hardware.h **** 		int ucData = -1;
  81:ROSSerial/AT32hardware.h **** 		
  82:ROSSerial/AT32hardware.h **** 		if(g_RxRead < g_RxWritten)
  83:ROSSerial/AT32hardware.h **** 		{
  84:ROSSerial/AT32hardware.h **** 			ucData = g_RxBuf[g_RxRead++];
  85:ROSSerial/AT32hardware.h **** 		}
  86:ROSSerial/AT32hardware.h **** 		else if (g_RxWritten < RX_BUF_SIZE &&  g_RxRead == g_RxWritten )
  87:ROSSerial/AT32hardware.h **** 		{
  88:ROSSerial/AT32hardware.h **** 			g_RxRead = 0;
  89:ROSSerial/AT32hardware.h **** 			g_RxWritten = 0;
  90:ROSSerial/AT32hardware.h **** 			__HAL_UART_ENABLE_IT(&huart2, UART_IT_TC);
  91:ROSSerial/AT32hardware.h ****       		HAL_UART_Receive_IT(&huart2, &byte, 1);
  92:ROSSerial/AT32hardware.h **** 		}
  93:ROSSerial/AT32hardware.h **** 		else if (g_RxWritten < RX_BUF_SIZE && g_RxWritten > g_RxRead)
  94:ROSSerial/AT32hardware.h **** 		{
  95:ROSSerial/AT32hardware.h **** 			printf("How did this happen? %d %d\n",g_RxRead,g_RxWritten);
  96:ROSSerial/AT32hardware.h **** 		}
  97:ROSSerial/AT32hardware.h **** 		
  98:ROSSerial/AT32hardware.h **** 		
  99:ROSSerial/AT32hardware.h **** 		if(g_RxRead == RX_BUF_SIZE )
 100:ROSSerial/AT32hardware.h **** 		{
 101:ROSSerial/AT32hardware.h **** 			g_RxRead = 0;
 102:ROSSerial/AT32hardware.h **** 			g_RxWritten = 0;
 103:ROSSerial/AT32hardware.h **** 			//Enable the interrupt so we can read again.
 104:ROSSerial/AT32hardware.h **** 			__HAL_UART_ENABLE_IT(&huart2, UART_IT_TC);
 105:ROSSerial/AT32hardware.h ****       		HAL_UART_Receive_IT(&huart2, &byte, 1);
 106:ROSSerial/AT32hardware.h **** 		}
 107:ROSSerial/AT32hardware.h **** 		return ucData;
 108:ROSSerial/AT32hardware.h **** 	}
ARM GAS  /var/folders/l3/4y5292px21b4835bsnjwqc7w009kq1/T//ccaF8PhA.s 			page 57


 109:ROSSerial/AT32hardware.h **** 
 110:ROSSerial/AT32hardware.h **** 	/*
 111:ROSSerial/AT32hardware.h **** 	 * Method: write
 112:ROSSerial/AT32hardware.h ****      * ----------------------------
 113:ROSSerial/AT32hardware.h **** 	 *   Send data to ROS connection
 114:ROSSerial/AT32hardware.h **** 	 *   parameters: pointer to data array, length of data
 115:ROSSerial/AT32hardware.h **** 	 *   returns: none
 116:ROSSerial/AT32hardware.h **** 	 */
 117:ROSSerial/AT32hardware.h **** 	void write(uint8_t* data, uint32_t length)
 118:ROSSerial/AT32hardware.h **** 	{
 119:ROSSerial/AT32hardware.h **** 		// printf("printing %d\n",length);
 120:ROSSerial/AT32hardware.h **** 		/* Without Interrupt takes 3ms longer per chatter message */
 121:ROSSerial/AT32hardware.h **** 		HAL_StatusTypeDef ret = HAL_UART_Transmit(&huart2, (uint8_t *)data, length, 10);
 1885              		.loc 8 121 0
 1886 0086 0A23     		movs	r3, #10
 1887 0088 AAB2     		uxth	r2, r5
 1888 008a 2146     		mov	r1, r4
 1889 008c 0F48     		ldr	r0, .L110
 1890 008e FFF7FEFF 		bl	HAL_UART_Transmit
 1891              	.LVL231:
 122:ROSSerial/AT32hardware.h **** 		if(ret == HAL_TIMEOUT)
 1892              		.loc 8 122 0
 1893 0092 0328     		cmp	r0, #3
 1894 0094 02D0     		beq	.L109
 1895              	.LVL232:
 1896              	.L101:
 1897              	.LBE188:
 1898              	.LBE187:
 618:ROSSerial/ros/node_handle.h ****       return l;
 619:ROSSerial/ros/node_handle.h ****     }
 620:ROSSerial/ros/node_handle.h ****     else
 621:ROSSerial/ros/node_handle.h ****     {
 622:ROSSerial/ros/node_handle.h ****       logerror("Message from device dropped: message larger than buffer.");
 623:ROSSerial/ros/node_handle.h ****       return -1;
 624:ROSSerial/ros/node_handle.h ****     }
 625:ROSSerial/ros/node_handle.h ****   }
 1899              		.loc 7 625 0
 1900 0096 2846     		mov	r0, r5
 1901 0098 05B0     		add	sp, sp, #20
 1902              	.LCFI16:
 1903              		.cfi_remember_state
 1904              		.cfi_def_cfa_offset 12
 1905              		@ sp needed
 1906 009a 30BD     		pop	{r4, r5, pc}
 1907              	.LVL233:
 1908              	.L109:
 1909              	.LCFI17:
 1910              		.cfi_restore_state
 1911              	.LBB190:
 1912              	.LBB189:
 123:ROSSerial/AT32hardware.h **** 		{
 124:ROSSerial/AT32hardware.h **** 			printf("timeout %d - %s\n",length, data);
 1913              		.loc 8 124 0
 1914 009c 2246     		mov	r2, r4
 1915 009e 2946     		mov	r1, r5
 1916 00a0 0B48     		ldr	r0, .L110+4
 1917              	.LVL234:
ARM GAS  /var/folders/l3/4y5292px21b4835bsnjwqc7w009kq1/T//ccaF8PhA.s 			page 58


 1918 00a2 FFF7FEFF 		bl	printf
 1919              	.LVL235:
 1920 00a6 F6E7     		b	.L101
 1921              	.LVL236:
 1922              	.L106:
 1923              	.LBE189:
 1924              	.LBE190:
 1925              	.LBB191:
 1926              	.LBB192:
 1927              	.LBB193:
 1928              	.LBB194:
 1929              	.LBB195:
  13:ROSSerial/rosserial_msgs/Log.h ****   {
 1930              		.loc 3 13 0
 1931 00a8 0A4B     		ldr	r3, .L110+8
 1932 00aa 0193     		str	r3, [sp, #4]
 1933              	.LVL237:
 1934              	.LBE195:
 1935              	.LBE194:
 626:ROSSerial/ros/node_handle.h **** 
 627:ROSSerial/ros/node_handle.h ****   /********************************************************************
 628:ROSSerial/ros/node_handle.h ****    * Logging
 629:ROSSerial/ros/node_handle.h ****    */
 630:ROSSerial/ros/node_handle.h **** 
 631:ROSSerial/ros/node_handle.h **** private:
 632:ROSSerial/ros/node_handle.h ****   void log(char byte, const char * msg)
 633:ROSSerial/ros/node_handle.h ****   {
 634:ROSSerial/ros/node_handle.h ****     rosserial_msgs::Log l;
 635:ROSSerial/ros/node_handle.h ****     l.level = byte;
 1936              		.loc 7 635 0
 1937 00ac 0323     		movs	r3, #3
 1938 00ae 8DF80830 		strb	r3, [sp, #8]
 636:ROSSerial/ros/node_handle.h ****     l.msg = (char*)msg;
 1939              		.loc 7 636 0
 1940 00b2 094B     		ldr	r3, .L110+12
 1941 00b4 0393     		str	r3, [sp, #12]
 637:ROSSerial/ros/node_handle.h ****     publish1(rosserial_msgs::TopicInfo::ID_LOG, &l);
 1942              		.loc 7 637 0
 1943 00b6 01AA     		add	r2, sp, #4
 1944 00b8 0721     		movs	r1, #7
 1945 00ba 2046     		mov	r0, r4
 1946 00bc FFF7FEFF 		bl	_ZN3ros11NodeHandle_I13STM32HardwareLi5ELi5ELi512ELi512EE8publish1EiPNS_3MsgE
 1947              	.LVL238:
 1948              	.LBE193:
 1949              	.LBE192:
 1950              	.LBE191:
 623:ROSSerial/ros/node_handle.h ****     }
 1951              		.loc 7 623 0
 1952 00c0 4FF0FF35 		mov	r5, #-1
 1953              	.LVL239:
 1954 00c4 E7E7     		b	.L101
 1955              	.LVL240:
 1956              	.L107:
 594:ROSSerial/ros/node_handle.h ****     //printf("in nh.publsh %s\n",msg->getType());
 1957              		.loc 7 594 0
 1958 00c6 0025     		movs	r5, #0
 1959 00c8 E5E7     		b	.L101
ARM GAS  /var/folders/l3/4y5292px21b4835bsnjwqc7w009kq1/T//ccaF8PhA.s 			page 59


 1960              	.L111:
 1961 00ca 00BF     		.align	2
 1962              	.L110:
 1963 00cc 00000000 		.word	huart2
 1964 00d0 00000000 		.word	.LC11
 1965 00d4 08000000 		.word	_ZTVN14rosserial_msgs3LogE+8
 1966 00d8 14000000 		.word	.LC12
 1967              		.cfi_endproc
 1968              	.LFE494:
 1969              		.fnend
 1971              		.section	.text._ZN3ros11NodeHandle_I13STM32HardwareLi5ELi5ELi512ELi512EE7publishEiPKNS_3MsgE,"axG"
 1972              		.align	1
 1973              		.weak	_ZN3ros11NodeHandle_I13STM32HardwareLi5ELi5ELi512ELi512EE7publishEiPKNS_3MsgE
 1974              		.syntax unified
 1975              		.thumb
 1976              		.thumb_func
 1977              		.fpu fpv4-sp-d16
 1979              	_ZN3ros11NodeHandle_I13STM32HardwareLi5ELi5ELi512ELi512EE7publishEiPKNS_3MsgE:
 1980              		.fnstart
 1981              	.LFB511:
 585:ROSSerial/ros/node_handle.h ****   {
 1982              		.loc 7 585 0
 1983              		.cfi_startproc
 1984              		@ args = 0, pretend = 0, frame = 24
 1985              		@ frame_needed = 0, uses_anonymous_args = 0
 1986              	.LVL241:
 1987 0000 30B5     		push	{r4, r5, lr}
 1988              		.save {r4, r5, lr}
 1989              	.LCFI18:
 1990              		.cfi_def_cfa_offset 12
 1991              		.cfi_offset 4, -12
 1992              		.cfi_offset 5, -8
 1993              		.cfi_offset 14, -4
 1994              		.pad #28
 1995 0002 87B0     		sub	sp, sp, #28
 1996              	.LCFI19:
 1997              		.cfi_def_cfa_offset 40
 1998              	.LVL242:
 1999              	.LBB218:
 2000              	.LBB219:
 593:ROSSerial/ros/node_handle.h ****       return 0;
 2001              		.loc 7 593 0
 2002 0004 6329     		cmp	r1, #99
 2003 0006 04DD     		ble	.L113
 2004 0008 90F81C35 		ldrb	r3, [r0, #1308]	@ zero_extendqisi2
 2005 000c 002B     		cmp	r3, #0
 2006 000e 00F0A880 		beq	.L122
 2007              	.L113:
 2008 0012 0D46     		mov	r5, r1
 2009 0014 0446     		mov	r4, r0
 597:ROSSerial/ros/node_handle.h **** 
 2010              		.loc 7 597 0
 2011 0016 1368     		ldr	r3, [r2]
 2012 0018 1B68     		ldr	r3, [r3]
 2013 001a 00F21F21 		addw	r1, r0, #543
 2014              	.LVL243:
 2015 001e 1046     		mov	r0, r2
ARM GAS  /var/folders/l3/4y5292px21b4835bsnjwqc7w009kq1/T//ccaF8PhA.s 			page 60


 2016              	.LVL244:
 2017 0020 9847     		blx	r3
 2018              	.LVL245:
 600:ROSSerial/ros/node_handle.h ****     message_out[1] = PROTOCOL_VER;
 2019              		.loc 7 600 0
 2020 0022 FF23     		movs	r3, #255
 2021 0024 84F81832 		strb	r3, [r4, #536]
 601:ROSSerial/ros/node_handle.h ****     message_out[2] = (uint8_t)((uint16_t)l & 255);
 2022              		.loc 7 601 0
 2023 0028 FE23     		movs	r3, #254
 2024 002a 84F81932 		strb	r3, [r4, #537]
 602:ROSSerial/ros/node_handle.h ****     message_out[3] = (uint8_t)((uint16_t)l >> 8);
 2025              		.loc 7 602 0
 2026 002e C3B2     		uxtb	r3, r0
 2027 0030 84F81A32 		strb	r3, [r4, #538]
 603:ROSSerial/ros/node_handle.h ****     message_out[4] = 255 - ((message_out[2] + message_out[3]) % 256);
 2028              		.loc 7 603 0
 2029 0034 C0F30722 		ubfx	r2, r0, #8, #8
 2030 0038 84F81B22 		strb	r2, [r4, #539]
 604:ROSSerial/ros/node_handle.h ****     message_out[5] = (uint8_t)((int16_t)id & 255);
 2031              		.loc 7 604 0
 2032 003c 1344     		add	r3, r3, r2
 2033 003e DBB2     		uxtb	r3, r3
 2034 0040 DB43     		mvns	r3, r3
 2035 0042 84F81C32 		strb	r3, [r4, #540]
 605:ROSSerial/ros/node_handle.h ****     message_out[6] = (uint8_t)((int16_t)id >> 8);
 2036              		.loc 7 605 0
 2037 0046 84F81D52 		strb	r5, [r4, #541]
 606:ROSSerial/ros/node_handle.h **** 
 2038              		.loc 7 606 0
 2039 004a 45F30721 		sbfx	r1, r5, #8, #8
 2040 004e 84F81E12 		strb	r1, [r4, #542]
 2041              	.LVL246:
 2042              	.LBB220:
 610:ROSSerial/ros/node_handle.h ****       chk += message_out[i];
 2043              		.loc 7 610 0
 2044 0052 0523     		movs	r3, #5
 2045              	.LBE220:
 609:ROSSerial/ros/node_handle.h ****     for (int i = 5; i < l + 7; i++)
 2046              		.loc 7 609 0
 2047 0054 0022     		movs	r2, #0
 2048              	.LVL247:
 2049              	.L116:
 2050              	.LBB221:
 610:ROSSerial/ros/node_handle.h ****       chk += message_out[i];
 2051              		.loc 7 610 0
 2052 0056 C11D     		adds	r1, r0, #7
 2053 0058 9942     		cmp	r1, r3
 2054 005a 05DD     		ble	.L115
 611:ROSSerial/ros/node_handle.h ****     l += 7;
 2055              		.loc 7 611 0
 2056 005c E118     		adds	r1, r4, r3
 2057 005e 91F81812 		ldrb	r1, [r1, #536]	@ zero_extendqisi2
 2058 0062 0A44     		add	r2, r2, r1
 2059              	.LVL248:
 610:ROSSerial/ros/node_handle.h ****       chk += message_out[i];
 2060              		.loc 7 610 0
ARM GAS  /var/folders/l3/4y5292px21b4835bsnjwqc7w009kq1/T//ccaF8PhA.s 			page 61


 2061 0064 0133     		adds	r3, r3, #1
 2062              	.LVL249:
 2063 0066 F6E7     		b	.L116
 2064              	.L115:
 2065              	.LVL250:
 2066              	.LBE221:
 613:ROSSerial/ros/node_handle.h ****     //printf("Sending message - %s, length %d\n",msg->getType(), l);
 2067              		.loc 7 613 0
 2068 0068 5342     		rsbs	r3, r2, #0
 2069              	.LVL251:
 2070 006a D2B2     		uxtb	r2, r2
 2071              	.LVL252:
 2072 006c DBB2     		uxtb	r3, r3
 2073 006e 58BF     		it	pl
 2074 0070 5A42     		rsbpl	r2, r3, #0
 2075 0072 00F10805 		add	r5, r0, #8
 2076              	.LVL253:
 2077 0076 D243     		mvns	r2, r2
 2078 0078 2144     		add	r1, r1, r4
 2079 007a 81F81822 		strb	r2, [r1, #536]
 615:ROSSerial/ros/node_handle.h ****     {
 2080              		.loc 7 615 0
 2081 007e B5F5007F 		cmp	r5, #512
 2082 0082 12DC     		bgt	.L117
 617:ROSSerial/ros/node_handle.h ****       return l;
 2083              		.loc 7 617 0
 2084 0084 04F50674 		add	r4, r4, #536
 2085              	.LVL254:
 2086              	.LBB222:
 2087              	.LBB223:
 121:ROSSerial/AT32hardware.h **** 		if(ret == HAL_TIMEOUT)
 2088              		.loc 8 121 0
 2089 0088 0A23     		movs	r3, #10
 2090 008a AAB2     		uxth	r2, r5
 2091 008c 2146     		mov	r1, r4
 2092 008e 3648     		ldr	r0, .L126
 2093 0090 FFF7FEFF 		bl	HAL_UART_Transmit
 2094              	.LVL255:
 122:ROSSerial/AT32hardware.h **** 		{
 2095              		.loc 8 122 0
 2096 0094 0328     		cmp	r0, #3
 2097 0096 02D0     		beq	.L124
 2098              	.LVL256:
 2099              	.L112:
 2100              	.LBE223:
 2101              	.LBE222:
 2102              	.LBE219:
 2103              	.LBE218:
 588:ROSSerial/ros/node_handle.h **** 
 2104              		.loc 7 588 0
 2105 0098 2846     		mov	r0, r5
 2106 009a 07B0     		add	sp, sp, #28
 2107              	.LCFI20:
 2108              		.cfi_remember_state
 2109              		.cfi_def_cfa_offset 12
 2110              		@ sp needed
 2111 009c 30BD     		pop	{r4, r5, pc}
ARM GAS  /var/folders/l3/4y5292px21b4835bsnjwqc7w009kq1/T//ccaF8PhA.s 			page 62


 2112              	.LVL257:
 2113              	.L124:
 2114              	.LCFI21:
 2115              		.cfi_restore_state
 2116              	.LBB249:
 2117              	.LBB248:
 2118              	.LBB225:
 2119              	.LBB224:
 2120              		.loc 8 124 0
 2121 009e 2246     		mov	r2, r4
 2122 00a0 2946     		mov	r1, r5
 2123 00a2 3248     		ldr	r0, .L126+4
 2124              	.LVL258:
 2125 00a4 FFF7FEFF 		bl	printf
 2126              	.LVL259:
 2127 00a8 F6E7     		b	.L112
 2128              	.LVL260:
 2129              	.L117:
 2130              	.LBE224:
 2131              	.LBE225:
 2132              	.LBB226:
 2133              	.LBB227:
 2134              	.LBB228:
 2135              	.LBB229:
 2136              	.LBB230:
  13:ROSSerial/rosserial_msgs/Log.h ****   {
 2137              		.loc 3 13 0
 2138 00aa 314B     		ldr	r3, .L126+8
 2139 00ac 0093     		str	r3, [sp]
 2140              	.LVL261:
 2141              	.LBE230:
 2142              	.LBE229:
 635:ROSSerial/ros/node_handle.h ****     l.msg = (char*)msg;
 2143              		.loc 7 635 0
 2144 00ae 0322     		movs	r2, #3
 2145 00b0 8DF80420 		strb	r2, [sp, #4]
 636:ROSSerial/ros/node_handle.h ****     publish1(rosserial_msgs::TopicInfo::ID_LOG, &l);
 2146              		.loc 7 636 0
 2147 00b4 2F4A     		ldr	r2, .L126+12
 2148 00b6 0292     		str	r2, [sp, #8]
 2149              	.LVL262:
 2150              	.LBB231:
 2151              	.LBB232:
 597:ROSSerial/ros/node_handle.h **** 
 2152              		.loc 7 597 0
 2153 00b8 1B68     		ldr	r3, [r3]
 2154 00ba 04F21F21 		addw	r1, r4, #543
 2155 00be 6846     		mov	r0, sp
 2156 00c0 9847     		blx	r3
 2157              	.LVL263:
 600:ROSSerial/ros/node_handle.h ****     message_out[1] = PROTOCOL_VER;
 2158              		.loc 7 600 0
 2159 00c2 FF23     		movs	r3, #255
 2160 00c4 84F81832 		strb	r3, [r4, #536]
 601:ROSSerial/ros/node_handle.h ****     message_out[2] = (uint8_t)((uint16_t)l & 255);
 2161              		.loc 7 601 0
 2162 00c8 FE23     		movs	r3, #254
ARM GAS  /var/folders/l3/4y5292px21b4835bsnjwqc7w009kq1/T//ccaF8PhA.s 			page 63


 2163 00ca 84F81932 		strb	r3, [r4, #537]
 602:ROSSerial/ros/node_handle.h ****     message_out[3] = (uint8_t)((uint16_t)l >> 8);
 2164              		.loc 7 602 0
 2165 00ce C3B2     		uxtb	r3, r0
 2166 00d0 84F81A32 		strb	r3, [r4, #538]
 603:ROSSerial/ros/node_handle.h ****     message_out[4] = 255 - ((message_out[2] + message_out[3]) % 256);
 2167              		.loc 7 603 0
 2168 00d4 C0F30722 		ubfx	r2, r0, #8, #8
 2169 00d8 84F81B22 		strb	r2, [r4, #539]
 604:ROSSerial/ros/node_handle.h ****     message_out[5] = (uint8_t)((int16_t)id & 255);
 2170              		.loc 7 604 0
 2171 00dc 1344     		add	r3, r3, r2
 2172 00de DBB2     		uxtb	r3, r3
 2173 00e0 DB43     		mvns	r3, r3
 2174 00e2 84F81C32 		strb	r3, [r4, #540]
 605:ROSSerial/ros/node_handle.h ****     message_out[6] = (uint8_t)((int16_t)id >> 8);
 2175              		.loc 7 605 0
 2176 00e6 0723     		movs	r3, #7
 2177 00e8 84F81D32 		strb	r3, [r4, #541]
 606:ROSSerial/ros/node_handle.h **** 
 2178              		.loc 7 606 0
 2179 00ec 0023     		movs	r3, #0
 2180 00ee 84F81E32 		strb	r3, [r4, #542]
 2181              	.LVL264:
 2182              	.LBB233:
 610:ROSSerial/ros/node_handle.h ****       chk += message_out[i];
 2183              		.loc 7 610 0
 2184 00f2 0522     		movs	r2, #5
 2185              	.LVL265:
 2186              	.L119:
 2187 00f4 C11D     		adds	r1, r0, #7
 2188 00f6 9142     		cmp	r1, r2
 2189 00f8 05DD     		ble	.L118
 611:ROSSerial/ros/node_handle.h ****     l += 7;
 2190              		.loc 7 611 0
 2191 00fa A118     		adds	r1, r4, r2
 2192 00fc 91F81812 		ldrb	r1, [r1, #536]	@ zero_extendqisi2
 2193 0100 0B44     		add	r3, r3, r1
 2194              	.LVL266:
 610:ROSSerial/ros/node_handle.h ****       chk += message_out[i];
 2195              		.loc 7 610 0
 2196 0102 0132     		adds	r2, r2, #1
 2197              	.LVL267:
 2198 0104 F6E7     		b	.L119
 2199              	.L118:
 2200              	.LVL268:
 2201              	.LBE233:
 613:ROSSerial/ros/node_handle.h ****     //printf("Sending message - %s, length %d\n",msg->getType(), l);
 2202              		.loc 7 613 0
 2203 0106 5A42     		rsbs	r2, r3, #0
 2204              	.LVL269:
 2205 0108 DBB2     		uxtb	r3, r3
 2206              	.LVL270:
 2207 010a D2B2     		uxtb	r2, r2
 2208 010c 58BF     		it	pl
 2209 010e 5342     		rsbpl	r3, r2, #0
 2210 0110 00F10805 		add	r5, r0, #8
ARM GAS  /var/folders/l3/4y5292px21b4835bsnjwqc7w009kq1/T//ccaF8PhA.s 			page 64


 2211              	.LVL271:
 2212 0114 DB43     		mvns	r3, r3
 2213 0116 2144     		add	r1, r1, r4
 2214 0118 81F81832 		strb	r3, [r1, #536]
 615:ROSSerial/ros/node_handle.h ****     {
 2215              		.loc 7 615 0
 2216 011c B5F5007F 		cmp	r5, #512
 2217 0120 12DC     		bgt	.L120
 617:ROSSerial/ros/node_handle.h ****       return l;
 2218              		.loc 7 617 0
 2219 0122 04F50674 		add	r4, r4, #536
 2220              	.LVL272:
 2221              	.LBB234:
 2222              	.LBB235:
 121:ROSSerial/AT32hardware.h **** 		if(ret == HAL_TIMEOUT)
 2223              		.loc 8 121 0
 2224 0126 0A23     		movs	r3, #10
 2225 0128 AAB2     		uxth	r2, r5
 2226 012a 2146     		mov	r1, r4
 2227 012c 0E48     		ldr	r0, .L126
 2228 012e FFF7FEFF 		bl	HAL_UART_Transmit
 2229              	.LVL273:
 122:ROSSerial/AT32hardware.h **** 		{
 2230              		.loc 8 122 0
 2231 0132 0328     		cmp	r0, #3
 2232 0134 02D0     		beq	.L125
 2233              	.LVL274:
 2234              	.L121:
 2235              	.LBE235:
 2236              	.LBE234:
 2237              	.LBE232:
 2238              	.LBE231:
 2239              	.LBE228:
 2240              	.LBE227:
 2241              	.LBE226:
 623:ROSSerial/ros/node_handle.h ****     }
 2242              		.loc 7 623 0
 2243 0136 4FF0FF35 		mov	r5, #-1
 2244 013a ADE7     		b	.L112
 2245              	.LVL275:
 2246              	.L125:
 2247              	.LBB247:
 2248              	.LBB246:
 2249              	.LBB245:
 2250              	.LBB244:
 2251              	.LBB243:
 2252              	.LBB237:
 2253              	.LBB236:
 2254              		.loc 8 124 0
 2255 013c 2246     		mov	r2, r4
 2256 013e 2946     		mov	r1, r5
 2257 0140 0A48     		ldr	r0, .L126+4
 2258              	.LVL276:
 2259 0142 FFF7FEFF 		bl	printf
 2260              	.LVL277:
 2261 0146 F6E7     		b	.L121
 2262              	.LVL278:
ARM GAS  /var/folders/l3/4y5292px21b4835bsnjwqc7w009kq1/T//ccaF8PhA.s 			page 65


 2263              	.L120:
 2264              	.LBE236:
 2265              	.LBE237:
 2266              	.LBB238:
 2267              	.LBB239:
 2268              	.LBB240:
 2269              	.LBB241:
 2270              	.LBB242:
  13:ROSSerial/rosserial_msgs/Log.h ****   {
 2271              		.loc 3 13 0
 2272 0148 094B     		ldr	r3, .L126+8
 2273 014a 0393     		str	r3, [sp, #12]
 2274              	.LVL279:
 2275              	.LBE242:
 2276              	.LBE241:
 635:ROSSerial/ros/node_handle.h ****     l.msg = (char*)msg;
 2277              		.loc 7 635 0
 2278 014c 0323     		movs	r3, #3
 2279 014e 8DF81030 		strb	r3, [sp, #16]
 636:ROSSerial/ros/node_handle.h ****     publish1(rosserial_msgs::TopicInfo::ID_LOG, &l);
 2280              		.loc 7 636 0
 2281 0152 084B     		ldr	r3, .L126+12
 2282 0154 0593     		str	r3, [sp, #20]
 2283              		.loc 7 637 0
 2284 0156 03AA     		add	r2, sp, #12
 2285 0158 0721     		movs	r1, #7
 2286 015a 2046     		mov	r0, r4
 2287 015c FFF7FEFF 		bl	_ZN3ros11NodeHandle_I13STM32HardwareLi5ELi5ELi512ELi512EE8publish1EiPNS_3MsgE
 2288              	.LVL280:
 2289 0160 E9E7     		b	.L121
 2290              	.LVL281:
 2291              	.L122:
 2292              	.LBE240:
 2293              	.LBE239:
 2294              	.LBE238:
 2295              	.LBE243:
 2296              	.LBE244:
 2297              	.LBE245:
 2298              	.LBE246:
 2299              	.LBE247:
 594:ROSSerial/ros/node_handle.h ****     //printf("in nh.publsh %s\n",msg->getType());
 2300              		.loc 7 594 0
 2301 0162 0025     		movs	r5, #0
 2302              	.LVL282:
 2303              	.LBE248:
 2304              	.LBE249:
 587:ROSSerial/ros/node_handle.h ****   }
 2305              		.loc 7 587 0
 2306 0164 98E7     		b	.L112
 2307              	.L127:
 2308 0166 00BF     		.align	2
 2309              	.L126:
 2310 0168 00000000 		.word	huart2
 2311 016c 00000000 		.word	.LC11
 2312 0170 08000000 		.word	_ZTVN14rosserial_msgs3LogE+8
 2313 0174 14000000 		.word	.LC12
 2314              		.cfi_endproc
ARM GAS  /var/folders/l3/4y5292px21b4835bsnjwqc7w009kq1/T//ccaF8PhA.s 			page 66


 2315              	.LFE511:
 2316              		.fnend
 2318              		.section	.text._ZN3ros11NodeHandle_I13STM32HardwareLi5ELi5ELi512ELi512EE15requestSyncTimeEv,"axG",
 2319              		.align	1
 2320              		.weak	_ZN3ros11NodeHandle_I13STM32HardwareLi5ELi5ELi512ELi512EE15requestSyncTimeEv
 2321              		.syntax unified
 2322              		.thumb
 2323              		.thumb_func
 2324              		.fpu fpv4-sp-d16
 2326              	_ZN3ros11NodeHandle_I13STM32HardwareLi5ELi5ELi512ELi512EE15requestSyncTimeEv:
 2327              		.fnstart
 2328              	.LFB495:
 411:ROSSerial/ros/node_handle.h ****   {
 2329              		.loc 7 411 0
 2330              		.cfi_startproc
 2331              		@ args = 0, pretend = 0, frame = 40
 2332              		@ frame_needed = 0, uses_anonymous_args = 0
 2333              	.LVL283:
 2334 0000 70B5     		push	{r4, r5, r6, lr}
 2335              		.save {r4, r5, r6, lr}
 2336              	.LCFI22:
 2337              		.cfi_def_cfa_offset 16
 2338              		.cfi_offset 4, -16
 2339              		.cfi_offset 5, -12
 2340              		.cfi_offset 6, -8
 2341              		.cfi_offset 14, -4
 2342              		.pad #40
 2343 0002 8AB0     		sub	sp, sp, #40
 2344              	.LCFI23:
 2345              		.cfi_def_cfa_offset 56
 2346 0004 0546     		mov	r5, r0
 2347              	.LVL284:
 2348              	.LBB288:
 2349              	.LBB289:
  14:ROSSerial/std_msgs/Time.h ****   {
 2350              		.loc 1 14 0
 2351 0006 544B     		ldr	r3, .L139
 2352 0008 0793     		str	r3, [sp, #28]
 2353              	.LVL285:
 2354              	.LBB290:
 2355              	.LBB291:
 2356              	.LBB292:
 2357              		.file 9 "ROSSerial/ros/time.h"
   1:ROSSerial/ros/time.h **** /*
   2:ROSSerial/ros/time.h ****  * Software License Agreement (BSD License)
   3:ROSSerial/ros/time.h ****  *
   4:ROSSerial/ros/time.h ****  * Copyright (c) 2011, Willow Garage, Inc.
   5:ROSSerial/ros/time.h ****  * All rights reserved.
   6:ROSSerial/ros/time.h ****  *
   7:ROSSerial/ros/time.h ****  * Redistribution and use in source and binary forms, with or without
   8:ROSSerial/ros/time.h ****  * modification, are permitted provided that the following conditions
   9:ROSSerial/ros/time.h ****  * are met:
  10:ROSSerial/ros/time.h ****  *
  11:ROSSerial/ros/time.h ****  *  * Redistributions of source code must retain the above copyright
  12:ROSSerial/ros/time.h ****  *    notice, this list of conditions and the following disclaimer.
  13:ROSSerial/ros/time.h ****  *  * Redistributions in binary form must reproduce the above
  14:ROSSerial/ros/time.h ****  *    copyright notice, this list of conditions and the following
ARM GAS  /var/folders/l3/4y5292px21b4835bsnjwqc7w009kq1/T//ccaF8PhA.s 			page 67


  15:ROSSerial/ros/time.h ****  *    disclaimer in the documentation and/or other materials provided
  16:ROSSerial/ros/time.h ****  *    with the distribution.
  17:ROSSerial/ros/time.h ****  *  * Neither the name of Willow Garage, Inc. nor the names of its
  18:ROSSerial/ros/time.h ****  *    contributors may be used to endorse or promote prducts derived
  19:ROSSerial/ros/time.h ****  *    from this software without specific prior written permission.
  20:ROSSerial/ros/time.h ****  *
  21:ROSSerial/ros/time.h ****  * THIS SOFTWARE IS PROVIDED BY THE COPYRIGHT HOLDERS AND CONTRIBUTORS
  22:ROSSerial/ros/time.h ****  * "AS IS" AND ANY EXPRESS OR IMPLIED WARRANTIES, INCLUDING, BUT NOT
  23:ROSSerial/ros/time.h ****  * LIMITED TO, THE IMPLIED WARRANTIES OF MERCHANTABILITY AND FITNESS
  24:ROSSerial/ros/time.h ****  * FOR A PARTICULAR PURPOSE ARE DISCLAIMED. IN NO EVENT SHALL THE
  25:ROSSerial/ros/time.h ****  * COPYRIGHT OWNER OR CONTRIBUTORS BE LIABLE FOR ANY DIRECT, INDIRECT,
  26:ROSSerial/ros/time.h ****  * INCIDENTAL, SPECIAL, EXEMPLARY, OR CONSEQUENTIAL DAMAGES (INCLUDING,
  27:ROSSerial/ros/time.h ****  * BUT NOT LIMITED TO, PROCUREMENT OF SUBSTITUTE GOODS OR SERVICES;
  28:ROSSerial/ros/time.h ****  * LOSS OF USE, DATA, OR PROFITS; OR BUSINESS INTERRUPTION) HOWEVER
  29:ROSSerial/ros/time.h ****  * CAUSED AND ON ANY THEORY OF LIABILITY, WHETHER IN CONTRACT, STRICT
  30:ROSSerial/ros/time.h ****  * LIABILITY, OR TORT (INCLUDING NEGLIGENCE OR OTHERWISE) ARISING IN
  31:ROSSerial/ros/time.h ****  * ANY WAY OUT OF THE USE OF THIS SOFTWARE, EVEN IF ADVISED OF THE
  32:ROSSerial/ros/time.h ****  * POSSIBILITY OF SUCH DAMAGE.
  33:ROSSerial/ros/time.h ****  */
  34:ROSSerial/ros/time.h **** 
  35:ROSSerial/ros/time.h **** #ifndef ROS_TIME_H_
  36:ROSSerial/ros/time.h **** #define ROS_TIME_H_
  37:ROSSerial/ros/time.h **** 
  38:ROSSerial/ros/time.h **** #include "ros/duration.h"
  39:ROSSerial/ros/time.h **** #include <math.h>
  40:ROSSerial/ros/time.h **** #include <stdint.h>
  41:ROSSerial/ros/time.h **** 
  42:ROSSerial/ros/time.h **** namespace ros
  43:ROSSerial/ros/time.h **** {
  44:ROSSerial/ros/time.h **** void normalizeSecNSec(uint32_t &sec, uint32_t &nsec);
  45:ROSSerial/ros/time.h **** 
  46:ROSSerial/ros/time.h **** class Time
  47:ROSSerial/ros/time.h **** {
  48:ROSSerial/ros/time.h **** public:
  49:ROSSerial/ros/time.h ****   uint32_t sec, nsec;
  50:ROSSerial/ros/time.h **** 
  51:ROSSerial/ros/time.h ****   Time() : sec(0), nsec(0) {}
 2358              		.loc 9 51 0
 2359 000a 0024     		movs	r4, #0
 2360 000c 0894     		str	r4, [sp, #32]
 2361 000e 0994     		str	r4, [sp, #36]
 2362              	.LVL286:
 2363              	.LBE292:
 2364              	.LBE291:
 2365              	.LBE290:
 2366              	.LBE289:
 2367              	.LBE288:
 2368              	.LBB293:
 2369              	.LBB294:
 597:ROSSerial/ros/node_handle.h **** 
 2370              		.loc 7 597 0
 2371 0010 1B68     		ldr	r3, [r3]
 2372 0012 00F21F21 		addw	r1, r0, #543
 2373 0016 07A8     		add	r0, sp, #28
 2374              	.LVL287:
 2375 0018 9847     		blx	r3
 2376              	.LVL288:
ARM GAS  /var/folders/l3/4y5292px21b4835bsnjwqc7w009kq1/T//ccaF8PhA.s 			page 68


 600:ROSSerial/ros/node_handle.h ****     message_out[1] = PROTOCOL_VER;
 2377              		.loc 7 600 0
 2378 001a FF23     		movs	r3, #255
 2379 001c 85F81832 		strb	r3, [r5, #536]
 601:ROSSerial/ros/node_handle.h ****     message_out[2] = (uint8_t)((uint16_t)l & 255);
 2380              		.loc 7 601 0
 2381 0020 FE23     		movs	r3, #254
 2382 0022 85F81932 		strb	r3, [r5, #537]
 602:ROSSerial/ros/node_handle.h ****     message_out[3] = (uint8_t)((uint16_t)l >> 8);
 2383              		.loc 7 602 0
 2384 0026 C3B2     		uxtb	r3, r0
 2385 0028 85F81A32 		strb	r3, [r5, #538]
 603:ROSSerial/ros/node_handle.h ****     message_out[4] = 255 - ((message_out[2] + message_out[3]) % 256);
 2386              		.loc 7 603 0
 2387 002c C0F30722 		ubfx	r2, r0, #8, #8
 2388 0030 85F81B22 		strb	r2, [r5, #539]
 604:ROSSerial/ros/node_handle.h ****     message_out[5] = (uint8_t)((int16_t)id & 255);
 2389              		.loc 7 604 0
 2390 0034 1344     		add	r3, r3, r2
 2391 0036 DBB2     		uxtb	r3, r3
 2392 0038 DB43     		mvns	r3, r3
 2393 003a 85F81C32 		strb	r3, [r5, #540]
 605:ROSSerial/ros/node_handle.h ****     message_out[6] = (uint8_t)((int16_t)id >> 8);
 2394              		.loc 7 605 0
 2395 003e 0A23     		movs	r3, #10
 2396 0040 85F81D32 		strb	r3, [r5, #541]
 606:ROSSerial/ros/node_handle.h **** 
 2397              		.loc 7 606 0
 2398 0044 85F81E42 		strb	r4, [r5, #542]
 2399              	.LVL289:
 2400              	.LBB295:
 610:ROSSerial/ros/node_handle.h ****       chk += message_out[i];
 2401              		.loc 7 610 0
 2402 0048 0522     		movs	r2, #5
 2403              	.LBE295:
 609:ROSSerial/ros/node_handle.h ****     for (int i = 5; i < l + 7; i++)
 2404              		.loc 7 609 0
 2405 004a 2346     		mov	r3, r4
 2406              	.LVL290:
 2407              	.L130:
 2408              	.LBB296:
 610:ROSSerial/ros/node_handle.h ****       chk += message_out[i];
 2409              		.loc 7 610 0
 2410 004c C41D     		adds	r4, r0, #7
 2411 004e 9442     		cmp	r4, r2
 2412 0050 05DD     		ble	.L129
 611:ROSSerial/ros/node_handle.h ****     l += 7;
 2413              		.loc 7 611 0
 2414 0052 A918     		adds	r1, r5, r2
 2415 0054 91F81812 		ldrb	r1, [r1, #536]	@ zero_extendqisi2
 2416 0058 0B44     		add	r3, r3, r1
 2417              	.LVL291:
 610:ROSSerial/ros/node_handle.h ****       chk += message_out[i];
 2418              		.loc 7 610 0
 2419 005a 0132     		adds	r2, r2, #1
 2420              	.LVL292:
 2421 005c F6E7     		b	.L130
ARM GAS  /var/folders/l3/4y5292px21b4835bsnjwqc7w009kq1/T//ccaF8PhA.s 			page 69


 2422              	.L129:
 2423              	.LVL293:
 2424              	.LBE296:
 613:ROSSerial/ros/node_handle.h ****     //printf("Sending message - %s, length %d\n",msg->getType(), l);
 2425              		.loc 7 613 0
 2426 005e 5A42     		rsbs	r2, r3, #0
 2427              	.LVL294:
 2428 0060 DBB2     		uxtb	r3, r3
 2429              	.LVL295:
 2430 0062 D2B2     		uxtb	r2, r2
 2431 0064 58BF     		it	pl
 2432 0066 5342     		rsbpl	r3, r2, #0
 2433 0068 00F10806 		add	r6, r0, #8
 2434              	.LVL296:
 2435 006c DB43     		mvns	r3, r3
 2436 006e 2C44     		add	r4, r4, r5
 2437 0070 84F81832 		strb	r3, [r4, #536]
 615:ROSSerial/ros/node_handle.h ****     {
 2438              		.loc 7 615 0
 2439 0074 B6F5007F 		cmp	r6, #512
 2440 0078 14DC     		bgt	.L131
 617:ROSSerial/ros/node_handle.h ****       return l;
 2441              		.loc 7 617 0
 2442 007a 05F50674 		add	r4, r5, #536
 2443              	.LVL297:
 2444              	.LBB297:
 2445              	.LBB298:
 121:ROSSerial/AT32hardware.h **** 		if(ret == HAL_TIMEOUT)
 2446              		.loc 8 121 0
 2447 007e 0A23     		movs	r3, #10
 2448 0080 B2B2     		uxth	r2, r6
 2449 0082 2146     		mov	r1, r4
 2450 0084 3548     		ldr	r0, .L139+4
 2451 0086 FFF7FEFF 		bl	HAL_UART_Transmit
 2452              	.LVL298:
 122:ROSSerial/AT32hardware.h **** 		{
 2453              		.loc 8 122 0
 2454 008a 0328     		cmp	r0, #3
 2455 008c 04D0     		beq	.L138
 2456              	.LVL299:
 2457              	.L132:
 2458              	.LBE298:
 2459              	.LBE297:
 2460              	.LBE294:
 2461              	.LBE293:
 2462              	.LBB317:
 2463              	.LBB318:
 125:ROSSerial/AT32hardware.h **** 		}
 126:ROSSerial/AT32hardware.h **** 		
 127:ROSSerial/AT32hardware.h **** 		// /* Try Interrupt - Has delayed byte problem. */
 128:ROSSerial/AT32hardware.h **** 		// if(HAL_UART_Transmit_IT(&huart2, (uint8_t *)data, length)!= HAL_OK)
 129:ROSSerial/AT32hardware.h ****   		// {
 130:ROSSerial/AT32hardware.h **** 		// 	HAL_Delay(10); 
 131:ROSSerial/AT32hardware.h **** 		// 	printf("delayed bytes %d\n",length); 
 132:ROSSerial/AT32hardware.h **** 		// }
 133:ROSSerial/AT32hardware.h **** 
 134:ROSSerial/AT32hardware.h **** 		// else
ARM GAS  /var/folders/l3/4y5292px21b4835bsnjwqc7w009kq1/T//ccaF8PhA.s 			page 70


 135:ROSSerial/AT32hardware.h **** 		// {
 136:ROSSerial/AT32hardware.h **** 		// 	printf("sent %d bytes over Interrupt\n",length);
 137:ROSSerial/AT32hardware.h **** 		// }
 138:ROSSerial/AT32hardware.h **** 		
 139:ROSSerial/AT32hardware.h **** 	}
 140:ROSSerial/AT32hardware.h **** 
 141:ROSSerial/AT32hardware.h **** 	/*
 142:ROSSerial/AT32hardware.h **** 	 * Method: time
 143:ROSSerial/AT32hardware.h **** 	 * ----------------------------
 144:ROSSerial/AT32hardware.h ****      *   Returns milliseconds since start of program
 145:ROSSerial/AT32hardware.h **** 	 *   parameters: none
 146:ROSSerial/AT32hardware.h **** 	 *   returns: time in milliseconds
 147:ROSSerial/AT32hardware.h **** 	 */
 148:ROSSerial/AT32hardware.h **** 	uint32_t time(void)
 149:ROSSerial/AT32hardware.h **** 	{
 150:ROSSerial/AT32hardware.h **** 		//return (uint32_t) xTaskGetTickCount();
 151:ROSSerial/AT32hardware.h **** 		return HAL_GetTick();
 2464              		.loc 8 151 0
 2465 008e FFF7FEFF 		bl	HAL_GetTick
 2466              	.LVL300:
 2467              	.LBE318:
 2468              	.LBE317:
 415:ROSSerial/ros/node_handle.h ****   }
 2469              		.loc 7 415 0
 2470 0092 A860     		str	r0, [r5, #8]
 416:ROSSerial/ros/node_handle.h **** 
 2471              		.loc 7 416 0
 2472 0094 0AB0     		add	sp, sp, #40
 2473              	.LCFI24:
 2474              		.cfi_remember_state
 2475              		.cfi_def_cfa_offset 16
 2476              		@ sp needed
 2477 0096 70BD     		pop	{r4, r5, r6, pc}
 2478              	.LVL301:
 2479              	.L138:
 2480              	.LCFI25:
 2481              		.cfi_restore_state
 2482              	.LBB319:
 2483              	.LBB316:
 2484              	.LBB300:
 2485              	.LBB299:
 124:ROSSerial/AT32hardware.h **** 		}
 2486              		.loc 8 124 0
 2487 0098 2246     		mov	r2, r4
 2488 009a 3146     		mov	r1, r6
 2489 009c 3048     		ldr	r0, .L139+8
 2490              	.LVL302:
 2491 009e FFF7FEFF 		bl	printf
 2492              	.LVL303:
 2493 00a2 F4E7     		b	.L132
 2494              	.LVL304:
 2495              	.L131:
 2496              	.LBE299:
 2497              	.LBE300:
 2498              	.LBB301:
 2499              	.LBB302:
 2500              	.LBB303:
ARM GAS  /var/folders/l3/4y5292px21b4835bsnjwqc7w009kq1/T//ccaF8PhA.s 			page 71


 2501              	.LBB304:
 2502              	.LBB305:
  13:ROSSerial/rosserial_msgs/Log.h ****   {
 2503              		.loc 3 13 0
 2504 00a4 2F4B     		ldr	r3, .L139+12
 2505 00a6 0193     		str	r3, [sp, #4]
 2506              	.LVL305:
 2507              	.LBE305:
 2508              	.LBE304:
 635:ROSSerial/ros/node_handle.h ****     l.msg = (char*)msg;
 2509              		.loc 7 635 0
 2510 00a8 0322     		movs	r2, #3
 2511 00aa 8DF80820 		strb	r2, [sp, #8]
 636:ROSSerial/ros/node_handle.h ****     publish1(rosserial_msgs::TopicInfo::ID_LOG, &l);
 2512              		.loc 7 636 0
 2513 00ae 2E4A     		ldr	r2, .L139+16
 2514 00b0 0392     		str	r2, [sp, #12]
 2515              	.LVL306:
 2516              	.LBB306:
 2517              	.LBB307:
 597:ROSSerial/ros/node_handle.h **** 
 2518              		.loc 7 597 0
 2519 00b2 1B68     		ldr	r3, [r3]
 2520 00b4 05F21F21 		addw	r1, r5, #543
 2521 00b8 01A8     		add	r0, sp, #4
 2522              	.LVL307:
 2523 00ba 9847     		blx	r3
 2524              	.LVL308:
 600:ROSSerial/ros/node_handle.h ****     message_out[1] = PROTOCOL_VER;
 2525              		.loc 7 600 0
 2526 00bc FF23     		movs	r3, #255
 2527 00be 85F81832 		strb	r3, [r5, #536]
 601:ROSSerial/ros/node_handle.h ****     message_out[2] = (uint8_t)((uint16_t)l & 255);
 2528              		.loc 7 601 0
 2529 00c2 FE23     		movs	r3, #254
 2530 00c4 85F81932 		strb	r3, [r5, #537]
 602:ROSSerial/ros/node_handle.h ****     message_out[3] = (uint8_t)((uint16_t)l >> 8);
 2531              		.loc 7 602 0
 2532 00c8 C3B2     		uxtb	r3, r0
 2533 00ca 85F81A32 		strb	r3, [r5, #538]
 603:ROSSerial/ros/node_handle.h ****     message_out[4] = 255 - ((message_out[2] + message_out[3]) % 256);
 2534              		.loc 7 603 0
 2535 00ce C0F30722 		ubfx	r2, r0, #8, #8
 2536 00d2 85F81B22 		strb	r2, [r5, #539]
 604:ROSSerial/ros/node_handle.h ****     message_out[5] = (uint8_t)((int16_t)id & 255);
 2537              		.loc 7 604 0
 2538 00d6 1344     		add	r3, r3, r2
 2539 00d8 DBB2     		uxtb	r3, r3
 2540 00da DB43     		mvns	r3, r3
 2541 00dc 85F81C32 		strb	r3, [r5, #540]
 605:ROSSerial/ros/node_handle.h ****     message_out[6] = (uint8_t)((int16_t)id >> 8);
 2542              		.loc 7 605 0
 2543 00e0 0723     		movs	r3, #7
 2544 00e2 85F81D32 		strb	r3, [r5, #541]
 606:ROSSerial/ros/node_handle.h **** 
 2545              		.loc 7 606 0
 2546 00e6 0023     		movs	r3, #0
ARM GAS  /var/folders/l3/4y5292px21b4835bsnjwqc7w009kq1/T//ccaF8PhA.s 			page 72


 2547 00e8 85F81E32 		strb	r3, [r5, #542]
 2548              	.LVL309:
 2549              	.LBB308:
 610:ROSSerial/ros/node_handle.h ****       chk += message_out[i];
 2550              		.loc 7 610 0
 2551 00ec 0522     		movs	r2, #5
 2552              	.LVL310:
 2553              	.L134:
 2554 00ee C11D     		adds	r1, r0, #7
 2555 00f0 9142     		cmp	r1, r2
 2556 00f2 05DD     		ble	.L133
 611:ROSSerial/ros/node_handle.h ****     l += 7;
 2557              		.loc 7 611 0
 2558 00f4 A918     		adds	r1, r5, r2
 2559 00f6 91F81812 		ldrb	r1, [r1, #536]	@ zero_extendqisi2
 2560 00fa 0B44     		add	r3, r3, r1
 2561              	.LVL311:
 610:ROSSerial/ros/node_handle.h ****       chk += message_out[i];
 2562              		.loc 7 610 0
 2563 00fc 0132     		adds	r2, r2, #1
 2564              	.LVL312:
 2565 00fe F6E7     		b	.L134
 2566              	.L133:
 2567              	.LVL313:
 2568              	.LBE308:
 613:ROSSerial/ros/node_handle.h ****     //printf("Sending message - %s, length %d\n",msg->getType(), l);
 2569              		.loc 7 613 0
 2570 0100 5A42     		rsbs	r2, r3, #0
 2571              	.LVL314:
 2572 0102 DBB2     		uxtb	r3, r3
 2573              	.LVL315:
 2574 0104 D2B2     		uxtb	r2, r2
 2575 0106 58BF     		it	pl
 2576 0108 5342     		rsbpl	r3, r2, #0
 2577 010a 00F10804 		add	r4, r0, #8
 2578              	.LVL316:
 2579 010e DB43     		mvns	r3, r3
 2580 0110 2944     		add	r1, r1, r5
 2581 0112 81F81832 		strb	r3, [r1, #536]
 615:ROSSerial/ros/node_handle.h ****     {
 2582              		.loc 7 615 0
 2583 0116 B4F5007F 		cmp	r4, #512
 2584 011a 0FDC     		bgt	.L135
 617:ROSSerial/ros/node_handle.h ****       return l;
 2585              		.loc 7 617 0
 2586 011c 05F50676 		add	r6, r5, #536
 2587              	.LVL317:
 2588              	.LBB309:
 2589              	.LBB310:
 121:ROSSerial/AT32hardware.h **** 		if(ret == HAL_TIMEOUT)
 2590              		.loc 8 121 0
 2591 0120 0A23     		movs	r3, #10
 2592 0122 A2B2     		uxth	r2, r4
 2593 0124 3146     		mov	r1, r6
 2594 0126 0D48     		ldr	r0, .L139+4
 2595 0128 FFF7FEFF 		bl	HAL_UART_Transmit
 2596              	.LVL318:
ARM GAS  /var/folders/l3/4y5292px21b4835bsnjwqc7w009kq1/T//ccaF8PhA.s 			page 73


 122:ROSSerial/AT32hardware.h **** 		{
 2597              		.loc 8 122 0
 2598 012c 0328     		cmp	r0, #3
 2599 012e AED1     		bne	.L132
 124:ROSSerial/AT32hardware.h **** 		}
 2600              		.loc 8 124 0
 2601 0130 3246     		mov	r2, r6
 2602 0132 2146     		mov	r1, r4
 2603 0134 0A48     		ldr	r0, .L139+8
 2604              	.LVL319:
 2605 0136 FFF7FEFF 		bl	printf
 2606              	.LVL320:
 2607 013a A8E7     		b	.L132
 2608              	.LVL321:
 2609              	.L135:
 2610              	.LBE310:
 2611              	.LBE309:
 2612              	.LBB311:
 2613              	.LBB312:
 2614              	.LBB313:
 2615              	.LBB314:
 2616              	.LBB315:
  13:ROSSerial/rosserial_msgs/Log.h ****   {
 2617              		.loc 3 13 0
 2618 013c 094B     		ldr	r3, .L139+12
 2619 013e 0493     		str	r3, [sp, #16]
 2620              	.LVL322:
 2621              	.LBE315:
 2622              	.LBE314:
 635:ROSSerial/ros/node_handle.h ****     l.msg = (char*)msg;
 2623              		.loc 7 635 0
 2624 0140 0323     		movs	r3, #3
 2625 0142 8DF81430 		strb	r3, [sp, #20]
 636:ROSSerial/ros/node_handle.h ****     publish1(rosserial_msgs::TopicInfo::ID_LOG, &l);
 2626              		.loc 7 636 0
 2627 0146 084B     		ldr	r3, .L139+16
 2628 0148 0693     		str	r3, [sp, #24]
 2629              		.loc 7 637 0
 2630 014a 04AA     		add	r2, sp, #16
 2631 014c 0721     		movs	r1, #7
 2632 014e 2846     		mov	r0, r5
 2633 0150 FFF7FEFF 		bl	_ZN3ros11NodeHandle_I13STM32HardwareLi5ELi5ELi512ELi512EE8publish1EiPNS_3MsgE
 2634              	.LVL323:
 2635 0154 9BE7     		b	.L132
 2636              	.L140:
 2637 0156 00BF     		.align	2
 2638              	.L139:
 2639 0158 08000000 		.word	_ZTVN8std_msgs4TimeE+8
 2640 015c 00000000 		.word	huart2
 2641 0160 00000000 		.word	.LC11
 2642 0164 08000000 		.word	_ZTVN14rosserial_msgs3LogE+8
 2643 0168 14000000 		.word	.LC12
 2644              	.LBE313:
 2645              	.LBE312:
 2646              	.LBE311:
 2647              	.LBE307:
 2648              	.LBE306:
ARM GAS  /var/folders/l3/4y5292px21b4835bsnjwqc7w009kq1/T//ccaF8PhA.s 			page 74


 2649              	.LBE303:
 2650              	.LBE302:
 2651              	.LBE301:
 2652              	.LBE316:
 2653              	.LBE319:
 2654              		.cfi_endproc
 2655              	.LFE495:
 2656              		.fnend
 2658              		.section	.text.ros_run,"ax",%progbits
 2659              		.align	1
 2660              		.global	ros_run
 2661              		.syntax unified
 2662              		.thumb
 2663              		.thumb_func
 2664              		.fpu fpv4-sp-d16
 2666              	ros_run:
 2667              		.fnstart
 2668              	.LFB481:
  35:./Src/ROS_main.cpp **** {
 2669              		.loc 6 35 0
 2670              		.cfi_startproc
 2671              		@ args = 0, pretend = 0, frame = 560
 2672              		@ frame_needed = 0, uses_anonymous_args = 0
 2673 0000 2DE9F041 		push	{r4, r5, r6, r7, r8, lr}
 2674              		.save {r4, r5, r6, r7, r8, lr}
 2675              	.LCFI26:
 2676              		.cfi_def_cfa_offset 24
 2677              		.cfi_offset 4, -24
 2678              		.cfi_offset 5, -20
 2679              		.cfi_offset 6, -16
 2680              		.cfi_offset 7, -12
 2681              		.cfi_offset 8, -8
 2682              		.cfi_offset 14, -4
 2683              		.pad #560
 2684 0004 ADF50C7D 		sub	sp, sp, #560
 2685              	.LCFI27:
 2686              		.cfi_def_cfa_offset 584
 2687              	.LVL324:
 2688              	.LBB430:
 2689              	.LBB431:
 2690              	.LBB432:
 2691              	.LBB433:
 2692              		.loc 8 151 0
 2693 0008 FFF7FEFF 		bl	HAL_GetTick
 2694              	.LVL325:
 2695 000c 0446     		mov	r4, r0
 2696              	.LVL326:
 2697              	.LBE433:
 2698              	.LBE432:
 252:ROSSerial/ros/node_handle.h ****     {
 2699              		.loc 7 252 0
 2700 000e BC4B     		ldr	r3, .L224
 2701 0010 D3F82435 		ldr	r3, [r3, #1316]
 2702 0014 C31A     		subs	r3, r0, r3
 2703 0016 42F6F822 		movw	r2, #11000
 2704 001a 9342     		cmp	r3, r2
 2705 001c 03D9     		bls	.L142
ARM GAS  /var/folders/l3/4y5292px21b4835bsnjwqc7w009kq1/T//ccaF8PhA.s 			page 75


 254:ROSSerial/ros/node_handle.h ****     }
 2706              		.loc 7 254 0
 2707 001e B84B     		ldr	r3, .L224
 2708 0020 0022     		movs	r2, #0
 2709 0022 83F81C25 		strb	r2, [r3, #1308]
 2710              	.L142:
 258:ROSSerial/ros/node_handle.h ****     {
 2711              		.loc 7 258 0
 2712 0026 B64B     		ldr	r3, .L224
 2713 0028 D3F80835 		ldr	r3, [r3, #1288]
 2714 002c 002B     		cmp	r3, #0
 2715 002e 4BD0     		beq	.L144
 260:ROSSerial/ros/node_handle.h ****       {
 2716              		.loc 7 260 0
 2717 0030 B34B     		ldr	r3, .L224
 2718 0032 D3F82835 		ldr	r3, [r3, #1320]
 2719 0036 9C42     		cmp	r4, r3
 2720 0038 46D9     		bls	.L144
 262:ROSSerial/ros/node_handle.h ****       }
 2721              		.loc 7 262 0
 2722 003a B14B     		ldr	r3, .L224
 2723 003c 0022     		movs	r2, #0
 2724 003e C3F80825 		str	r2, [r3, #1288]
 2725 0042 41E0     		b	.L144
 2726              	.LVL327:
 2727              	.L202:
 2728              	.LBB434:
 2729              	.LBB435:
 2730              	.LBB436:
  84:ROSSerial/AT32hardware.h **** 		}
 2731              		.loc 8 84 0
 2732 0044 591C     		adds	r1, r3, #1
 2733 0046 AF4A     		ldr	r2, .L224+4
 2734 0048 1170     		strb	r1, [r2]
 2735 004a AF4A     		ldr	r2, .L224+8
 2736 004c D15C     		ldrb	r1, [r2, r3]	@ zero_extendqisi2
 2737              	.LVL328:
 2738              	.L148:
 2739              	.LBE436:
 2740              	.LBE435:
 283:ROSSerial/ros/node_handle.h ****         break;
 2741              		.loc 7 283 0
 2742 004e 0029     		cmp	r1, #0
 2743 0050 C0F2BC82 		blt	.L149
 285:ROSSerial/ros/node_handle.h ****       if (mode_ == MODE_MESSAGE)          /* message data being recieved */
 2744              		.loc 7 285 0
 2745 0054 AA4B     		ldr	r3, .L224
 2746 0056 D3F81825 		ldr	r2, [r3, #1304]
 2747 005a 0A44     		add	r2, r2, r1
 2748 005c C3F81825 		str	r2, [r3, #1304]
 286:ROSSerial/ros/node_handle.h ****       {
 2749              		.loc 7 286 0
 2750 0060 D3F80835 		ldr	r3, [r3, #1288]
 2751 0064 072B     		cmp	r3, #7
 2752 0066 1ED0     		beq	.L201
 293:ROSSerial/ros/node_handle.h ****       {
 2753              		.loc 7 293 0
ARM GAS  /var/folders/l3/4y5292px21b4835bsnjwqc7w009kq1/T//ccaF8PhA.s 			page 76


 2754 0068 002B     		cmp	r3, #0
 2755 006a 4FD1     		bne	.L152
 295:ROSSerial/ros/node_handle.h ****         {
 2756              		.loc 7 295 0
 2757 006c FF29     		cmp	r1, #255
 2758 006e 41D1     		bne	.L153
 297:ROSSerial/ros/node_handle.h ****           last_msg_timeout_time = c_time + SERIAL_MSG_TIMEOUT;
 2759              		.loc 7 297 0
 2760 0070 A34A     		ldr	r2, .L224
 2761 0072 0133     		adds	r3, r3, #1
 2762 0074 C2F80835 		str	r3, [r2, #1288]
 298:ROSSerial/ros/node_handle.h ****         }
 2763              		.loc 7 298 0
 2764 0078 04F11403 		add	r3, r4, #20
 2765 007c C2F82835 		str	r3, [r2, #1320]
 2766 0080 22E0     		b	.L144
 2767              	.LVL329:
 2768              	.L203:
 2769              	.LBB439:
 2770              	.LBB437:
  88:ROSSerial/AT32hardware.h **** 			g_RxWritten = 0;
 2771              		.loc 8 88 0
 2772 0082 0023     		movs	r3, #0
 2773 0084 9F4A     		ldr	r2, .L224+4
 2774 0086 1370     		strb	r3, [r2]
  89:ROSSerial/AT32hardware.h **** 			__HAL_UART_ENABLE_IT(&huart2, UART_IT_TC);
 2775              		.loc 8 89 0
 2776 0088 A04A     		ldr	r2, .L224+12
 2777 008a 1370     		strb	r3, [r2]
  90:ROSSerial/AT32hardware.h ****       		HAL_UART_Receive_IT(&huart2, &byte, 1);
 2778              		.loc 8 90 0
 2779 008c A048     		ldr	r0, .L224+16
 2780 008e 0268     		ldr	r2, [r0]
 2781 0090 D368     		ldr	r3, [r2, #12]
 2782 0092 43F04003 		orr	r3, r3, #64
 2783 0096 D360     		str	r3, [r2, #12]
  91:ROSSerial/AT32hardware.h **** 		}
 2784              		.loc 8 91 0
 2785 0098 0122     		movs	r2, #1
 2786 009a 9E49     		ldr	r1, .L224+20
 2787 009c FFF7FEFF 		bl	HAL_UART_Receive_IT
 2788              	.LVL330:
  80:ROSSerial/AT32hardware.h **** 		
 2789              		.loc 8 80 0
 2790 00a0 4FF0FF31 		mov	r1, #-1
 2791 00a4 D3E7     		b	.L148
 2792              	.LVL331:
 2793              	.L201:
 2794              	.LBE437:
 2795              	.LBE439:
 288:ROSSerial/ros/node_handle.h ****         bytes_--;
 2796              		.loc 7 288 0
 2797 00a6 964B     		ldr	r3, .L224
 2798 00a8 D3F81425 		ldr	r2, [r3, #1300]
 2799 00ac 501C     		adds	r0, r2, #1
 2800 00ae C3F81405 		str	r0, [r3, #1300]
 2801 00b2 1A44     		add	r2, r2, r3
ARM GAS  /var/folders/l3/4y5292px21b4835bsnjwqc7w009kq1/T//ccaF8PhA.s 			page 77


 2802 00b4 1176     		strb	r1, [r2, #24]
 289:ROSSerial/ros/node_handle.h ****         if (bytes_ == 0)                 /* is message complete? if so, checksum */
 2803              		.loc 7 289 0
 2804 00b6 D3F80C25 		ldr	r2, [r3, #1292]
 2805 00ba 013A     		subs	r2, r2, #1
 2806 00bc C3F80C25 		str	r2, [r3, #1292]
 290:ROSSerial/ros/node_handle.h ****           mode_ = MODE_MSG_CHECKSUM;
 2807              		.loc 7 290 0
 2808 00c0 12B9     		cbnz	r2, .L144
 291:ROSSerial/ros/node_handle.h ****       }
 2809              		.loc 7 291 0
 2810 00c2 0822     		movs	r2, #8
 2811 00c4 C3F80825 		str	r2, [r3, #1288]
 2812              	.L144:
 270:ROSSerial/ros/node_handle.h ****       {
 2813              		.loc 7 270 0
 2814 00c8 8D4B     		ldr	r3, .L224
 2815 00ca 5B69     		ldr	r3, [r3, #20]
 2816 00cc 3BB1     		cbz	r3, .L145
 2817              	.LVL332:
 2818              	.LBB440:
 2819              	.LBB441:
 2820              		.loc 8 151 0
 2821 00ce FFF7FEFF 		bl	HAL_GetTick
 2822              	.LVL333:
 2823              	.LBE441:
 2824              	.LBE440:
 276:ROSSerial/ros/node_handle.h ****         {
 2825              		.loc 7 276 0
 2826 00d2 001B     		subs	r0, r0, r4
 2827 00d4 8A4B     		ldr	r3, .L224
 2828 00d6 5B69     		ldr	r3, [r3, #20]
 2829 00d8 9842     		cmp	r0, r3
 2830 00da 00F28382 		bhi	.L146
 2831              	.L145:
 2832              	.LVL334:
 2833              	.LBB442:
 2834              	.LBB438:
  82:ROSSerial/AT32hardware.h **** 		{
 2835              		.loc 8 82 0
 2836 00de 894B     		ldr	r3, .L224+4
 2837 00e0 1B78     		ldrb	r3, [r3]	@ zero_extendqisi2
 2838 00e2 8A4A     		ldr	r2, .L224+12
 2839 00e4 1278     		ldrb	r2, [r2]	@ zero_extendqisi2
 2840 00e6 9342     		cmp	r3, r2
 2841 00e8 ACD3     		bcc	.L202
  86:ROSSerial/AT32hardware.h **** 		{
 2842              		.loc 8 86 0
 2843 00ea 9342     		cmp	r3, r2
 2844 00ec C9D0     		beq	.L203
  80:ROSSerial/AT32hardware.h **** 		
 2845              		.loc 8 80 0
 2846 00ee 4FF0FF31 		mov	r1, #-1
 2847 00f2 ACE7     		b	.L148
 2848              	.LVL335:
 2849              	.L153:
 2850              	.LBE438:
ARM GAS  /var/folders/l3/4y5292px21b4835bsnjwqc7w009kq1/T//ccaF8PhA.s 			page 78


 2851              	.LBE442:
 2852              	.LBB443:
 2853              	.LBB444:
 2854              		.loc 8 151 0
 2855 00f4 FFF7FEFF 		bl	HAL_GetTick
 2856              	.LVL336:
 2857              	.LBE444:
 2858              	.LBE443:
 300:ROSSerial/ros/node_handle.h ****         {
 2859              		.loc 7 300 0
 2860 00f8 001B     		subs	r0, r0, r4
 2861 00fa 41F28833 		movw	r3, #5000
 2862 00fe 9842     		cmp	r0, r3
 2863 0100 E2D9     		bls	.L144
 303:ROSSerial/ros/node_handle.h ****           return SPIN_TIMEOUT;
 2864              		.loc 7 303 0
 2865 0102 7F4B     		ldr	r3, .L224
 2866 0104 0022     		movs	r2, #0
 2867 0106 83F81C25 		strb	r2, [r3, #1308]
 2868 010a 6BE2     		b	.L146
 2869              	.L152:
 307:ROSSerial/ros/node_handle.h ****       {
 2870              		.loc 7 307 0
 2871 010c 012B     		cmp	r3, #1
 2872 010e 3ED0     		beq	.L204
 320:ROSSerial/ros/node_handle.h ****       {
 2873              		.loc 7 320 0
 2874 0110 022B     		cmp	r3, #2
 2875 0112 00F0A880 		beq	.L205
 327:ROSSerial/ros/node_handle.h ****       {
 2876              		.loc 7 327 0
 2877 0116 032B     		cmp	r3, #3
 2878 0118 00F0B180 		beq	.L206
 332:ROSSerial/ros/node_handle.h ****       {
 2879              		.loc 7 332 0
 2880 011c 042B     		cmp	r3, #4
 2881 011e 00F0B980 		beq	.L207
 339:ROSSerial/ros/node_handle.h ****       {
 2882              		.loc 7 339 0
 2883 0122 052B     		cmp	r3, #5
 2884 0124 00F0C780 		beq	.L208
 345:ROSSerial/ros/node_handle.h ****       {
 2885              		.loc 7 345 0
 2886 0128 062B     		cmp	r3, #6
 2887 012a 00F0CD80 		beq	.L209
 352:ROSSerial/ros/node_handle.h ****       {
 2888              		.loc 7 352 0
 2889 012e 082B     		cmp	r3, #8
 2890 0130 CAD1     		bne	.L144
 354:ROSSerial/ros/node_handle.h ****         if ((checksum_ % 256) == 255)
 2891              		.loc 7 354 0
 2892 0132 734B     		ldr	r3, .L224
 2893 0134 0021     		movs	r1, #0
 2894 0136 C3F80815 		str	r1, [r3, #1288]
 355:ROSSerial/ros/node_handle.h ****         {
 2895              		.loc 7 355 0
 2896 013a 8B1A     		subs	r3, r1, r2
ARM GAS  /var/folders/l3/4y5292px21b4835bsnjwqc7w009kq1/T//ccaF8PhA.s 			page 79


 2897 013c D2B2     		uxtb	r2, r2
 2898 013e DBB2     		uxtb	r3, r3
 2899 0140 58BF     		it	pl
 2900 0142 5A42     		rsbpl	r2, r3, #0
 2901 0144 FF2A     		cmp	r2, #255
 2902 0146 BFD1     		bne	.L144
 357:ROSSerial/ros/node_handle.h ****           {
 2903              		.loc 7 357 0
 2904 0148 6D4B     		ldr	r3, .L224
 2905 014a D3F81055 		ldr	r5, [r3, #1296]
 2906 014e 002D     		cmp	r5, #0
 2907 0150 00F0CE80 		beq	.L210
 365:ROSSerial/ros/node_handle.h ****           {
 2908              		.loc 7 365 0
 2909 0154 0A2D     		cmp	r5, #10
 2910 0156 00F03A81 		beq	.L211
 369:ROSSerial/ros/node_handle.h ****           {
 2911              		.loc 7 369 0
 2912 015a 062D     		cmp	r5, #6
 2913 015c 00F07A81 		beq	.L212
 374:ROSSerial/ros/node_handle.h ****           {
 2914              		.loc 7 374 0
 2915 0160 0B2D     		cmp	r5, #11
 2916 0162 00F02382 		beq	.L213
 380:ROSSerial/ros/node_handle.h ****               s_CallBack = (void (*)(char*))subscribers2[topic_ - 100].callback;
 2917              		.loc 7 380 0
 2918 0166 643D     		subs	r5, r5, #100
 2919 0168 05EB8502 		add	r2, r5, r5, lsl #2
 2920 016c 644B     		ldr	r3, .L224
 2921 016e 03EB8203 		add	r3, r3, r2, lsl #2
 2922 0172 B3F8A434 		ldrh	r3, [r3, #1188]
 2923 0176 002B     		cmp	r3, #0
 2924 0178 A6D0     		beq	.L144
 381:ROSSerial/ros/node_handle.h ****               //printf("Calling callback with %id\n",subscribers2[topic_ - 100].topic_id);
 2925              		.loc 7 381 0
 2926 017a 6148     		ldr	r0, .L224
 2927 017c 00EB8205 		add	r5, r0, r2, lsl #2
 2928 0180 D5F8B434 		ldr	r3, [r5, #1204]
 2929 0184 644A     		ldr	r2, .L224+24
 2930 0186 1360     		str	r3, [r2]
 383:ROSSerial/ros/node_handle.h ****             }
 2931              		.loc 7 383 0
 2932 0188 1830     		adds	r0, r0, #24
 2933 018a 9847     		blx	r3
 2934              	.LVL337:
 2935 018c 9CE7     		b	.L144
 2936              	.L204:
 309:ROSSerial/ros/node_handle.h ****         {
 2937              		.loc 7 309 0
 2938 018e FE29     		cmp	r1, #254
 2939 0190 35D0     		beq	.L214
 315:ROSSerial/ros/node_handle.h ****           if (configured_ == false)
 2940              		.loc 7 315 0
 2941 0192 5B4B     		ldr	r3, .L224
 2942 0194 0022     		movs	r2, #0
 2943 0196 C3F80825 		str	r2, [r3, #1288]
 316:ROSSerial/ros/node_handle.h ****             requestSyncTime();  /* send a msg back showing our protocol version */
ARM GAS  /var/folders/l3/4y5292px21b4835bsnjwqc7w009kq1/T//ccaF8PhA.s 			page 80


 2944              		.loc 7 316 0
 2945 019a 93F81C35 		ldrb	r3, [r3, #1308]	@ zero_extendqisi2
 2946 019e 002B     		cmp	r3, #0
 2947 01a0 92D1     		bne	.L144
 2948              	.LVL338:
 2949              	.LBB445:
 2950              	.LBB446:
 2951              	.LBB447:
 2952              	.LBB448:
  14:ROSSerial/std_msgs/Time.h ****   {
 2953              		.loc 1 14 0
 2954 01a2 5E4B     		ldr	r3, .L224+28
 2955 01a4 0193     		str	r3, [sp, #4]
 2956              	.LVL339:
 2957              	.LBB449:
 2958              	.LBB450:
 2959              	.LBB451:
 2960              		.loc 9 51 0
 2961 01a6 1546     		mov	r5, r2
 2962 01a8 0292     		str	r2, [sp, #8]
 2963 01aa 0392     		str	r2, [sp, #12]
 2964              	.LVL340:
 2965              	.LBE451:
 2966              	.LBE450:
 2967              	.LBE449:
 2968              	.LBE448:
 2969              	.LBE447:
 2970              	.LBB452:
 2971              	.LBB453:
 597:ROSSerial/ros/node_handle.h **** 
 2972              		.loc 7 597 0
 2973 01ac 544E     		ldr	r6, .L224
 2974 01ae 1B68     		ldr	r3, [r3]
 2975 01b0 06F21F21 		addw	r1, r6, #543
 2976 01b4 01A8     		add	r0, sp, #4
 2977              	.LVL341:
 2978 01b6 9847     		blx	r3
 2979              	.LVL342:
 600:ROSSerial/ros/node_handle.h ****     message_out[1] = PROTOCOL_VER;
 2980              		.loc 7 600 0
 2981 01b8 FF23     		movs	r3, #255
 2982 01ba 86F81832 		strb	r3, [r6, #536]
 601:ROSSerial/ros/node_handle.h ****     message_out[2] = (uint8_t)((uint16_t)l & 255);
 2983              		.loc 7 601 0
 2984 01be FE23     		movs	r3, #254
 2985 01c0 86F81932 		strb	r3, [r6, #537]
 602:ROSSerial/ros/node_handle.h ****     message_out[3] = (uint8_t)((uint16_t)l >> 8);
 2986              		.loc 7 602 0
 2987 01c4 C3B2     		uxtb	r3, r0
 2988 01c6 86F81A32 		strb	r3, [r6, #538]
 603:ROSSerial/ros/node_handle.h ****     message_out[4] = 255 - ((message_out[2] + message_out[3]) % 256);
 2989              		.loc 7 603 0
 2990 01ca C0F30722 		ubfx	r2, r0, #8, #8
 2991 01ce 86F81B22 		strb	r2, [r6, #539]
 604:ROSSerial/ros/node_handle.h ****     message_out[5] = (uint8_t)((int16_t)id & 255);
 2992              		.loc 7 604 0
 2993 01d2 1344     		add	r3, r3, r2
ARM GAS  /var/folders/l3/4y5292px21b4835bsnjwqc7w009kq1/T//ccaF8PhA.s 			page 81


 2994 01d4 DBB2     		uxtb	r3, r3
 2995 01d6 DB43     		mvns	r3, r3
 2996 01d8 86F81C32 		strb	r3, [r6, #540]
 605:ROSSerial/ros/node_handle.h ****     message_out[6] = (uint8_t)((int16_t)id >> 8);
 2997              		.loc 7 605 0
 2998 01dc 0A23     		movs	r3, #10
 2999 01de 86F81D32 		strb	r3, [r6, #541]
 606:ROSSerial/ros/node_handle.h **** 
 3000              		.loc 7 606 0
 3001 01e2 86F81E52 		strb	r5, [r6, #542]
 3002              	.LVL343:
 3003              	.LBB454:
 610:ROSSerial/ros/node_handle.h ****       chk += message_out[i];
 3004              		.loc 7 610 0
 3005 01e6 0522     		movs	r2, #5
 3006              	.LBE454:
 609:ROSSerial/ros/node_handle.h ****     for (int i = 5; i < l + 7; i++)
 3007              		.loc 7 609 0
 3008 01e8 2B46     		mov	r3, r5
 3009              	.LVL344:
 3010              	.L157:
 3011              	.LBB455:
 610:ROSSerial/ros/node_handle.h ****       chk += message_out[i];
 3012              		.loc 7 610 0
 3013 01ea C11D     		adds	r1, r0, #7
 3014 01ec 9142     		cmp	r1, r2
 3015 01ee 0BDD     		ble	.L156
 611:ROSSerial/ros/node_handle.h ****     l += 7;
 3016              		.loc 7 611 0
 3017 01f0 4349     		ldr	r1, .L224
 3018 01f2 1144     		add	r1, r1, r2
 3019 01f4 91F81812 		ldrb	r1, [r1, #536]	@ zero_extendqisi2
 3020 01f8 0B44     		add	r3, r3, r1
 3021              	.LVL345:
 610:ROSSerial/ros/node_handle.h ****       chk += message_out[i];
 3022              		.loc 7 610 0
 3023 01fa 0132     		adds	r2, r2, #1
 3024              	.LVL346:
 3025 01fc F5E7     		b	.L157
 3026              	.LVL347:
 3027              	.L214:
 3028              	.LBE455:
 3029              	.LBE453:
 3030              	.LBE452:
 3031              	.LBE446:
 3032              	.LBE445:
 311:ROSSerial/ros/node_handle.h ****         }
 3033              		.loc 7 311 0
 3034 01fe 0133     		adds	r3, r3, #1
 3035 0200 3F4A     		ldr	r2, .L224
 3036 0202 C2F80835 		str	r3, [r2, #1288]
 3037 0206 5FE7     		b	.L144
 3038              	.LVL348:
 3039              	.L156:
 3040              	.LBB472:
 3041              	.LBB471:
 3042              	.LBB467:
ARM GAS  /var/folders/l3/4y5292px21b4835bsnjwqc7w009kq1/T//ccaF8PhA.s 			page 82


 3043              	.LBB465:
 613:ROSSerial/ros/node_handle.h ****     //printf("Sending message - %s, length %d\n",msg->getType(), l);
 3044              		.loc 7 613 0
 3045 0208 5A42     		rsbs	r2, r3, #0
 3046              	.LVL349:
 3047 020a DBB2     		uxtb	r3, r3
 3048              	.LVL350:
 3049 020c D2B2     		uxtb	r2, r2
 3050 020e 58BF     		it	pl
 3051 0210 5342     		rsbpl	r3, r2, #0
 3052 0212 00F10805 		add	r5, r0, #8
 3053              	.LVL351:
 3054 0216 DB43     		mvns	r3, r3
 3055 0218 394A     		ldr	r2, .L224
 3056 021a 1144     		add	r1, r1, r2
 3057 021c 81F81832 		strb	r3, [r1, #536]
 615:ROSSerial/ros/node_handle.h ****     {
 3058              		.loc 7 615 0
 3059 0220 B5F5007F 		cmp	r5, #512
 3060 0224 12DC     		bgt	.L158
 3061              	.LVL352:
 3062              	.LBB456:
 3063              	.LBB457:
 121:ROSSerial/AT32hardware.h **** 		if(ret == HAL_TIMEOUT)
 3064              		.loc 8 121 0
 3065 0226 0A23     		movs	r3, #10
 3066 0228 AAB2     		uxth	r2, r5
 3067 022a 3D49     		ldr	r1, .L224+32
 3068 022c 3848     		ldr	r0, .L224+16
 3069 022e FFF7FEFF 		bl	HAL_UART_Transmit
 3070              	.LVL353:
 122:ROSSerial/AT32hardware.h **** 		{
 3071              		.loc 8 122 0
 3072 0232 0328     		cmp	r0, #3
 3073 0234 04D0     		beq	.L215
 3074              	.LVL354:
 3075              	.L159:
 3076              	.LBE457:
 3077              	.LBE456:
 3078              	.LBE465:
 3079              	.LBE467:
 3080              	.LBB468:
 3081              	.LBB469:
 3082              		.loc 8 151 0
 3083 0236 FFF7FEFF 		bl	HAL_GetTick
 3084              	.LVL355:
 3085              	.LBE469:
 3086              	.LBE468:
 415:ROSSerial/ros/node_handle.h ****   }
 3087              		.loc 7 415 0
 3088 023a 314B     		ldr	r3, .L224
 3089 023c 9860     		str	r0, [r3, #8]
 3090 023e 43E7     		b	.L144
 3091              	.LVL356:
 3092              	.L215:
 3093              	.LBB470:
 3094              	.LBB466:
ARM GAS  /var/folders/l3/4y5292px21b4835bsnjwqc7w009kq1/T//ccaF8PhA.s 			page 83


 3095              	.LBB459:
 3096              	.LBB458:
 124:ROSSerial/AT32hardware.h **** 		}
 3097              		.loc 8 124 0
 3098 0240 374A     		ldr	r2, .L224+32
 3099 0242 2946     		mov	r1, r5
 3100 0244 3748     		ldr	r0, .L224+36
 3101              	.LVL357:
 3102 0246 FFF7FEFF 		bl	printf
 3103              	.LVL358:
 3104 024a F4E7     		b	.L159
 3105              	.LVL359:
 3106              	.L158:
 3107              	.LBE458:
 3108              	.LBE459:
 3109              	.LBB460:
 3110              	.LBB461:
 3111              	.LBB462:
 3112              	.LBB463:
 3113              	.LBB464:
  13:ROSSerial/rosserial_msgs/Log.h ****   {
 3114              		.loc 3 13 0
 3115 024c 364B     		ldr	r3, .L224+40
 3116 024e 0493     		str	r3, [sp, #16]
 3117              	.LVL360:
 3118              	.LBE464:
 3119              	.LBE463:
 635:ROSSerial/ros/node_handle.h ****     l.msg = (char*)msg;
 3120              		.loc 7 635 0
 3121 0250 0323     		movs	r3, #3
 3122 0252 8DF81430 		strb	r3, [sp, #20]
 636:ROSSerial/ros/node_handle.h ****     publish1(rosserial_msgs::TopicInfo::ID_LOG, &l);
 3123              		.loc 7 636 0
 3124 0256 354B     		ldr	r3, .L224+44
 3125 0258 0693     		str	r3, [sp, #24]
 3126              		.loc 7 637 0
 3127 025a 04AA     		add	r2, sp, #16
 3128 025c 0721     		movs	r1, #7
 3129 025e 2848     		ldr	r0, .L224
 3130 0260 FFF7FEFF 		bl	_ZN3ros11NodeHandle_I13STM32HardwareLi5ELi5ELi512ELi512EE8publish1EiPNS_3MsgE
 3131              	.LVL361:
 3132 0264 E7E7     		b	.L159
 3133              	.LVL362:
 3134              	.L205:
 3135              	.LBE462:
 3136              	.LBE461:
 3137              	.LBE460:
 3138              	.LBE466:
 3139              	.LBE470:
 3140              	.LBE471:
 3141              	.LBE472:
 322:ROSSerial/ros/node_handle.h ****         index_ = 0;
 3142              		.loc 7 322 0
 3143 0266 264A     		ldr	r2, .L224
 3144 0268 C2F80C15 		str	r1, [r2, #1292]
 323:ROSSerial/ros/node_handle.h ****         mode_++;
 3145              		.loc 7 323 0
ARM GAS  /var/folders/l3/4y5292px21b4835bsnjwqc7w009kq1/T//ccaF8PhA.s 			page 84


 3146 026c 0020     		movs	r0, #0
 3147 026e C2F81405 		str	r0, [r2, #1300]
 324:ROSSerial/ros/node_handle.h ****         checksum_ = data;               /* first byte for calculating size checksum */
 3148              		.loc 7 324 0
 3149 0272 0133     		adds	r3, r3, #1
 3150 0274 C2F80835 		str	r3, [r2, #1288]
 325:ROSSerial/ros/node_handle.h ****       }
 3151              		.loc 7 325 0
 3152 0278 C2F81815 		str	r1, [r2, #1304]
 3153 027c 24E7     		b	.L144
 3154              	.L206:
 329:ROSSerial/ros/node_handle.h ****         mode_++;
 3155              		.loc 7 329 0
 3156 027e 204A     		ldr	r2, .L224
 3157 0280 D2F80C05 		ldr	r0, [r2, #1292]
 3158 0284 00EB0121 		add	r1, r0, r1, lsl #8
 3159 0288 C2F80C15 		str	r1, [r2, #1292]
 330:ROSSerial/ros/node_handle.h ****       }
 3160              		.loc 7 330 0
 3161 028c 0133     		adds	r3, r3, #1
 3162 028e C2F80835 		str	r3, [r2, #1288]
 3163 0292 19E7     		b	.L144
 3164              	.L207:
 334:ROSSerial/ros/node_handle.h ****           mode_++;
 3165              		.loc 7 334 0
 3166 0294 5142     		rsbs	r1, r2, #0
 3167 0296 D2B2     		uxtb	r2, r2
 3168 0298 C9B2     		uxtb	r1, r1
 3169 029a 58BF     		it	pl
 3170 029c 4A42     		rsbpl	r2, r1, #0
 3171 029e FF2A     		cmp	r2, #255
 3172 02a0 04D0     		beq	.L216
 337:ROSSerial/ros/node_handle.h ****       }
 3173              		.loc 7 337 0
 3174 02a2 174B     		ldr	r3, .L224
 3175 02a4 0022     		movs	r2, #0
 3176 02a6 C3F80825 		str	r2, [r3, #1288]
 3177 02aa 0DE7     		b	.L144
 3178              	.L216:
 335:ROSSerial/ros/node_handle.h ****         else
 3179              		.loc 7 335 0
 3180 02ac 0133     		adds	r3, r3, #1
 3181 02ae 144A     		ldr	r2, .L224
 3182 02b0 C2F80835 		str	r3, [r2, #1288]
 3183 02b4 08E7     		b	.L144
 3184              	.L208:
 341:ROSSerial/ros/node_handle.h ****         mode_++;
 3185              		.loc 7 341 0
 3186 02b6 124A     		ldr	r2, .L224
 3187 02b8 C2F81015 		str	r1, [r2, #1296]
 342:ROSSerial/ros/node_handle.h ****         checksum_ = data;               /* first byte included in checksum */
 3188              		.loc 7 342 0
 3189 02bc 0133     		adds	r3, r3, #1
 3190 02be C2F80835 		str	r3, [r2, #1288]
 343:ROSSerial/ros/node_handle.h ****       }
 3191              		.loc 7 343 0
 3192 02c2 C2F81815 		str	r1, [r2, #1304]
ARM GAS  /var/folders/l3/4y5292px21b4835bsnjwqc7w009kq1/T//ccaF8PhA.s 			page 85


 3193 02c6 FFE6     		b	.L144
 3194              	.L209:
 347:ROSSerial/ros/node_handle.h ****         mode_ = MODE_MESSAGE;
 3195              		.loc 7 347 0
 3196 02c8 0D4B     		ldr	r3, .L224
 3197 02ca D3F81025 		ldr	r2, [r3, #1296]
 3198 02ce 02EB0122 		add	r2, r2, r1, lsl #8
 3199 02d2 C3F81025 		str	r2, [r3, #1296]
 348:ROSSerial/ros/node_handle.h ****         if (bytes_ == 0)
 3200              		.loc 7 348 0
 3201 02d6 0722     		movs	r2, #7
 3202 02d8 C3F80825 		str	r2, [r3, #1288]
 349:ROSSerial/ros/node_handle.h ****           mode_ = MODE_MSG_CHECKSUM;
 3203              		.loc 7 349 0
 3204 02dc D3F80C35 		ldr	r3, [r3, #1292]
 3205 02e0 002B     		cmp	r3, #0
 3206 02e2 7FF4F1AE 		bne	.L144
 350:ROSSerial/ros/node_handle.h ****       }
 3207              		.loc 7 350 0
 3208 02e6 064B     		ldr	r3, .L224
 3209 02e8 0822     		movs	r2, #8
 3210 02ea C3F80825 		str	r2, [r3, #1288]
 3211 02ee EBE6     		b	.L144
 3212              	.L210:
 359:ROSSerial/ros/node_handle.h ****             negotiateTopics();
 3213              		.loc 7 359 0
 3214 02f0 1846     		mov	r0, r3
 3215 02f2 FFF7FEFF 		bl	_ZN3ros11NodeHandle_I13STM32HardwareLi5ELi5ELi512ELi512EE15requestSyncTimeEv
 3216              	.LVL363:
 3217              	.LBB473:
 3218              	.LBB474:
 3219              	.LBB475:
 3220              	.LBB476:
  12:ROSSerial/rosserial_msgs/TopicInfo.h ****   {
 3221              		.loc 2 12 0
 3222 02f6 0E4B     		ldr	r3, .L224+48
 3223 02f8 0493     		str	r3, [sp, #16]
 3224              	.LVL364:
 3225              	.LBE476:
 3226              	.LBE475:
 558:ROSSerial/ros/node_handle.h ****     {
 3227              		.loc 7 558 0
 3228 02fa 2E46     		mov	r6, r5
 3229 02fc 1BE0     		b	.L169
 3230              	.L225:
 3231 02fe 00BF     		.align	2
 3232              	.L224:
 3233 0300 00000000 		.word	.LANCHOR1
 3234 0304 00000000 		.word	g_RxRead
 3235 0308 00000000 		.word	g_RxBuf
 3236 030c 00000000 		.word	g_RxWritten
 3237 0310 00000000 		.word	huart2
 3238 0314 00000000 		.word	byte
 3239 0318 00000000 		.word	_ZZN3ros11NodeHandle_I13STM32HardwareLi5ELi5ELi512ELi512EE9spinOnce1EvE10s_CallBack
 3240 031c 08000000 		.word	_ZTVN8std_msgs4TimeE+8
 3241 0320 18020000 		.word	.LANCHOR1+536
 3242 0324 00000000 		.word	.LC11
ARM GAS  /var/folders/l3/4y5292px21b4835bsnjwqc7w009kq1/T//ccaF8PhA.s 			page 86


 3243 0328 08000000 		.word	_ZTVN14rosserial_msgs3LogE+8
 3244 032c 14000000 		.word	.LC12
 3245 0330 08000000 		.word	_ZTVN14rosserial_msgs9TopicInfoE+8
 3246              	.LVL365:
 3247              	.L168:
 3248 0334 0136     		adds	r6, r6, #1
 3249              	.LVL366:
 3250              	.L169:
 3251 0336 042E     		cmp	r6, #4
 3252 0338 1FDC     		bgt	.L167
 560:ROSSerial/ros/node_handle.h ****       {
 3253              		.loc 7 560 0
 3254 033a 06EB8602 		add	r2, r6, r6, lsl #2
 3255 033e 9E4B     		ldr	r3, .L226
 3256 0340 03EB8203 		add	r3, r3, r2, lsl #2
 3257 0344 B3F82C34 		ldrh	r3, [r3, #1068]
 3258 0348 002B     		cmp	r3, #0
 3259 034a F3D0     		beq	.L168
 562:ROSSerial/ros/node_handle.h ****         ti.topic_name = publishers2[i].topic_name;
 3260              		.loc 7 562 0
 3261 034c ADF81430 		strh	r3, [sp, #20]	@ movhi
 563:ROSSerial/ros/node_handle.h ****         ti.message_type = publishers2[i].message_type;
 3262              		.loc 7 563 0
 3263 0350 9948     		ldr	r0, .L226
 3264 0352 00EB8203 		add	r3, r0, r2, lsl #2
 3265 0356 D3F83024 		ldr	r2, [r3, #1072]
 3266 035a 0692     		str	r2, [sp, #24]
 564:ROSSerial/ros/node_handle.h ****         ti.md5sum = publishers2[i].md5sum;
 3267              		.loc 7 564 0
 3268 035c D3F83824 		ldr	r2, [r3, #1080]
 3269 0360 0792     		str	r2, [sp, #28]
 565:ROSSerial/ros/node_handle.h ****         ti.buffer_size = OUTPUT_SIZE;
 3270              		.loc 7 565 0
 3271 0362 D3F83C34 		ldr	r3, [r3, #1084]
 3272 0366 0893     		str	r3, [sp, #32]
 566:ROSSerial/ros/node_handle.h ****         publish1(TopicInfo::ID_PUBLISHER, &ti);
 3273              		.loc 7 566 0
 3274 0368 4FF40073 		mov	r3, #512
 3275 036c 0993     		str	r3, [sp, #36]
 567:ROSSerial/ros/node_handle.h ****       }
 3276              		.loc 7 567 0
 3277 036e 04AA     		add	r2, sp, #16
 3278 0370 0021     		movs	r1, #0
 3279 0372 FFF7FEFF 		bl	_ZN3ros11NodeHandle_I13STM32HardwareLi5ELi5ELi512ELi512EE8publish1EiPNS_3MsgE
 3280              	.LVL367:
 3281 0376 DDE7     		b	.L168
 3282              	.LVL368:
 3283              	.L171:
 570:ROSSerial/ros/node_handle.h ****     {
 3284              		.loc 7 570 0
 3285 0378 0135     		adds	r5, r5, #1
 3286              	.LVL369:
 3287              	.L167:
 3288 037a 042D     		cmp	r5, #4
 3289 037c 1EDC     		bgt	.L170
 572:ROSSerial/ros/node_handle.h ****       {
 3290              		.loc 7 572 0
ARM GAS  /var/folders/l3/4y5292px21b4835bsnjwqc7w009kq1/T//ccaF8PhA.s 			page 87


 3291 037e 05EB8502 		add	r2, r5, r5, lsl #2
 3292 0382 8D4B     		ldr	r3, .L226
 3293 0384 03EB8203 		add	r3, r3, r2, lsl #2
 3294 0388 B3F8A434 		ldrh	r3, [r3, #1188]
 3295 038c 002B     		cmp	r3, #0
 3296 038e F3D0     		beq	.L171
 574:ROSSerial/ros/node_handle.h ****         ti.topic_name = subscribers2[i].topic_name;
 3297              		.loc 7 574 0
 3298 0390 ADF81430 		strh	r3, [sp, #20]	@ movhi
 575:ROSSerial/ros/node_handle.h ****         ti.message_type = subscribers2[i].message_type;
 3299              		.loc 7 575 0
 3300 0394 8848     		ldr	r0, .L226
 3301 0396 00EB8203 		add	r3, r0, r2, lsl #2
 3302 039a D3F8A824 		ldr	r2, [r3, #1192]
 3303 039e 0692     		str	r2, [sp, #24]
 576:ROSSerial/ros/node_handle.h ****         ti.md5sum = subscribers2[i].md5sum;
 3304              		.loc 7 576 0
 3305 03a0 D3F8AC24 		ldr	r2, [r3, #1196]
 3306 03a4 0792     		str	r2, [sp, #28]
 577:ROSSerial/ros/node_handle.h ****         ti.buffer_size = INPUT_SIZE;
 3307              		.loc 7 577 0
 3308 03a6 D3F8B034 		ldr	r3, [r3, #1200]
 3309 03aa 0893     		str	r3, [sp, #32]
 578:ROSSerial/ros/node_handle.h ****         publish1(rosserial_msgs::TopicInfo::ID_SUBSCRIBER, &ti);
 3310              		.loc 7 578 0
 3311 03ac 4FF40073 		mov	r3, #512
 3312 03b0 0993     		str	r3, [sp, #36]
 579:ROSSerial/ros/node_handle.h ****       }
 3313              		.loc 7 579 0
 3314 03b2 04AA     		add	r2, sp, #16
 3315 03b4 0121     		movs	r1, #1
 3316 03b6 FFF7FEFF 		bl	_ZN3ros11NodeHandle_I13STM32HardwareLi5ELi5ELi512ELi512EE8publish1EiPNS_3MsgE
 3317              	.LVL370:
 3318 03ba DDE7     		b	.L171
 3319              	.L170:
 582:ROSSerial/ros/node_handle.h ****   }
 3320              		.loc 7 582 0
 3321 03bc 7E4B     		ldr	r3, .L226
 3322 03be 0122     		movs	r2, #1
 3323 03c0 83F81C25 		strb	r2, [r3, #1308]
 3324              	.LVL371:
 3325              	.LBE474:
 3326              	.LBE473:
 361:ROSSerial/ros/node_handle.h ****             last_sync_receive_time = c_time;
 3327              		.loc 7 361 0
 3328 03c4 C3F82045 		str	r4, [r3, #1312]
 362:ROSSerial/ros/node_handle.h ****             return SPIN_ERR;
 3329              		.loc 7 362 0
 3330 03c8 C3F82445 		str	r4, [r3, #1316]
 3331 03cc 0AE1     		b	.L146
 3332              	.L211:
 3333              	.LVL372:
 3334              	.LBB477:
 3335              	.LBB478:
 3336              	.LBB479:
 3337              	.LBB480:
 3338              		.loc 8 151 0
ARM GAS  /var/folders/l3/4y5292px21b4835bsnjwqc7w009kq1/T//ccaF8PhA.s 			page 88


 3339 03ce FFF7FEFF 		bl	HAL_GetTick
 3340              	.LVL373:
 3341              	.LBE480:
 3342              	.LBE479:
 421:ROSSerial/ros/node_handle.h **** 
 3343              		.loc 7 421 0
 3344 03d2 794D     		ldr	r5, .L226
 3345 03d4 AB68     		ldr	r3, [r5, #8]
 3346 03d6 C01A     		subs	r0, r0, r3
 3347              	.LVL374:
 3348              	.LBB481:
 3349              	.LBB482:
  38:ROSSerial/std_msgs/Time.h ****       this->data.sec |= ((uint32_t) (*(inbuffer + offset + 1))) << (8 * 1);
 3350              		.loc 1 38 0
 3351 03d8 2B7E     		ldrb	r3, [r5, #24]	@ zero_extendqisi2
  39:ROSSerial/std_msgs/Time.h ****       this->data.sec |= ((uint32_t) (*(inbuffer + offset + 2))) << (8 * 2);
 3352              		.loc 1 39 0
 3353 03da 6A7E     		ldrb	r2, [r5, #25]	@ zero_extendqisi2
 3354 03dc 43EA0223 		orr	r3, r3, r2, lsl #8
  40:ROSSerial/std_msgs/Time.h ****       this->data.sec |= ((uint32_t) (*(inbuffer + offset + 3))) << (8 * 3);
 3355              		.loc 1 40 0
 3356 03e0 AA7E     		ldrb	r2, [r5, #26]	@ zero_extendqisi2
 3357 03e2 43EA0243 		orr	r3, r3, r2, lsl #16
  41:ROSSerial/std_msgs/Time.h ****       offset += sizeof(this->data.sec);
 3358              		.loc 1 41 0
 3359 03e6 EA7E     		ldrb	r2, [r5, #27]	@ zero_extendqisi2
 3360 03e8 43EA0263 		orr	r3, r3, r2, lsl #24
 3361              	.LVL375:
  43:ROSSerial/std_msgs/Time.h ****       this->data.nsec |= ((uint32_t) (*(inbuffer + offset + 1))) << (8 * 1);
 3362              		.loc 1 43 0
 3363 03ec 297F     		ldrb	r1, [r5, #28]	@ zero_extendqisi2
  44:ROSSerial/std_msgs/Time.h ****       this->data.nsec |= ((uint32_t) (*(inbuffer + offset + 2))) << (8 * 2);
 3364              		.loc 1 44 0
 3365 03ee 6A7F     		ldrb	r2, [r5, #29]	@ zero_extendqisi2
 3366 03f0 41EA0221 		orr	r1, r1, r2, lsl #8
  45:ROSSerial/std_msgs/Time.h ****       this->data.nsec |= ((uint32_t) (*(inbuffer + offset + 3))) << (8 * 3);
 3367              		.loc 1 45 0
 3368 03f4 AA7F     		ldrb	r2, [r5, #30]	@ zero_extendqisi2
 3369 03f6 41EA0241 		orr	r1, r1, r2, lsl #16
  46:ROSSerial/std_msgs/Time.h ****       offset += sizeof(this->data.nsec);
 3370              		.loc 1 46 0
 3371 03fa EA7F     		ldrb	r2, [r5, #31]	@ zero_extendqisi2
 3372 03fc 41EA0261 		orr	r1, r1, r2, lsl #24
 3373              	.LVL376:
 3374              	.LBE482:
 3375              	.LBE481:
 424:ROSSerial/ros/node_handle.h ****     t.data.nsec += (offset % 1000) * 1000000UL;
 3376              		.loc 7 424 0
 3377 0400 6E4E     		ldr	r6, .L226+4
 3378 0402 A6FB0072 		umull	r7, r2, r6, r0
 3379 0406 9209     		lsrs	r2, r2, #6
 3380 0408 1344     		add	r3, r3, r2
 3381 040a 0593     		str	r3, [sp, #20]
 425:ROSSerial/ros/node_handle.h **** 
 3382              		.loc 7 425 0
 3383 040c 4FF47A78 		mov	r8, #1000
 3384 0410 08FB1203 		mls	r3, r8, r2, r0
ARM GAS  /var/folders/l3/4y5292px21b4835bsnjwqc7w009kq1/T//ccaF8PhA.s 			page 89


 3385 0414 6A4F     		ldr	r7, .L226+8
 3386 0416 07FB0313 		mla	r3, r7, r3, r1
 3387 041a 0693     		str	r3, [sp, #24]
 3388              	.LVL377:
 3389              	.LBB483:
 3390              	.LBB484:
 3391              	.LBB485:
 3392              	.LBB486:
 3393              		.loc 8 151 0
 3394 041c FFF7FEFF 		bl	HAL_GetTick
 3395              	.LVL378:
 3396              	.LBE486:
 3397              	.LBE485:
 444:ROSSerial/ros/node_handle.h ****     nsec_offset = new_now.nsec - (ms % 1000) * 1000000UL + 1000000000UL;
 3398              		.loc 7 444 0
 3399 0420 059A     		ldr	r2, [sp, #20]
 3400 0422 A6FB0013 		umull	r1, r3, r6, r0
 3401 0426 9B09     		lsrs	r3, r3, #6
 3402 0428 D21A     		subs	r2, r2, r3
 3403 042a 013A     		subs	r2, r2, #1
 3404 042c EA60     		str	r2, [r5, #12]
 445:ROSSerial/ros/node_handle.h ****     normalizeSecNSec(sec_offset, nsec_offset);
 3405              		.loc 7 445 0
 3406 042e 069A     		ldr	r2, [sp, #24]
 3407 0430 08FB1303 		mls	r3, r8, r3, r0
 3408 0434 07FB1323 		mls	r3, r7, r3, r2
 3409 0438 624A     		ldr	r2, .L226+12
 3410 043a 1A44     		add	r2, r2, r3
 3411 043c 2946     		mov	r1, r5
 3412 043e 41F8102F 		str	r2, [r1, #16]!
 446:ROSSerial/ros/node_handle.h ****   }
 3413              		.loc 7 446 0
 3414 0442 05F10C00 		add	r0, r5, #12
 3415              	.LVL379:
 3416 0446 FFF7FEFF 		bl	_ZN3ros16normalizeSecNSecERmS0_
 3417              	.LVL380:
 3418              	.LBE484:
 3419              	.LBE483:
 3420              	.LBB487:
 3421              	.LBB488:
 3422              		.loc 8 151 0
 3423 044a FFF7FEFF 		bl	HAL_GetTick
 3424              	.LVL381:
 3425              	.LBE488:
 3426              	.LBE487:
 428:ROSSerial/ros/node_handle.h ****   }
 3427              		.loc 7 428 0
 3428 044e C5F82405 		str	r0, [r5, #1316]
 3429 0452 39E6     		b	.L144
 3430              	.LVL382:
 3431              	.L212:
 3432              	.LBE478:
 3433              	.LBE477:
 3434              	.LBB489:
 3435              	.LBB490:
 116:ROSSerial/rosserial_msgs/RequestParam.h ****       if(ints_lengthT > ints_length)
 3436              		.loc 4 116 0
ARM GAS  /var/folders/l3/4y5292px21b4835bsnjwqc7w009kq1/T//ccaF8PhA.s 			page 90


 3437 0454 584B     		ldr	r3, .L226
 3438 0456 1D7E     		ldrb	r5, [r3, #24]	@ zero_extendqisi2
 3439              	.LVL383:
 117:ROSSerial/rosserial_msgs/RequestParam.h ****         this->ints = (int32_t*)realloc(this->ints, ints_lengthT * sizeof(int32_t));
 3440              		.loc 4 117 0
 3441 0458 93F83435 		ldrb	r3, [r3, #1332]	@ zero_extendqisi2
 3442 045c 9D42     		cmp	r5, r3
 3443 045e 23D8     		bhi	.L217
 3444              	.L174:
 3445              	.LVL384:
 120:ROSSerial/rosserial_msgs/RequestParam.h ****       for( uint8_t i = 0; i < ints_length; i++){
 3446              		.loc 4 120 0
 3447 0460 554B     		ldr	r3, .L226
 3448 0462 83F83455 		strb	r5, [r3, #1332]
 3449              	.LVL385:
 3450              	.LBB491:
 121:ROSSerial/rosserial_msgs/RequestParam.h ****       union {
 3451              		.loc 4 121 0
 3452 0466 0022     		movs	r2, #0
 3453              	.LBE491:
 119:ROSSerial/rosserial_msgs/RequestParam.h ****       ints_length = ints_lengthT;
 3454              		.loc 4 119 0
 3455 0468 0425     		movs	r5, #4
 3456              	.LVL386:
 3457              	.L176:
 3458              	.LBB493:
 121:ROSSerial/rosserial_msgs/RequestParam.h ****       union {
 3459              		.loc 4 121 0
 3460 046a 534B     		ldr	r3, .L226
 3461 046c 93F83435 		ldrb	r3, [r3, #1332]	@ zero_extendqisi2
 3462 0470 9342     		cmp	r3, r2
