ARM GAS  /var/folders/l3/4y5292px21b4835bsnjwqc7w009kq1/T//ccaF8PhA.s 			page 1


   1              		.cpu cortex-m4
   2              		.eabi_attribute 27, 1
   3              		.eabi_attribute 20, 1
   4              		.eabi_attribute 21, 1
   5              		.eabi_attribute 23, 3
   6              		.eabi_attribute 24, 1
   7              		.eabi_attribute 25, 1
   8              		.eabi_attribute 26, 1
   9              		.eabi_attribute 30, 1
  10              		.eabi_attribute 34, 1
  11              		.eabi_attribute 18, 4
  12              		.file	"ROS_main.cpp"
  13              		.text
  14              	.Ltext0:
  15              		.cfi_sections	.debug_frame
  16              		.section	.text._ZNK8std_msgs4Time9serializeEPh,"axG",%progbits,_ZNK8std_msgs4Time9serializeEPh,com
  17              		.align	1
  18              		.weak	_ZNK8std_msgs4Time9serializeEPh
  19              		.syntax unified
  20              		.thumb
  21              		.thumb_func
  22              		.fpu fpv4-sp-d16
  24              	_ZNK8std_msgs4Time9serializeEPh:
  25              		.fnstart
  26              	.LFB378:
  27              		.file 1 "ROSSerial/std_msgs/Time.h"
   1:ROSSerial/std_msgs/Time.h **** #ifndef _ROS_std_msgs_Time_h
   2:ROSSerial/std_msgs/Time.h **** #define _ROS_std_msgs_Time_h
   3:ROSSerial/std_msgs/Time.h **** 
   4:ROSSerial/std_msgs/Time.h **** #include <stdint.h>
   5:ROSSerial/std_msgs/Time.h **** #include <string.h>
   6:ROSSerial/std_msgs/Time.h **** #include <stdlib.h>
   7:ROSSerial/std_msgs/Time.h **** #include "ros/msg.h"
   8:ROSSerial/std_msgs/Time.h **** #include "ros/time.h"
   9:ROSSerial/std_msgs/Time.h **** 
  10:ROSSerial/std_msgs/Time.h **** 
  11:ROSSerial/std_msgs/Time.h **** namespace std_msgs
  12:ROSSerial/std_msgs/Time.h **** {
  13:ROSSerial/std_msgs/Time.h **** 
  14:ROSSerial/std_msgs/Time.h ****   class Time : public ros::Msg
  15:ROSSerial/std_msgs/Time.h ****   {
  16:ROSSerial/std_msgs/Time.h ****     public:
  17:ROSSerial/std_msgs/Time.h ****       ros::Time data;
  18:ROSSerial/std_msgs/Time.h **** 
  19:ROSSerial/std_msgs/Time.h ****     virtual int serialize(unsigned char *outbuffer) const
  28              		.loc 1 19 0
  29              		.cfi_startproc
  30              		@ args = 0, pretend = 0, frame = 0
  31              		@ frame_needed = 0, uses_anonymous_args = 0
  32              		@ link register save eliminated.
  33              	.LVL0:
  20:ROSSerial/std_msgs/Time.h ****     {
  21:ROSSerial/std_msgs/Time.h ****       int offset = 0;
  22:ROSSerial/std_msgs/Time.h ****       *(outbuffer + offset + 0) = (this->data.sec >> (8 * 0)) & 0xFF;
  34              		.loc 1 22 0
  35 0000 4368     		ldr	r3, [r0, #4]
  36 0002 0B70     		strb	r3, [r1]
ARM GAS  /var/folders/l3/4y5292px21b4835bsnjwqc7w009kq1/T//ccaF8PhA.s 			page 2


  23:ROSSerial/std_msgs/Time.h ****       *(outbuffer + offset + 1) = (this->data.sec >> (8 * 1)) & 0xFF;
  37              		.loc 1 23 0
  38 0004 4368     		ldr	r3, [r0, #4]
  39 0006 1B0A     		lsrs	r3, r3, #8
  40 0008 4B70     		strb	r3, [r1, #1]
  24:ROSSerial/std_msgs/Time.h ****       *(outbuffer + offset + 2) = (this->data.sec >> (8 * 2)) & 0xFF;
  41              		.loc 1 24 0
  42 000a C388     		ldrh	r3, [r0, #6]
  43 000c 8B70     		strb	r3, [r1, #2]
  25:ROSSerial/std_msgs/Time.h ****       *(outbuffer + offset + 3) = (this->data.sec >> (8 * 3)) & 0xFF;
  44              		.loc 1 25 0
  45 000e C379     		ldrb	r3, [r0, #7]	@ zero_extendqisi2
  46 0010 CB70     		strb	r3, [r1, #3]
  47              	.LVL1:
  26:ROSSerial/std_msgs/Time.h ****       offset += sizeof(this->data.sec);
  27:ROSSerial/std_msgs/Time.h ****       *(outbuffer + offset + 0) = (this->data.nsec >> (8 * 0)) & 0xFF;
  48              		.loc 1 27 0
  49 0012 8368     		ldr	r3, [r0, #8]
  50 0014 0B71     		strb	r3, [r1, #4]
  28:ROSSerial/std_msgs/Time.h ****       *(outbuffer + offset + 1) = (this->data.nsec >> (8 * 1)) & 0xFF;
  51              		.loc 1 28 0
  52 0016 8368     		ldr	r3, [r0, #8]
  53 0018 1B0A     		lsrs	r3, r3, #8
  54 001a 4B71     		strb	r3, [r1, #5]
  29:ROSSerial/std_msgs/Time.h ****       *(outbuffer + offset + 2) = (this->data.nsec >> (8 * 2)) & 0xFF;
  55              		.loc 1 29 0
  56 001c 4389     		ldrh	r3, [r0, #10]
  57 001e 8B71     		strb	r3, [r1, #6]
  30:ROSSerial/std_msgs/Time.h ****       *(outbuffer + offset + 3) = (this->data.nsec >> (8 * 3)) & 0xFF;
  58              		.loc 1 30 0
  59 0020 C37A     		ldrb	r3, [r0, #11]	@ zero_extendqisi2
  60 0022 CB71     		strb	r3, [r1, #7]
  61              	.LVL2:
  31:ROSSerial/std_msgs/Time.h ****       offset += sizeof(this->data.nsec);
  32:ROSSerial/std_msgs/Time.h ****       return offset;
  33:ROSSerial/std_msgs/Time.h ****     }
  62              		.loc 1 33 0
  63 0024 0820     		movs	r0, #8
  64              	.LVL3:
  65 0026 7047     		bx	lr
  66              		.cfi_endproc
  67              	.LFE378:
  68              		.cantunwind
  69              		.fnend
  71              		.section	.text._ZN8std_msgs4Time11deserializeEPh,"axG",%progbits,_ZN8std_msgs4Time11deserializeEPh
  72              		.align	1
  73              		.weak	_ZN8std_msgs4Time11deserializeEPh
  74              		.syntax unified
  75              		.thumb
  76              		.thumb_func
  77              		.fpu fpv4-sp-d16
  79              	_ZN8std_msgs4Time11deserializeEPh:
  80              		.fnstart
  81              	.LFB379:
  34:ROSSerial/std_msgs/Time.h **** 
  35:ROSSerial/std_msgs/Time.h ****     virtual int deserialize(unsigned char *inbuffer)
  82              		.loc 1 35 0
ARM GAS  /var/folders/l3/4y5292px21b4835bsnjwqc7w009kq1/T//ccaF8PhA.s 			page 3


  83              		.cfi_startproc
  84              		@ args = 0, pretend = 0, frame = 0
  85              		@ frame_needed = 0, uses_anonymous_args = 0
  86              		@ link register save eliminated.
  87              	.LVL4:
  36:ROSSerial/std_msgs/Time.h ****     {
  37:ROSSerial/std_msgs/Time.h ****       int offset = 0;
  38:ROSSerial/std_msgs/Time.h ****       this->data.sec =  ((uint32_t) (*(inbuffer + offset)));
  88              		.loc 1 38 0
  89 0000 0B78     		ldrb	r3, [r1]	@ zero_extendqisi2
  90 0002 4360     		str	r3, [r0, #4]
  39:ROSSerial/std_msgs/Time.h ****       this->data.sec |= ((uint32_t) (*(inbuffer + offset + 1))) << (8 * 1);
  91              		.loc 1 39 0
  92 0004 4A78     		ldrb	r2, [r1, #1]	@ zero_extendqisi2
  93 0006 43EA0223 		orr	r3, r3, r2, lsl #8
  94 000a 4360     		str	r3, [r0, #4]
  40:ROSSerial/std_msgs/Time.h ****       this->data.sec |= ((uint32_t) (*(inbuffer + offset + 2))) << (8 * 2);
  95              		.loc 1 40 0
  96 000c 8A78     		ldrb	r2, [r1, #2]	@ zero_extendqisi2
  97 000e 43EA0243 		orr	r3, r3, r2, lsl #16
  98 0012 4360     		str	r3, [r0, #4]
  41:ROSSerial/std_msgs/Time.h ****       this->data.sec |= ((uint32_t) (*(inbuffer + offset + 3))) << (8 * 3);
  99              		.loc 1 41 0
 100 0014 CA78     		ldrb	r2, [r1, #3]	@ zero_extendqisi2
 101 0016 43EA0263 		orr	r3, r3, r2, lsl #24
 102 001a 4360     		str	r3, [r0, #4]
 103              	.LVL5:
  42:ROSSerial/std_msgs/Time.h ****       offset += sizeof(this->data.sec);
  43:ROSSerial/std_msgs/Time.h ****       this->data.nsec =  ((uint32_t) (*(inbuffer + offset)));
 104              		.loc 1 43 0
 105 001c 0B79     		ldrb	r3, [r1, #4]	@ zero_extendqisi2
 106 001e 8360     		str	r3, [r0, #8]
  44:ROSSerial/std_msgs/Time.h ****       this->data.nsec |= ((uint32_t) (*(inbuffer + offset + 1))) << (8 * 1);
 107              		.loc 1 44 0
 108 0020 4A79     		ldrb	r2, [r1, #5]	@ zero_extendqisi2
 109 0022 43EA0223 		orr	r3, r3, r2, lsl #8
 110 0026 8360     		str	r3, [r0, #8]
  45:ROSSerial/std_msgs/Time.h ****       this->data.nsec |= ((uint32_t) (*(inbuffer + offset + 2))) << (8 * 2);
 111              		.loc 1 45 0
 112 0028 8A79     		ldrb	r2, [r1, #6]	@ zero_extendqisi2
 113 002a 43EA0243 		orr	r3, r3, r2, lsl #16
 114 002e 8360     		str	r3, [r0, #8]
  46:ROSSerial/std_msgs/Time.h ****       this->data.nsec |= ((uint32_t) (*(inbuffer + offset + 3))) << (8 * 3);
 115              		.loc 1 46 0
 116 0030 CA79     		ldrb	r2, [r1, #7]	@ zero_extendqisi2
 117 0032 43EA0263 		orr	r3, r3, r2, lsl #24
 118 0036 8360     		str	r3, [r0, #8]
 119              	.LVL6:
  47:ROSSerial/std_msgs/Time.h ****       offset += sizeof(this->data.nsec);
  48:ROSSerial/std_msgs/Time.h ****      return offset;
  49:ROSSerial/std_msgs/Time.h ****     }
 120              		.loc 1 49 0
 121 0038 0820     		movs	r0, #8
 122              	.LVL7:
 123 003a 7047     		bx	lr
 124              		.cfi_endproc
 125              	.LFE379:
ARM GAS  /var/folders/l3/4y5292px21b4835bsnjwqc7w009kq1/T//ccaF8PhA.s 			page 4


 126              		.cantunwind
 127              		.fnend
 129              		.section	.text._ZN8std_msgs4Time7getTypeEv,"axG",%progbits,_ZN8std_msgs4Time7getTypeEv,comdat
 130              		.align	1
 131              		.weak	_ZN8std_msgs4Time7getTypeEv
 132              		.syntax unified
 133              		.thumb
 134              		.thumb_func
 135              		.fpu fpv4-sp-d16
 137              	_ZN8std_msgs4Time7getTypeEv:
 138              		.fnstart
 139              	.LFB380:
  50:ROSSerial/std_msgs/Time.h **** 
  51:ROSSerial/std_msgs/Time.h ****     const char * getType(){ return "std_msgs/Time"; };
 140              		.loc 1 51 0
 141              		.cfi_startproc
 142              		@ args = 0, pretend = 0, frame = 0
 143              		@ frame_needed = 0, uses_anonymous_args = 0
 144              		@ link register save eliminated.
 145              	.LVL8:
 146              		.loc 1 51 0
 147 0000 0048     		ldr	r0, .L4
 148              	.LVL9:
 149 0002 7047     		bx	lr
 150              	.L5:
 151              		.align	2
 152              	.L4:
 153 0004 00000000 		.word	.LC0
 154              		.cfi_endproc
 155              	.LFE380:
 156              		.cantunwind
 157              		.fnend
 159              		.section	.text._ZN8std_msgs4Time6getMD5Ev,"axG",%progbits,_ZN8std_msgs4Time6getMD5Ev,comdat
 160              		.align	1
 161              		.weak	_ZN8std_msgs4Time6getMD5Ev
 162              		.syntax unified
 163              		.thumb
 164              		.thumb_func
 165              		.fpu fpv4-sp-d16
 167              	_ZN8std_msgs4Time6getMD5Ev:
 168              		.fnstart
 169              	.LFB381:
  52:ROSSerial/std_msgs/Time.h ****     const char * getMD5(){ return "cd7166c74c552c311fbcc2fe5a7bc289"; };
 170              		.loc 1 52 0
 171              		.cfi_startproc
 172              		@ args = 0, pretend = 0, frame = 0
 173              		@ frame_needed = 0, uses_anonymous_args = 0
 174              		@ link register save eliminated.
 175              	.LVL10:
 176              		.loc 1 52 0
 177 0000 0048     		ldr	r0, .L7
 178              	.LVL11:
 179 0002 7047     		bx	lr
 180              	.L8:
 181              		.align	2
 182              	.L7:
 183 0004 00000000 		.word	.LC1
ARM GAS  /var/folders/l3/4y5292px21b4835bsnjwqc7w009kq1/T//ccaF8PhA.s 			page 5


 184              		.cfi_endproc
 185              	.LFE381:
 186              		.cantunwind
 187              		.fnend
 189              		.section	.text._ZN14rosserial_msgs9TopicInfo11deserializeEPh,"axG",%progbits,_ZN14rosserial_msgs9T
 190              		.align	1
 191              		.weak	_ZN14rosserial_msgs9TopicInfo11deserializeEPh
 192              		.syntax unified
 193              		.thumb
 194              		.thumb_func
 195              		.fpu fpv4-sp-d16
 197              	_ZN14rosserial_msgs9TopicInfo11deserializeEPh:
 198              		.fnstart
 199              	.LFB383:
 200              		.file 2 "ROSSerial/rosserial_msgs/TopicInfo.h"
   1:ROSSerial/rosserial_msgs/TopicInfo.h **** #ifndef _ROS_rosserial_msgs_TopicInfo_h
   2:ROSSerial/rosserial_msgs/TopicInfo.h **** #define _ROS_rosserial_msgs_TopicInfo_h
   3:ROSSerial/rosserial_msgs/TopicInfo.h **** 
   4:ROSSerial/rosserial_msgs/TopicInfo.h **** #include <stdint.h>
   5:ROSSerial/rosserial_msgs/TopicInfo.h **** #include <string.h>
   6:ROSSerial/rosserial_msgs/TopicInfo.h **** #include <stdlib.h>
   7:ROSSerial/rosserial_msgs/TopicInfo.h **** #include "ros/msg.h"
   8:ROSSerial/rosserial_msgs/TopicInfo.h **** 
   9:ROSSerial/rosserial_msgs/TopicInfo.h **** namespace rosserial_msgs
  10:ROSSerial/rosserial_msgs/TopicInfo.h **** {
  11:ROSSerial/rosserial_msgs/TopicInfo.h **** 
  12:ROSSerial/rosserial_msgs/TopicInfo.h ****   class TopicInfo : public ros::Msg
  13:ROSSerial/rosserial_msgs/TopicInfo.h ****   {
  14:ROSSerial/rosserial_msgs/TopicInfo.h ****     public:
  15:ROSSerial/rosserial_msgs/TopicInfo.h ****       uint16_t topic_id;
  16:ROSSerial/rosserial_msgs/TopicInfo.h ****       const char* topic_name;
  17:ROSSerial/rosserial_msgs/TopicInfo.h ****       const char* message_type;
  18:ROSSerial/rosserial_msgs/TopicInfo.h ****       const char* md5sum;
  19:ROSSerial/rosserial_msgs/TopicInfo.h ****       int32_t buffer_size;
  20:ROSSerial/rosserial_msgs/TopicInfo.h ****       enum { ID_PUBLISHER = 0 };
  21:ROSSerial/rosserial_msgs/TopicInfo.h ****       enum { ID_SUBSCRIBER = 1 };
  22:ROSSerial/rosserial_msgs/TopicInfo.h ****       enum { ID_SERVICE_SERVER = 2 };
  23:ROSSerial/rosserial_msgs/TopicInfo.h ****       enum { ID_SERVICE_CLIENT = 4 };
  24:ROSSerial/rosserial_msgs/TopicInfo.h ****       enum { ID_PARAMETER_REQUEST = 6 };
  25:ROSSerial/rosserial_msgs/TopicInfo.h ****       enum { ID_LOG = 7 };
  26:ROSSerial/rosserial_msgs/TopicInfo.h ****       enum { ID_TIME = 10 };
  27:ROSSerial/rosserial_msgs/TopicInfo.h ****       enum { ID_TX_STOP = 11 };
  28:ROSSerial/rosserial_msgs/TopicInfo.h **** 
  29:ROSSerial/rosserial_msgs/TopicInfo.h ****     virtual int serialize(unsigned char *outbuffer) const
  30:ROSSerial/rosserial_msgs/TopicInfo.h ****     {
  31:ROSSerial/rosserial_msgs/TopicInfo.h ****       int offset = 0;
  32:ROSSerial/rosserial_msgs/TopicInfo.h ****       *(outbuffer + offset + 0) = (this->topic_id >> (8 * 0)) & 0xFF;
  33:ROSSerial/rosserial_msgs/TopicInfo.h ****       *(outbuffer + offset + 1) = (this->topic_id >> (8 * 1)) & 0xFF;
  34:ROSSerial/rosserial_msgs/TopicInfo.h ****       offset += sizeof(this->topic_id);
  35:ROSSerial/rosserial_msgs/TopicInfo.h ****       uint32_t length_topic_name = strlen(this->topic_name);
  36:ROSSerial/rosserial_msgs/TopicInfo.h ****       memcpy(outbuffer + offset, &length_topic_name, sizeof(uint32_t));
  37:ROSSerial/rosserial_msgs/TopicInfo.h ****       offset += 4;
  38:ROSSerial/rosserial_msgs/TopicInfo.h ****       memcpy(outbuffer + offset, this->topic_name, length_topic_name);
  39:ROSSerial/rosserial_msgs/TopicInfo.h ****       offset += length_topic_name;
  40:ROSSerial/rosserial_msgs/TopicInfo.h ****       uint32_t length_message_type = strlen(this->message_type);
  41:ROSSerial/rosserial_msgs/TopicInfo.h ****       memcpy(outbuffer + offset, &length_message_type, sizeof(uint32_t));
  42:ROSSerial/rosserial_msgs/TopicInfo.h ****       offset += 4;
ARM GAS  /var/folders/l3/4y5292px21b4835bsnjwqc7w009kq1/T//ccaF8PhA.s 			page 6


  43:ROSSerial/rosserial_msgs/TopicInfo.h ****       memcpy(outbuffer + offset, this->message_type, length_message_type);
  44:ROSSerial/rosserial_msgs/TopicInfo.h ****       offset += length_message_type;
  45:ROSSerial/rosserial_msgs/TopicInfo.h ****       uint32_t length_md5sum = strlen(this->md5sum);
  46:ROSSerial/rosserial_msgs/TopicInfo.h ****       memcpy(outbuffer + offset, &length_md5sum, sizeof(uint32_t));
  47:ROSSerial/rosserial_msgs/TopicInfo.h ****       offset += 4;
  48:ROSSerial/rosserial_msgs/TopicInfo.h ****       memcpy(outbuffer + offset, this->md5sum, length_md5sum);
  49:ROSSerial/rosserial_msgs/TopicInfo.h ****       offset += length_md5sum;
  50:ROSSerial/rosserial_msgs/TopicInfo.h ****       union {
  51:ROSSerial/rosserial_msgs/TopicInfo.h ****         int32_t real;
  52:ROSSerial/rosserial_msgs/TopicInfo.h ****         uint32_t base;
  53:ROSSerial/rosserial_msgs/TopicInfo.h ****       } u_buffer_size;
  54:ROSSerial/rosserial_msgs/TopicInfo.h ****       u_buffer_size.real = this->buffer_size;
  55:ROSSerial/rosserial_msgs/TopicInfo.h ****       *(outbuffer + offset + 0) = (u_buffer_size.base >> (8 * 0)) & 0xFF;
  56:ROSSerial/rosserial_msgs/TopicInfo.h ****       *(outbuffer + offset + 1) = (u_buffer_size.base >> (8 * 1)) & 0xFF;
  57:ROSSerial/rosserial_msgs/TopicInfo.h ****       *(outbuffer + offset + 2) = (u_buffer_size.base >> (8 * 2)) & 0xFF;
  58:ROSSerial/rosserial_msgs/TopicInfo.h ****       *(outbuffer + offset + 3) = (u_buffer_size.base >> (8 * 3)) & 0xFF;
  59:ROSSerial/rosserial_msgs/TopicInfo.h ****       offset += sizeof(this->buffer_size);
  60:ROSSerial/rosserial_msgs/TopicInfo.h ****       return offset;
  61:ROSSerial/rosserial_msgs/TopicInfo.h ****     }
  62:ROSSerial/rosserial_msgs/TopicInfo.h **** 
  63:ROSSerial/rosserial_msgs/TopicInfo.h ****     virtual int deserialize(unsigned char *inbuffer)
 201              		.loc 2 63 0
 202              		.cfi_startproc
 203              		@ args = 0, pretend = 0, frame = 0
 204              		@ frame_needed = 0, uses_anonymous_args = 0
 205              		@ link register save eliminated.
 206              	.LVL12:
 207 0000 70B4     		push	{r4, r5, r6}
 208              	.LCFI0:
 209              		.cfi_def_cfa_offset 12
 210              		.cfi_offset 4, -12
 211              		.cfi_offset 5, -8
 212              		.cfi_offset 6, -4
 213              	.LVL13:
  64:ROSSerial/rosserial_msgs/TopicInfo.h ****     {
  65:ROSSerial/rosserial_msgs/TopicInfo.h ****       int offset = 0;
  66:ROSSerial/rosserial_msgs/TopicInfo.h ****       this->topic_id =  ((uint16_t) (*(inbuffer + offset)));
 214              		.loc 2 66 0
 215 0002 0B78     		ldrb	r3, [r1]	@ zero_extendqisi2
 216 0004 8380     		strh	r3, [r0, #4]	@ movhi
  67:ROSSerial/rosserial_msgs/TopicInfo.h ****       this->topic_id |= ((uint16_t) (*(inbuffer + offset + 1))) << (8 * 1);
 217              		.loc 2 67 0
 218 0006 4A78     		ldrb	r2, [r1, #1]	@ zero_extendqisi2
 219 0008 43EA0223 		orr	r3, r3, r2, lsl #8
 220 000c 8380     		strh	r3, [r0, #4]	@ movhi
 221              	.LVL14:
  68:ROSSerial/rosserial_msgs/TopicInfo.h ****       offset += sizeof(this->topic_id);
  69:ROSSerial/rosserial_msgs/TopicInfo.h ****       uint32_t length_topic_name;
  70:ROSSerial/rosserial_msgs/TopicInfo.h ****       memcpy(&length_topic_name, (inbuffer + offset), sizeof(uint32_t));
 222              		.loc 2 70 0
 223 000e D1F80250 		ldr	r5, [r1, #2]	@ unaligned
 224              	.LVL15:
 225              	.LBB100:
  71:ROSSerial/rosserial_msgs/TopicInfo.h ****       offset += 4;
  72:ROSSerial/rosserial_msgs/TopicInfo.h ****       for(unsigned int k= offset; k< offset+length_topic_name; ++k){
 226              		.loc 2 72 0
 227 0012 0623     		movs	r3, #6
ARM GAS  /var/folders/l3/4y5292px21b4835bsnjwqc7w009kq1/T//ccaF8PhA.s 			page 7


 228              	.LVL16:
 229              	.L11:
 230              		.loc 2 72 0 is_stmt 0 discriminator 3
 231 0014 AA1D     		adds	r2, r5, #6
 232 0016 9A42     		cmp	r2, r3
 233 0018 04D9     		bls	.L10
  73:ROSSerial/rosserial_msgs/TopicInfo.h ****           inbuffer[k-1]=inbuffer[k];
 234              		.loc 2 73 0 is_stmt 1 discriminator 2
 235 001a 5A1E     		subs	r2, r3, #1
 236 001c CC5C     		ldrb	r4, [r1, r3]	@ zero_extendqisi2
 237 001e 8C54     		strb	r4, [r1, r2]
  72:ROSSerial/rosserial_msgs/TopicInfo.h ****           inbuffer[k-1]=inbuffer[k];
 238              		.loc 2 72 0 discriminator 2
 239 0020 0133     		adds	r3, r3, #1
 240              	.LVL17:
 241 0022 F7E7     		b	.L11
 242              	.L10:
 243              	.LBE100:
  74:ROSSerial/rosserial_msgs/TopicInfo.h ****       }
  75:ROSSerial/rosserial_msgs/TopicInfo.h ****       inbuffer[offset+length_topic_name-1]=0;
 244              		.loc 2 75 0
 245 0024 0535     		adds	r5, r5, #5
 246              	.LVL18:
 247 0026 0023     		movs	r3, #0
 248              	.LVL19:
 249 0028 4B55     		strb	r3, [r1, r5]
  76:ROSSerial/rosserial_msgs/TopicInfo.h ****       this->topic_name = (char *)(inbuffer + offset-1);
 250              		.loc 2 76 0
 251 002a 4B1D     		adds	r3, r1, #5
 252 002c 8360     		str	r3, [r0, #8]
 253              	.LVL20:
  77:ROSSerial/rosserial_msgs/TopicInfo.h ****       offset += length_topic_name;
  78:ROSSerial/rosserial_msgs/TopicInfo.h ****       uint32_t length_message_type;
  79:ROSSerial/rosserial_msgs/TopicInfo.h ****       memcpy(&length_message_type, (inbuffer + offset), sizeof(uint32_t));
 254              		.loc 2 79 0
 255 002e 8E58     		ldr	r6, [r1, r2]	@ unaligned
 256              	.LVL21:
  80:ROSSerial/rosserial_msgs/TopicInfo.h ****       offset += 4;
 257              		.loc 2 80 0
 258 0030 141D     		adds	r4, r2, #4
 259              	.LVL22:
 260              	.LBB101:
  81:ROSSerial/rosserial_msgs/TopicInfo.h ****       for(unsigned int k= offset; k< offset+length_message_type; ++k){
 261              		.loc 2 81 0
 262 0032 2346     		mov	r3, r4
 263              	.LVL23:
 264              	.L13:
 265              		.loc 2 81 0 is_stmt 0 discriminator 3
 266 0034 3219     		adds	r2, r6, r4
 267 0036 9A42     		cmp	r2, r3
 268 0038 04D9     		bls	.L12
  82:ROSSerial/rosserial_msgs/TopicInfo.h ****           inbuffer[k-1]=inbuffer[k];
 269              		.loc 2 82 0 is_stmt 1 discriminator 2
 270 003a 5A1E     		subs	r2, r3, #1
 271 003c CD5C     		ldrb	r5, [r1, r3]	@ zero_extendqisi2
 272 003e 8D54     		strb	r5, [r1, r2]
  81:ROSSerial/rosserial_msgs/TopicInfo.h ****       for(unsigned int k= offset; k< offset+length_message_type; ++k){
ARM GAS  /var/folders/l3/4y5292px21b4835bsnjwqc7w009kq1/T//ccaF8PhA.s 			page 8


 273              		.loc 2 81 0 discriminator 2
 274 0040 0133     		adds	r3, r3, #1
 275              	.LVL24:
 276 0042 F7E7     		b	.L13
 277              	.L12:
 278              	.LBE101:
  83:ROSSerial/rosserial_msgs/TopicInfo.h ****       }
  84:ROSSerial/rosserial_msgs/TopicInfo.h ****       inbuffer[offset+length_message_type-1]=0;
 279              		.loc 2 84 0
 280 0044 531E     		subs	r3, r2, #1
 281              	.LVL25:
 282 0046 0025     		movs	r5, #0
 283 0048 CD54     		strb	r5, [r1, r3]
  85:ROSSerial/rosserial_msgs/TopicInfo.h ****       this->message_type = (char *)(inbuffer + offset-1);
 284              		.loc 2 85 0
 285 004a 013C     		subs	r4, r4, #1
 286              	.LVL26:
 287 004c 0C44     		add	r4, r4, r1
 288              	.LVL27:
 289 004e C460     		str	r4, [r0, #12]
 290              	.LVL28:
  86:ROSSerial/rosserial_msgs/TopicInfo.h ****       offset += length_message_type;
  87:ROSSerial/rosserial_msgs/TopicInfo.h ****       uint32_t length_md5sum;
  88:ROSSerial/rosserial_msgs/TopicInfo.h ****       memcpy(&length_md5sum, (inbuffer + offset), sizeof(uint32_t));
 291              		.loc 2 88 0
 292 0050 8E58     		ldr	r6, [r1, r2]	@ unaligned
 293              	.LVL29:
  89:ROSSerial/rosserial_msgs/TopicInfo.h ****       offset += 4;
 294              		.loc 2 89 0
 295 0052 0432     		adds	r2, r2, #4
 296              	.LVL30:
 297              	.LBB102:
  90:ROSSerial/rosserial_msgs/TopicInfo.h ****       for(unsigned int k= offset; k< offset+length_md5sum; ++k){
 298              		.loc 2 90 0
 299 0054 1346     		mov	r3, r2
 300              	.LVL31:
 301              	.L15:
 302              		.loc 2 90 0 is_stmt 0 discriminator 3
 303 0056 B418     		adds	r4, r6, r2
 304 0058 9C42     		cmp	r4, r3
 305 005a 04D9     		bls	.L14
  91:ROSSerial/rosserial_msgs/TopicInfo.h ****           inbuffer[k-1]=inbuffer[k];
 306              		.loc 2 91 0 is_stmt 1 discriminator 2
 307 005c 5C1E     		subs	r4, r3, #1
 308 005e CD5C     		ldrb	r5, [r1, r3]	@ zero_extendqisi2
 309 0060 0D55     		strb	r5, [r1, r4]
  90:ROSSerial/rosserial_msgs/TopicInfo.h ****       for(unsigned int k= offset; k< offset+length_md5sum; ++k){
 310              		.loc 2 90 0 discriminator 2
 311 0062 0133     		adds	r3, r3, #1
 312              	.LVL32:
 313 0064 F7E7     		b	.L15
 314              	.L14:
 315              	.LBE102:
  92:ROSSerial/rosserial_msgs/TopicInfo.h ****       }
  93:ROSSerial/rosserial_msgs/TopicInfo.h ****       inbuffer[offset+length_md5sum-1]=0;
 316              		.loc 2 93 0
 317 0066 631E     		subs	r3, r4, #1
ARM GAS  /var/folders/l3/4y5292px21b4835bsnjwqc7w009kq1/T//ccaF8PhA.s 			page 9


 318              	.LVL33:
 319 0068 0025     		movs	r5, #0
 320 006a CD54     		strb	r5, [r1, r3]
  94:ROSSerial/rosserial_msgs/TopicInfo.h ****       this->md5sum = (char *)(inbuffer + offset-1);
 321              		.loc 2 94 0
 322 006c 013A     		subs	r2, r2, #1
 323 006e 0A44     		add	r2, r2, r1
 324 0070 0261     		str	r2, [r0, #16]
 325              	.LVL34:
  95:ROSSerial/rosserial_msgs/TopicInfo.h ****       offset += length_md5sum;
  96:ROSSerial/rosserial_msgs/TopicInfo.h ****       union {
  97:ROSSerial/rosserial_msgs/TopicInfo.h ****         int32_t real;
  98:ROSSerial/rosserial_msgs/TopicInfo.h ****         uint32_t base;
  99:ROSSerial/rosserial_msgs/TopicInfo.h ****       } u_buffer_size;
 100:ROSSerial/rosserial_msgs/TopicInfo.h ****       u_buffer_size.base = 0;
 101:ROSSerial/rosserial_msgs/TopicInfo.h ****       u_buffer_size.base |= ((uint32_t) (*(inbuffer + offset + 0))) << (8 * 0);
 326              		.loc 2 101 0
 327 0072 0B5D     		ldrb	r3, [r1, r4]	@ zero_extendqisi2
 102:ROSSerial/rosserial_msgs/TopicInfo.h ****       u_buffer_size.base |= ((uint32_t) (*(inbuffer + offset + 1))) << (8 * 1);
 328              		.loc 2 102 0
 329 0074 621C     		adds	r2, r4, #1
 330 0076 8A5C     		ldrb	r2, [r1, r2]	@ zero_extendqisi2
 331 0078 43EA0223 		orr	r3, r3, r2, lsl #8
 103:ROSSerial/rosserial_msgs/TopicInfo.h ****       u_buffer_size.base |= ((uint32_t) (*(inbuffer + offset + 2))) << (8 * 2);
 332              		.loc 2 103 0
 333 007c A21C     		adds	r2, r4, #2
 334 007e 8A5C     		ldrb	r2, [r1, r2]	@ zero_extendqisi2
 335 0080 43EA0243 		orr	r3, r3, r2, lsl #16
 104:ROSSerial/rosserial_msgs/TopicInfo.h ****       u_buffer_size.base |= ((uint32_t) (*(inbuffer + offset + 3))) << (8 * 3);
 336              		.loc 2 104 0
 337 0084 E21C     		adds	r2, r4, #3
 338 0086 8A5C     		ldrb	r2, [r1, r2]	@ zero_extendqisi2
 339 0088 43EA0263 		orr	r3, r3, r2, lsl #24
 105:ROSSerial/rosserial_msgs/TopicInfo.h ****       this->buffer_size = u_buffer_size.real;
 340              		.loc 2 105 0
 341 008c 4361     		str	r3, [r0, #20]
 342              	.LVL35:
 106:ROSSerial/rosserial_msgs/TopicInfo.h ****       offset += sizeof(this->buffer_size);
 107:ROSSerial/rosserial_msgs/TopicInfo.h ****      return offset;
 108:ROSSerial/rosserial_msgs/TopicInfo.h ****     }
 343              		.loc 2 108 0
 344 008e 201D     		adds	r0, r4, #4
 345              	.LVL36:
 346 0090 70BC     		pop	{r4, r5, r6}
 347              	.LCFI1:
 348              		.cfi_restore 6
 349              		.cfi_restore 5
 350              		.cfi_restore 4
 351              		.cfi_def_cfa_offset 0
 352 0092 7047     		bx	lr
 353              		.cfi_endproc
 354              	.LFE383:
 355              		.cantunwind
 356              		.fnend
 358              		.section	.text._ZN14rosserial_msgs9TopicInfo7getTypeEv,"axG",%progbits,_ZN14rosserial_msgs9TopicIn
 359              		.align	1
 360              		.weak	_ZN14rosserial_msgs9TopicInfo7getTypeEv
ARM GAS  /var/folders/l3/4y5292px21b4835bsnjwqc7w009kq1/T//ccaF8PhA.s 			page 10


 361              		.syntax unified
 362              		.thumb
 363              		.thumb_func
 364              		.fpu fpv4-sp-d16
 366              	_ZN14rosserial_msgs9TopicInfo7getTypeEv:
 367              		.fnstart
 368              	.LFB384:
 109:ROSSerial/rosserial_msgs/TopicInfo.h **** 
 110:ROSSerial/rosserial_msgs/TopicInfo.h ****     const char * getType(){ return "rosserial_msgs/TopicInfo"; };
 369              		.loc 2 110 0
 370              		.cfi_startproc
 371              		@ args = 0, pretend = 0, frame = 0
 372              		@ frame_needed = 0, uses_anonymous_args = 0
 373              		@ link register save eliminated.
 374              	.LVL37:
 375              		.loc 2 110 0
 376 0000 0048     		ldr	r0, .L18
 377              	.LVL38:
 378 0002 7047     		bx	lr
 379              	.L19:
 380              		.align	2
 381              	.L18:
 382 0004 00000000 		.word	.LC2
 383              		.cfi_endproc
 384              	.LFE384:
 385              		.cantunwind
 386              		.fnend
 388              		.section	.text._ZN14rosserial_msgs9TopicInfo6getMD5Ev,"axG",%progbits,_ZN14rosserial_msgs9TopicInf
 389              		.align	1
 390              		.weak	_ZN14rosserial_msgs9TopicInfo6getMD5Ev
 391              		.syntax unified
 392              		.thumb
 393              		.thumb_func
 394              		.fpu fpv4-sp-d16
 396              	_ZN14rosserial_msgs9TopicInfo6getMD5Ev:
 397              		.fnstart
 398              	.LFB385:
 111:ROSSerial/rosserial_msgs/TopicInfo.h ****     const char * getMD5(){ return "0ad51f88fc44892f8c10684077646005"; };
 399              		.loc 2 111 0
 400              		.cfi_startproc
 401              		@ args = 0, pretend = 0, frame = 0
 402              		@ frame_needed = 0, uses_anonymous_args = 0
 403              		@ link register save eliminated.
 404              	.LVL39:
 405              		.loc 2 111 0
 406 0000 0048     		ldr	r0, .L21
 407              	.LVL40:
 408 0002 7047     		bx	lr
 409              	.L22:
 410              		.align	2
 411              	.L21:
 412 0004 00000000 		.word	.LC3
 413              		.cfi_endproc
 414              	.LFE385:
 415              		.cantunwind
 416              		.fnend
 418              		.section	.text._ZN14rosserial_msgs3Log11deserializeEPh,"axG",%progbits,_ZN14rosserial_msgs3Log11de
ARM GAS  /var/folders/l3/4y5292px21b4835bsnjwqc7w009kq1/T//ccaF8PhA.s 			page 11


 419              		.align	1
 420              		.weak	_ZN14rosserial_msgs3Log11deserializeEPh
 421              		.syntax unified
 422              		.thumb
 423              		.thumb_func
 424              		.fpu fpv4-sp-d16
 426              	_ZN14rosserial_msgs3Log11deserializeEPh:
 427              		.fnstart
 428              	.LFB387:
 429              		.file 3 "ROSSerial/rosserial_msgs/Log.h"
   1:ROSSerial/rosserial_msgs/Log.h **** #ifndef _ROS_rosserial_msgs_Log_h
   2:ROSSerial/rosserial_msgs/Log.h **** #define _ROS_rosserial_msgs_Log_h
   3:ROSSerial/rosserial_msgs/Log.h **** 
   4:ROSSerial/rosserial_msgs/Log.h **** #include <stdint.h>
   5:ROSSerial/rosserial_msgs/Log.h **** #include <string.h>
   6:ROSSerial/rosserial_msgs/Log.h **** #include <stdlib.h>
   7:ROSSerial/rosserial_msgs/Log.h **** #include "ros/msg.h"
   8:ROSSerial/rosserial_msgs/Log.h **** 
   9:ROSSerial/rosserial_msgs/Log.h **** 
  10:ROSSerial/rosserial_msgs/Log.h **** namespace rosserial_msgs
  11:ROSSerial/rosserial_msgs/Log.h **** {
  12:ROSSerial/rosserial_msgs/Log.h **** 
  13:ROSSerial/rosserial_msgs/Log.h ****   class Log : public ros::Msg
  14:ROSSerial/rosserial_msgs/Log.h ****   {
  15:ROSSerial/rosserial_msgs/Log.h ****     public:
  16:ROSSerial/rosserial_msgs/Log.h ****       uint8_t level;
  17:ROSSerial/rosserial_msgs/Log.h ****       const char* msg;
  18:ROSSerial/rosserial_msgs/Log.h ****       enum { ROSDEBUG = 0 };
  19:ROSSerial/rosserial_msgs/Log.h ****       enum { INFO = 1 };
  20:ROSSerial/rosserial_msgs/Log.h ****       enum { WARN = 2 };
  21:ROSSerial/rosserial_msgs/Log.h ****       enum { ERROR = 3 };
  22:ROSSerial/rosserial_msgs/Log.h ****       enum { FATAL = 4 };
  23:ROSSerial/rosserial_msgs/Log.h **** 
  24:ROSSerial/rosserial_msgs/Log.h ****     virtual int serialize(unsigned char *outbuffer) const
  25:ROSSerial/rosserial_msgs/Log.h ****     {
  26:ROSSerial/rosserial_msgs/Log.h ****       int offset = 0;
  27:ROSSerial/rosserial_msgs/Log.h ****       *(outbuffer + offset + 0) = (this->level >> (8 * 0)) & 0xFF;
  28:ROSSerial/rosserial_msgs/Log.h ****       offset += sizeof(this->level);
  29:ROSSerial/rosserial_msgs/Log.h ****       uint32_t length_msg = strlen(this->msg);
  30:ROSSerial/rosserial_msgs/Log.h ****       memcpy(outbuffer + offset, &length_msg, sizeof(uint32_t));
  31:ROSSerial/rosserial_msgs/Log.h ****       offset += 4;
  32:ROSSerial/rosserial_msgs/Log.h ****       memcpy(outbuffer + offset, this->msg, length_msg);
  33:ROSSerial/rosserial_msgs/Log.h ****       offset += length_msg;
  34:ROSSerial/rosserial_msgs/Log.h ****       return offset;
  35:ROSSerial/rosserial_msgs/Log.h ****     }
  36:ROSSerial/rosserial_msgs/Log.h **** 
  37:ROSSerial/rosserial_msgs/Log.h ****     virtual int deserialize(unsigned char *inbuffer)
 430              		.loc 3 37 0
 431              		.cfi_startproc
 432              		@ args = 0, pretend = 0, frame = 0
 433              		@ frame_needed = 0, uses_anonymous_args = 0
 434              		@ link register save eliminated.
 435              	.LVL41:
 436 0000 30B4     		push	{r4, r5}
 437              	.LCFI2:
 438              		.cfi_def_cfa_offset 8
 439              		.cfi_offset 4, -8
ARM GAS  /var/folders/l3/4y5292px21b4835bsnjwqc7w009kq1/T//ccaF8PhA.s 			page 12


 440              		.cfi_offset 5, -4
 441              	.LVL42:
  38:ROSSerial/rosserial_msgs/Log.h ****     {
  39:ROSSerial/rosserial_msgs/Log.h ****       int offset = 0;
  40:ROSSerial/rosserial_msgs/Log.h ****       this->level =  ((uint8_t) (*(inbuffer + offset)));
 442              		.loc 3 40 0
 443 0002 0B78     		ldrb	r3, [r1]	@ zero_extendqisi2
 444 0004 0371     		strb	r3, [r0, #4]
 445              	.LVL43:
  41:ROSSerial/rosserial_msgs/Log.h ****       offset += sizeof(this->level);
  42:ROSSerial/rosserial_msgs/Log.h ****       uint32_t length_msg;
  43:ROSSerial/rosserial_msgs/Log.h ****       memcpy(&length_msg, (inbuffer + offset), sizeof(uint32_t));
 446              		.loc 3 43 0
 447 0006 D1F80150 		ldr	r5, [r1, #1]	@ unaligned
 448              	.LVL44:
 449              	.LBB103:
  44:ROSSerial/rosserial_msgs/Log.h ****       offset += 4;
  45:ROSSerial/rosserial_msgs/Log.h ****       for(unsigned int k= offset; k< offset+length_msg; ++k){
 450              		.loc 3 45 0
 451 000a 0523     		movs	r3, #5
 452              	.LVL45:
 453              	.L25:
 454              		.loc 3 45 0 is_stmt 0 discriminator 3
 455 000c 6A1D     		adds	r2, r5, #5
 456 000e 9A42     		cmp	r2, r3
 457 0010 04D9     		bls	.L24
  46:ROSSerial/rosserial_msgs/Log.h ****           inbuffer[k-1]=inbuffer[k];
 458              		.loc 3 46 0 is_stmt 1 discriminator 2
 459 0012 5A1E     		subs	r2, r3, #1
 460 0014 CC5C     		ldrb	r4, [r1, r3]	@ zero_extendqisi2
 461 0016 8C54     		strb	r4, [r1, r2]
  45:ROSSerial/rosserial_msgs/Log.h ****           inbuffer[k-1]=inbuffer[k];
 462              		.loc 3 45 0 discriminator 2
 463 0018 0133     		adds	r3, r3, #1
 464              	.LVL46:
 465 001a F7E7     		b	.L25
 466              	.L24:
 467              	.LBE103:
  47:ROSSerial/rosserial_msgs/Log.h ****       }
  48:ROSSerial/rosserial_msgs/Log.h ****       inbuffer[offset+length_msg-1]=0;
 468              		.loc 3 48 0
 469 001c 0435     		adds	r5, r5, #4
 470              	.LVL47:
 471 001e 0023     		movs	r3, #0
 472              	.LVL48:
 473 0020 4B55     		strb	r3, [r1, r5]
  49:ROSSerial/rosserial_msgs/Log.h ****       this->msg = (char *)(inbuffer + offset-1);
 474              		.loc 3 49 0
 475 0022 0431     		adds	r1, r1, #4
 476              	.LVL49:
 477 0024 8160     		str	r1, [r0, #8]
 478              	.LVL50:
  50:ROSSerial/rosserial_msgs/Log.h ****       offset += length_msg;
  51:ROSSerial/rosserial_msgs/Log.h ****      return offset;
  52:ROSSerial/rosserial_msgs/Log.h ****     }
 479              		.loc 3 52 0
 480 0026 1046     		mov	r0, r2
ARM GAS  /var/folders/l3/4y5292px21b4835bsnjwqc7w009kq1/T//ccaF8PhA.s 			page 13


 481              	.LVL51:
 482 0028 30BC     		pop	{r4, r5}
 483              	.LCFI3:
 484              		.cfi_restore 5
 485              		.cfi_restore 4
 486              		.cfi_def_cfa_offset 0
 487 002a 7047     		bx	lr
 488              		.cfi_endproc
 489              	.LFE387:
 490              		.cantunwind
 491              		.fnend
 493              		.section	.text._ZN14rosserial_msgs3Log7getTypeEv,"axG",%progbits,_ZN14rosserial_msgs3Log7getTypeEv
 494              		.align	1
 495              		.weak	_ZN14rosserial_msgs3Log7getTypeEv
 496              		.syntax unified
 497              		.thumb
 498              		.thumb_func
 499              		.fpu fpv4-sp-d16
 501              	_ZN14rosserial_msgs3Log7getTypeEv:
 502              		.fnstart
 503              	.LFB388:
  53:ROSSerial/rosserial_msgs/Log.h **** 
  54:ROSSerial/rosserial_msgs/Log.h ****     const char * getType(){ return "rosserial_msgs/Log"; };
 504              		.loc 3 54 0
 505              		.cfi_startproc
 506              		@ args = 0, pretend = 0, frame = 0
 507              		@ frame_needed = 0, uses_anonymous_args = 0
 508              		@ link register save eliminated.
 509              	.LVL52:
 510              		.loc 3 54 0
 511 0000 0048     		ldr	r0, .L28
 512              	.LVL53:
 513 0002 7047     		bx	lr
 514              	.L29:
 515              		.align	2
 516              	.L28:
 517 0004 00000000 		.word	.LC4
 518              		.cfi_endproc
 519              	.LFE388:
 520              		.cantunwind
 521              		.fnend
 523              		.section	.text._ZN14rosserial_msgs3Log6getMD5Ev,"axG",%progbits,_ZN14rosserial_msgs3Log6getMD5Ev,c
 524              		.align	1
 525              		.weak	_ZN14rosserial_msgs3Log6getMD5Ev
 526              		.syntax unified
 527              		.thumb
 528              		.thumb_func
 529              		.fpu fpv4-sp-d16
 531              	_ZN14rosserial_msgs3Log6getMD5Ev:
 532              		.fnstart
 533              	.LFB389:
  55:ROSSerial/rosserial_msgs/Log.h ****     const char * getMD5(){ return "11abd731c25933261cd6183bd12d6295"; };
 534              		.loc 3 55 0
 535              		.cfi_startproc
 536              		@ args = 0, pretend = 0, frame = 0
 537              		@ frame_needed = 0, uses_anonymous_args = 0
 538              		@ link register save eliminated.
ARM GAS  /var/folders/l3/4y5292px21b4835bsnjwqc7w009kq1/T//ccaF8PhA.s 			page 14


 539              	.LVL54:
 540              		.loc 3 55 0
 541 0000 0048     		ldr	r0, .L31
 542              	.LVL55:
 543 0002 7047     		bx	lr
 544              	.L32:
 545              		.align	2
 546              	.L31:
 547 0004 00000000 		.word	.LC5
 548              		.cfi_endproc
 549              	.LFE389:
 550              		.cantunwind
 551              		.fnend
 553              		.section	.text._ZN14rosserial_msgs20RequestParamResponse7getTypeEv,"axG",%progbits,_ZN14rosserial_
 554              		.align	1
 555              		.weak	_ZN14rosserial_msgs20RequestParamResponse7getTypeEv
 556              		.syntax unified
 557              		.thumb
 558              		.thumb_func
 559              		.fpu fpv4-sp-d16
 561              	_ZN14rosserial_msgs20RequestParamResponse7getTypeEv:
 562              		.fnstart
 563              	.LFB396:
 564              		.file 4 "ROSSerial/rosserial_msgs/RequestParam.h"
   1:ROSSerial/rosserial_msgs/RequestParam.h **** #ifndef _ROS_SERVICE_RequestParam_h
   2:ROSSerial/rosserial_msgs/RequestParam.h **** #define _ROS_SERVICE_RequestParam_h
   3:ROSSerial/rosserial_msgs/RequestParam.h **** 
   4:ROSSerial/rosserial_msgs/RequestParam.h **** #include <stdint.h>
   5:ROSSerial/rosserial_msgs/RequestParam.h **** #include <string.h>
   6:ROSSerial/rosserial_msgs/RequestParam.h **** #include <stdlib.h>
   7:ROSSerial/rosserial_msgs/RequestParam.h **** #include "ros/msg.h"
   8:ROSSerial/rosserial_msgs/RequestParam.h **** 
   9:ROSSerial/rosserial_msgs/RequestParam.h **** 
  10:ROSSerial/rosserial_msgs/RequestParam.h **** namespace rosserial_msgs
  11:ROSSerial/rosserial_msgs/RequestParam.h **** {
  12:ROSSerial/rosserial_msgs/RequestParam.h **** 
  13:ROSSerial/rosserial_msgs/RequestParam.h **** static const char REQUESTPARAM[] = "rosserial_msgs/RequestParam";
  14:ROSSerial/rosserial_msgs/RequestParam.h **** 
  15:ROSSerial/rosserial_msgs/RequestParam.h ****   class RequestParamRequest : public ros::Msg
  16:ROSSerial/rosserial_msgs/RequestParam.h ****   {
  17:ROSSerial/rosserial_msgs/RequestParam.h ****     public:
  18:ROSSerial/rosserial_msgs/RequestParam.h ****       const char* name;
  19:ROSSerial/rosserial_msgs/RequestParam.h **** 
  20:ROSSerial/rosserial_msgs/RequestParam.h ****     virtual int serialize(unsigned char *outbuffer) const
  21:ROSSerial/rosserial_msgs/RequestParam.h ****     {
  22:ROSSerial/rosserial_msgs/RequestParam.h ****       int offset = 0;
  23:ROSSerial/rosserial_msgs/RequestParam.h ****       uint32_t length_name = strlen(this->name);
  24:ROSSerial/rosserial_msgs/RequestParam.h ****       memcpy(outbuffer + offset, &length_name, sizeof(uint32_t));
  25:ROSSerial/rosserial_msgs/RequestParam.h ****       offset += 4;
  26:ROSSerial/rosserial_msgs/RequestParam.h ****       memcpy(outbuffer + offset, this->name, length_name);
  27:ROSSerial/rosserial_msgs/RequestParam.h ****       offset += length_name;
  28:ROSSerial/rosserial_msgs/RequestParam.h ****       return offset;
  29:ROSSerial/rosserial_msgs/RequestParam.h ****     }
  30:ROSSerial/rosserial_msgs/RequestParam.h **** 
  31:ROSSerial/rosserial_msgs/RequestParam.h ****     virtual int deserialize(unsigned char *inbuffer)
  32:ROSSerial/rosserial_msgs/RequestParam.h ****     {
  33:ROSSerial/rosserial_msgs/RequestParam.h ****       int offset = 0;
ARM GAS  /var/folders/l3/4y5292px21b4835bsnjwqc7w009kq1/T//ccaF8PhA.s 			page 15


  34:ROSSerial/rosserial_msgs/RequestParam.h ****       uint32_t length_name;
  35:ROSSerial/rosserial_msgs/RequestParam.h ****       memcpy(&length_name, (inbuffer + offset), sizeof(uint32_t));
  36:ROSSerial/rosserial_msgs/RequestParam.h ****       offset += 4;
  37:ROSSerial/rosserial_msgs/RequestParam.h ****       for(unsigned int k= offset; k< offset+length_name; ++k){
  38:ROSSerial/rosserial_msgs/RequestParam.h ****           inbuffer[k-1]=inbuffer[k];
  39:ROSSerial/rosserial_msgs/RequestParam.h ****       }
  40:ROSSerial/rosserial_msgs/RequestParam.h ****       inbuffer[offset+length_name-1]=0;
  41:ROSSerial/rosserial_msgs/RequestParam.h ****       this->name = (char *)(inbuffer + offset-1);
  42:ROSSerial/rosserial_msgs/RequestParam.h ****       offset += length_name;
  43:ROSSerial/rosserial_msgs/RequestParam.h ****      return offset;
  44:ROSSerial/rosserial_msgs/RequestParam.h ****     }
  45:ROSSerial/rosserial_msgs/RequestParam.h **** 
  46:ROSSerial/rosserial_msgs/RequestParam.h ****     const char * getType(){ return REQUESTPARAM; };
  47:ROSSerial/rosserial_msgs/RequestParam.h ****     const char * getMD5(){ return "c1f3d28f1b044c871e6eff2e9fc3c667"; };
  48:ROSSerial/rosserial_msgs/RequestParam.h **** 
  49:ROSSerial/rosserial_msgs/RequestParam.h ****   };
  50:ROSSerial/rosserial_msgs/RequestParam.h **** 
  51:ROSSerial/rosserial_msgs/RequestParam.h ****   class RequestParamResponse : public ros::Msg
  52:ROSSerial/rosserial_msgs/RequestParam.h ****   {
  53:ROSSerial/rosserial_msgs/RequestParam.h ****     public:
  54:ROSSerial/rosserial_msgs/RequestParam.h ****       uint8_t ints_length;
  55:ROSSerial/rosserial_msgs/RequestParam.h ****       int32_t st_ints;
  56:ROSSerial/rosserial_msgs/RequestParam.h ****       int32_t * ints;
  57:ROSSerial/rosserial_msgs/RequestParam.h ****       uint8_t floats_length;
  58:ROSSerial/rosserial_msgs/RequestParam.h ****       float st_floats;
  59:ROSSerial/rosserial_msgs/RequestParam.h ****       float * floats;
  60:ROSSerial/rosserial_msgs/RequestParam.h ****       uint8_t strings_length;
  61:ROSSerial/rosserial_msgs/RequestParam.h ****       char* st_strings;
  62:ROSSerial/rosserial_msgs/RequestParam.h ****       char* * strings;
  63:ROSSerial/rosserial_msgs/RequestParam.h **** 
  64:ROSSerial/rosserial_msgs/RequestParam.h ****     virtual int serialize(unsigned char *outbuffer) const
  65:ROSSerial/rosserial_msgs/RequestParam.h ****     {
  66:ROSSerial/rosserial_msgs/RequestParam.h ****       int offset = 0;
  67:ROSSerial/rosserial_msgs/RequestParam.h ****       *(outbuffer + offset++) = ints_length;
  68:ROSSerial/rosserial_msgs/RequestParam.h ****       *(outbuffer + offset++) = 0;
  69:ROSSerial/rosserial_msgs/RequestParam.h ****       *(outbuffer + offset++) = 0;
  70:ROSSerial/rosserial_msgs/RequestParam.h ****       *(outbuffer + offset++) = 0;
  71:ROSSerial/rosserial_msgs/RequestParam.h ****       for( uint8_t i = 0; i < ints_length; i++){
  72:ROSSerial/rosserial_msgs/RequestParam.h ****       union {
  73:ROSSerial/rosserial_msgs/RequestParam.h ****         int32_t real;
  74:ROSSerial/rosserial_msgs/RequestParam.h ****         uint32_t base;
  75:ROSSerial/rosserial_msgs/RequestParam.h ****       } u_intsi;
  76:ROSSerial/rosserial_msgs/RequestParam.h ****       u_intsi.real = this->ints[i];
  77:ROSSerial/rosserial_msgs/RequestParam.h ****       *(outbuffer + offset + 0) = (u_intsi.base >> (8 * 0)) & 0xFF;
  78:ROSSerial/rosserial_msgs/RequestParam.h ****       *(outbuffer + offset + 1) = (u_intsi.base >> (8 * 1)) & 0xFF;
  79:ROSSerial/rosserial_msgs/RequestParam.h ****       *(outbuffer + offset + 2) = (u_intsi.base >> (8 * 2)) & 0xFF;
  80:ROSSerial/rosserial_msgs/RequestParam.h ****       *(outbuffer + offset + 3) = (u_intsi.base >> (8 * 3)) & 0xFF;
  81:ROSSerial/rosserial_msgs/RequestParam.h ****       offset += sizeof(this->ints[i]);
  82:ROSSerial/rosserial_msgs/RequestParam.h ****       }
  83:ROSSerial/rosserial_msgs/RequestParam.h ****       *(outbuffer + offset++) = floats_length;
  84:ROSSerial/rosserial_msgs/RequestParam.h ****       *(outbuffer + offset++) = 0;
  85:ROSSerial/rosserial_msgs/RequestParam.h ****       *(outbuffer + offset++) = 0;
  86:ROSSerial/rosserial_msgs/RequestParam.h ****       *(outbuffer + offset++) = 0;
  87:ROSSerial/rosserial_msgs/RequestParam.h ****       for( uint8_t i = 0; i < floats_length; i++){
  88:ROSSerial/rosserial_msgs/RequestParam.h ****       union {
  89:ROSSerial/rosserial_msgs/RequestParam.h ****         float real;
  90:ROSSerial/rosserial_msgs/RequestParam.h ****         uint32_t base;
ARM GAS  /var/folders/l3/4y5292px21b4835bsnjwqc7w009kq1/T//ccaF8PhA.s 			page 16


  91:ROSSerial/rosserial_msgs/RequestParam.h ****       } u_floatsi;
  92:ROSSerial/rosserial_msgs/RequestParam.h ****       u_floatsi.real = this->floats[i];
  93:ROSSerial/rosserial_msgs/RequestParam.h ****       *(outbuffer + offset + 0) = (u_floatsi.base >> (8 * 0)) & 0xFF;
  94:ROSSerial/rosserial_msgs/RequestParam.h ****       *(outbuffer + offset + 1) = (u_floatsi.base >> (8 * 1)) & 0xFF;
  95:ROSSerial/rosserial_msgs/RequestParam.h ****       *(outbuffer + offset + 2) = (u_floatsi.base >> (8 * 2)) & 0xFF;
  96:ROSSerial/rosserial_msgs/RequestParam.h ****       *(outbuffer + offset + 3) = (u_floatsi.base >> (8 * 3)) & 0xFF;
  97:ROSSerial/rosserial_msgs/RequestParam.h ****       offset += sizeof(this->floats[i]);
  98:ROSSerial/rosserial_msgs/RequestParam.h ****       }
  99:ROSSerial/rosserial_msgs/RequestParam.h ****       *(outbuffer + offset++) = strings_length;
 100:ROSSerial/rosserial_msgs/RequestParam.h ****       *(outbuffer + offset++) = 0;
 101:ROSSerial/rosserial_msgs/RequestParam.h ****       *(outbuffer + offset++) = 0;
 102:ROSSerial/rosserial_msgs/RequestParam.h ****       *(outbuffer + offset++) = 0;
 103:ROSSerial/rosserial_msgs/RequestParam.h ****       for( uint8_t i = 0; i < strings_length; i++){
 104:ROSSerial/rosserial_msgs/RequestParam.h ****       uint32_t length_stringsi = strlen(this->strings[i]);
 105:ROSSerial/rosserial_msgs/RequestParam.h ****       memcpy(outbuffer + offset, &length_stringsi, sizeof(uint32_t));
 106:ROSSerial/rosserial_msgs/RequestParam.h ****       offset += 4;
 107:ROSSerial/rosserial_msgs/RequestParam.h ****       memcpy(outbuffer + offset, this->strings[i], length_stringsi);
 108:ROSSerial/rosserial_msgs/RequestParam.h ****       offset += length_stringsi;
 109:ROSSerial/rosserial_msgs/RequestParam.h ****       }
 110:ROSSerial/rosserial_msgs/RequestParam.h ****       return offset;
 111:ROSSerial/rosserial_msgs/RequestParam.h ****     }
 112:ROSSerial/rosserial_msgs/RequestParam.h **** 
 113:ROSSerial/rosserial_msgs/RequestParam.h ****     virtual int deserialize(unsigned char *inbuffer)
 114:ROSSerial/rosserial_msgs/RequestParam.h ****     {
 115:ROSSerial/rosserial_msgs/RequestParam.h ****       int offset = 0;
 116:ROSSerial/rosserial_msgs/RequestParam.h ****       uint8_t ints_lengthT = *(inbuffer + offset++);
 117:ROSSerial/rosserial_msgs/RequestParam.h ****       if(ints_lengthT > ints_length)
 118:ROSSerial/rosserial_msgs/RequestParam.h ****         this->ints = (int32_t*)realloc(this->ints, ints_lengthT * sizeof(int32_t));
 119:ROSSerial/rosserial_msgs/RequestParam.h ****       offset += 3;
 120:ROSSerial/rosserial_msgs/RequestParam.h ****       ints_length = ints_lengthT;
 121:ROSSerial/rosserial_msgs/RequestParam.h ****       for( uint8_t i = 0; i < ints_length; i++){
 122:ROSSerial/rosserial_msgs/RequestParam.h ****       union {
 123:ROSSerial/rosserial_msgs/RequestParam.h ****         int32_t real;
 124:ROSSerial/rosserial_msgs/RequestParam.h ****         uint32_t base;
 125:ROSSerial/rosserial_msgs/RequestParam.h ****       } u_st_ints;
 126:ROSSerial/rosserial_msgs/RequestParam.h ****       u_st_ints.base = 0;
 127:ROSSerial/rosserial_msgs/RequestParam.h ****       u_st_ints.base |= ((uint32_t) (*(inbuffer + offset + 0))) << (8 * 0);
 128:ROSSerial/rosserial_msgs/RequestParam.h ****       u_st_ints.base |= ((uint32_t) (*(inbuffer + offset + 1))) << (8 * 1);
 129:ROSSerial/rosserial_msgs/RequestParam.h ****       u_st_ints.base |= ((uint32_t) (*(inbuffer + offset + 2))) << (8 * 2);
 130:ROSSerial/rosserial_msgs/RequestParam.h ****       u_st_ints.base |= ((uint32_t) (*(inbuffer + offset + 3))) << (8 * 3);
 131:ROSSerial/rosserial_msgs/RequestParam.h ****       this->st_ints = u_st_ints.real;
 132:ROSSerial/rosserial_msgs/RequestParam.h ****       offset += sizeof(this->st_ints);
 133:ROSSerial/rosserial_msgs/RequestParam.h ****         memcpy( &(this->ints[i]), &(this->st_ints), sizeof(int32_t));
 134:ROSSerial/rosserial_msgs/RequestParam.h ****       }
 135:ROSSerial/rosserial_msgs/RequestParam.h ****       uint8_t floats_lengthT = *(inbuffer + offset++);
 136:ROSSerial/rosserial_msgs/RequestParam.h ****       if(floats_lengthT > floats_length)
 137:ROSSerial/rosserial_msgs/RequestParam.h ****         this->floats = (float*)realloc(this->floats, floats_lengthT * sizeof(float));
 138:ROSSerial/rosserial_msgs/RequestParam.h ****       offset += 3;
 139:ROSSerial/rosserial_msgs/RequestParam.h ****       floats_length = floats_lengthT;
 140:ROSSerial/rosserial_msgs/RequestParam.h ****       for( uint8_t i = 0; i < floats_length; i++){
 141:ROSSerial/rosserial_msgs/RequestParam.h ****       union {
 142:ROSSerial/rosserial_msgs/RequestParam.h ****         float real;
 143:ROSSerial/rosserial_msgs/RequestParam.h ****         uint32_t base;
 144:ROSSerial/rosserial_msgs/RequestParam.h ****       } u_st_floats;
 145:ROSSerial/rosserial_msgs/RequestParam.h ****       u_st_floats.base = 0;
 146:ROSSerial/rosserial_msgs/RequestParam.h ****       u_st_floats.base |= ((uint32_t) (*(inbuffer + offset + 0))) << (8 * 0);
 147:ROSSerial/rosserial_msgs/RequestParam.h ****       u_st_floats.base |= ((uint32_t) (*(inbuffer + offset + 1))) << (8 * 1);
ARM GAS  /var/folders/l3/4y5292px21b4835bsnjwqc7w009kq1/T//ccaF8PhA.s 			page 17


 148:ROSSerial/rosserial_msgs/RequestParam.h ****       u_st_floats.base |= ((uint32_t) (*(inbuffer + offset + 2))) << (8 * 2);
 149:ROSSerial/rosserial_msgs/RequestParam.h ****       u_st_floats.base |= ((uint32_t) (*(inbuffer + offset + 3))) << (8 * 3);
 150:ROSSerial/rosserial_msgs/RequestParam.h ****       this->st_floats = u_st_floats.real;
 151:ROSSerial/rosserial_msgs/RequestParam.h ****       offset += sizeof(this->st_floats);
 152:ROSSerial/rosserial_msgs/RequestParam.h ****         memcpy( &(this->floats[i]), &(this->st_floats), sizeof(float));
 153:ROSSerial/rosserial_msgs/RequestParam.h ****       }
 154:ROSSerial/rosserial_msgs/RequestParam.h ****       uint8_t strings_lengthT = *(inbuffer + offset++);
 155:ROSSerial/rosserial_msgs/RequestParam.h ****       if(strings_lengthT > strings_length)
 156:ROSSerial/rosserial_msgs/RequestParam.h ****         this->strings = (char**)realloc(this->strings, strings_lengthT * sizeof(char*));
 157:ROSSerial/rosserial_msgs/RequestParam.h ****       offset += 3;
 158:ROSSerial/rosserial_msgs/RequestParam.h ****       strings_length = strings_lengthT;
 159:ROSSerial/rosserial_msgs/RequestParam.h ****       for( uint8_t i = 0; i < strings_length; i++){
 160:ROSSerial/rosserial_msgs/RequestParam.h ****       uint32_t length_st_strings;
 161:ROSSerial/rosserial_msgs/RequestParam.h ****       memcpy(&length_st_strings, (inbuffer + offset), sizeof(uint32_t));
 162:ROSSerial/rosserial_msgs/RequestParam.h ****       offset += 4;
 163:ROSSerial/rosserial_msgs/RequestParam.h ****       for(unsigned int k= offset; k< offset+length_st_strings; ++k){
 164:ROSSerial/rosserial_msgs/RequestParam.h ****           inbuffer[k-1]=inbuffer[k];
 165:ROSSerial/rosserial_msgs/RequestParam.h ****       }
 166:ROSSerial/rosserial_msgs/RequestParam.h ****       inbuffer[offset+length_st_strings-1]=0;
 167:ROSSerial/rosserial_msgs/RequestParam.h ****       this->st_strings = (char *)(inbuffer + offset-1);
 168:ROSSerial/rosserial_msgs/RequestParam.h ****       offset += length_st_strings;
 169:ROSSerial/rosserial_msgs/RequestParam.h ****         memcpy( &(this->strings[i]), &(this->st_strings), sizeof(char*));
 170:ROSSerial/rosserial_msgs/RequestParam.h ****       }
 171:ROSSerial/rosserial_msgs/RequestParam.h ****      return offset;
 172:ROSSerial/rosserial_msgs/RequestParam.h ****     }
 173:ROSSerial/rosserial_msgs/RequestParam.h **** 
 174:ROSSerial/rosserial_msgs/RequestParam.h ****     const char * getType(){ return REQUESTPARAM; };
 565              		.loc 4 174 0
 566              		.cfi_startproc
 567              		@ args = 0, pretend = 0, frame = 0
 568              		@ frame_needed = 0, uses_anonymous_args = 0
 569              		@ link register save eliminated.
 570              	.LVL56:
 571              		.loc 4 174 0
 572 0000 0048     		ldr	r0, .L34
 573              	.LVL57:
 574 0002 7047     		bx	lr
 575              	.L35:
 576              		.align	2
 577              	.L34:
 578 0004 00000000 		.word	.LANCHOR0
 579              		.cfi_endproc
 580              	.LFE396:
 581              		.cantunwind
 582              		.fnend
 584              		.section	.text._ZN14rosserial_msgs20RequestParamResponse6getMD5Ev,"axG",%progbits,_ZN14rosserial_m
 585              		.align	1
 586              		.weak	_ZN14rosserial_msgs20RequestParamResponse6getMD5Ev
 587              		.syntax unified
 588              		.thumb
 589              		.thumb_func
 590              		.fpu fpv4-sp-d16
 592              	_ZN14rosserial_msgs20RequestParamResponse6getMD5Ev:
 593              		.fnstart
 594              	.LFB397:
 175:ROSSerial/rosserial_msgs/RequestParam.h ****     const char * getMD5(){ return "9f0e98bda65981986ddf53afa7a40e49"; };
 595              		.loc 4 175 0
ARM GAS  /var/folders/l3/4y5292px21b4835bsnjwqc7w009kq1/T//ccaF8PhA.s 			page 18


 596              		.cfi_startproc
 597              		@ args = 0, pretend = 0, frame = 0
 598              		@ frame_needed = 0, uses_anonymous_args = 0
 599              		@ link register save eliminated.
 600              	.LVL58:
 601              		.loc 4 175 0
 602 0000 0048     		ldr	r0, .L37
 603              	.LVL59:
 604 0002 7047     		bx	lr
 605              	.L38:
 606              		.align	2
 607              	.L37:
 608 0004 00000000 		.word	.LC6
 609              		.cfi_endproc
 610              	.LFE397:
 611              		.cantunwind
 612              		.fnend
 614              		.section	.text._ZN8std_msgs6String11deserializeEPh,"axG",%progbits,_ZN8std_msgs6String11deserializ
 615              		.align	1
 616              		.weak	_ZN8std_msgs6String11deserializeEPh
 617              		.syntax unified
 618              		.thumb
 619              		.thumb_func
 620              		.fpu fpv4-sp-d16
 622              	_ZN8std_msgs6String11deserializeEPh:
 623              		.fnstart
 624              	.LFB404:
 625              		.file 5 "ROSSerial/std_msgs/ROSString.h"
   1:ROSSerial/std_msgs/ROSString.h **** #ifndef _ROS_std_msgs_String_h
   2:ROSSerial/std_msgs/ROSString.h **** #define _ROS_std_msgs_String_h
   3:ROSSerial/std_msgs/ROSString.h **** 
   4:ROSSerial/std_msgs/ROSString.h **** #include <cstring>
   5:ROSSerial/std_msgs/ROSString.h **** #include <stdint.h>
   6:ROSSerial/std_msgs/ROSString.h **** #include <string.h>
   7:ROSSerial/std_msgs/ROSString.h **** #include <stdlib.h>
   8:ROSSerial/std_msgs/ROSString.h **** #include "ros/msg.h"
   9:ROSSerial/std_msgs/ROSString.h **** 
  10:ROSSerial/std_msgs/ROSString.h **** namespace std_msgs
  11:ROSSerial/std_msgs/ROSString.h **** {
  12:ROSSerial/std_msgs/ROSString.h **** 
  13:ROSSerial/std_msgs/ROSString.h ****   class String : public ros::Msg
  14:ROSSerial/std_msgs/ROSString.h ****   {
  15:ROSSerial/std_msgs/ROSString.h ****     public:
  16:ROSSerial/std_msgs/ROSString.h ****       const char* data;
  17:ROSSerial/std_msgs/ROSString.h **** 
  18:ROSSerial/std_msgs/ROSString.h ****     virtual int serialize(unsigned char *outbuffer) const
  19:ROSSerial/std_msgs/ROSString.h ****     {
  20:ROSSerial/std_msgs/ROSString.h ****       int offset = 0;
  21:ROSSerial/std_msgs/ROSString.h ****       uint32_t length_data = strlen(this->data);
  22:ROSSerial/std_msgs/ROSString.h ****       memcpy(outbuffer + offset, &length_data, sizeof(uint32_t));
  23:ROSSerial/std_msgs/ROSString.h ****       offset += 4;
  24:ROSSerial/std_msgs/ROSString.h ****       memcpy(outbuffer + offset, this->data, length_data);
  25:ROSSerial/std_msgs/ROSString.h ****       offset += length_data;
  26:ROSSerial/std_msgs/ROSString.h ****       return offset;
  27:ROSSerial/std_msgs/ROSString.h ****     }
  28:ROSSerial/std_msgs/ROSString.h **** 
  29:ROSSerial/std_msgs/ROSString.h ****     virtual int deserialize(unsigned char *inbuffer)
ARM GAS  /var/folders/l3/4y5292px21b4835bsnjwqc7w009kq1/T//ccaF8PhA.s 			page 19


 626              		.loc 5 29 0
 627              		.cfi_startproc
 628              		@ args = 0, pretend = 0, frame = 0
 629              		@ frame_needed = 0, uses_anonymous_args = 0
 630              		@ link register save eliminated.
 631              	.LVL60:
 632 0000 30B4     		push	{r4, r5}
 633              	.LCFI4:
 634              		.cfi_def_cfa_offset 8
 635              		.cfi_offset 4, -8
 636              		.cfi_offset 5, -4
 637              	.LVL61:
  30:ROSSerial/std_msgs/ROSString.h ****     {
  31:ROSSerial/std_msgs/ROSString.h ****       int offset = 0;
  32:ROSSerial/std_msgs/ROSString.h ****       uint32_t length_data;
  33:ROSSerial/std_msgs/ROSString.h ****       memcpy(&length_data, (inbuffer + offset), sizeof(uint32_t));
 638              		.loc 5 33 0
 639 0002 0D68     		ldr	r5, [r1]	@ unaligned
 640              	.LVL62:
 641              	.LBB104:
  34:ROSSerial/std_msgs/ROSString.h ****       offset += 4;
  35:ROSSerial/std_msgs/ROSString.h ****       for(unsigned int k= offset; k< offset+length_data; ++k){
 642              		.loc 5 35 0
 643 0004 0423     		movs	r3, #4
 644              	.LVL63:
 645              	.L41:
 646              		.loc 5 35 0 is_stmt 0 discriminator 3
 647 0006 2A1D     		adds	r2, r5, #4
 648 0008 9A42     		cmp	r2, r3
 649 000a 04D9     		bls	.L40
  36:ROSSerial/std_msgs/ROSString.h ****           inbuffer[k-1]=inbuffer[k];
 650              		.loc 5 36 0 is_stmt 1 discriminator 2
 651 000c 5A1E     		subs	r2, r3, #1
 652 000e CC5C     		ldrb	r4, [r1, r3]	@ zero_extendqisi2
 653 0010 8C54     		strb	r4, [r1, r2]
  35:ROSSerial/std_msgs/ROSString.h ****           inbuffer[k-1]=inbuffer[k];
 654              		.loc 5 35 0 discriminator 2
 655 0012 0133     		adds	r3, r3, #1
 656              	.LVL64:
 657 0014 F7E7     		b	.L41
 658              	.L40:
 659              	.LBE104:
  37:ROSSerial/std_msgs/ROSString.h ****       }
  38:ROSSerial/std_msgs/ROSString.h ****       inbuffer[offset+length_data-1]=0;
 660              		.loc 5 38 0
 661 0016 0335     		adds	r5, r5, #3
 662              	.LVL65:
 663 0018 0023     		movs	r3, #0
 664              	.LVL66:
 665 001a 4B55     		strb	r3, [r1, r5]
  39:ROSSerial/std_msgs/ROSString.h ****       this->data = (char *)(inbuffer + offset-1);
 666              		.loc 5 39 0
 667 001c 0331     		adds	r1, r1, #3
 668              	.LVL67:
 669 001e 4160     		str	r1, [r0, #4]
 670              	.LVL68:
  40:ROSSerial/std_msgs/ROSString.h ****       offset += length_data;
ARM GAS  /var/folders/l3/4y5292px21b4835bsnjwqc7w009kq1/T//ccaF8PhA.s 			page 20


  41:ROSSerial/std_msgs/ROSString.h ****      return offset;
  42:ROSSerial/std_msgs/ROSString.h ****     }
 671              		.loc 5 42 0
 672 0020 1046     		mov	r0, r2
 673              	.LVL69:
 674 0022 30BC     		pop	{r4, r5}
 675              	.LCFI5:
 676              		.cfi_restore 5
 677              		.cfi_restore 4
 678              		.cfi_def_cfa_offset 0
 679 0024 7047     		bx	lr
 680              		.cfi_endproc
 681              	.LFE404:
 682              		.cantunwind
 683              		.fnend
 685              		.section	.text._ZN8std_msgs6String7getTypeEv,"axG",%progbits,_ZN8std_msgs6String7getTypeEv,comdat
 686              		.align	1
 687              		.weak	_ZN8std_msgs6String7getTypeEv
 688              		.syntax unified
 689              		.thumb
 690              		.thumb_func
 691              		.fpu fpv4-sp-d16
 693              	_ZN8std_msgs6String7getTypeEv:
 694              		.fnstart
 695              	.LFB405:
  43:ROSSerial/std_msgs/ROSString.h **** 
  44:ROSSerial/std_msgs/ROSString.h ****     const char * getType(){ return "std_msgs/String"; };
 696              		.loc 5 44 0
 697              		.cfi_startproc
 698              		@ args = 0, pretend = 0, frame = 0
 699              		@ frame_needed = 0, uses_anonymous_args = 0
 700              		@ link register save eliminated.
 701              	.LVL70:
 702              		.loc 5 44 0
 703 0000 0048     		ldr	r0, .L44
 704              	.LVL71:
 705 0002 7047     		bx	lr
 706              	.L45:
 707              		.align	2
 708              	.L44:
 709 0004 00000000 		.word	.LC7
 710              		.cfi_endproc
 711              	.LFE405:
 712              		.cantunwind
 713              		.fnend
 715              		.section	.text._ZN8std_msgs6String6getMD5Ev,"axG",%progbits,_ZN8std_msgs6String6getMD5Ev,comdat
 716              		.align	1
 717              		.weak	_ZN8std_msgs6String6getMD5Ev
 718              		.syntax unified
 719              		.thumb
 720              		.thumb_func
 721              		.fpu fpv4-sp-d16
 723              	_ZN8std_msgs6String6getMD5Ev:
 724              		.fnstart
 725              	.LFB406:
  45:ROSSerial/std_msgs/ROSString.h ****     const char * getMD5(){ return "992ce8a1687cec8c8bd883ec73ca41d1"; };
 726              		.loc 5 45 0
ARM GAS  /var/folders/l3/4y5292px21b4835bsnjwqc7w009kq1/T//ccaF8PhA.s 			page 21


 727              		.cfi_startproc
 728              		@ args = 0, pretend = 0, frame = 0
 729              		@ frame_needed = 0, uses_anonymous_args = 0
 730              		@ link register save eliminated.
 731              	.LVL72:
 732              		.loc 5 45 0
 733 0000 0048     		ldr	r0, .L47
 734              	.LVL73:
 735 0002 7047     		bx	lr
 736              	.L48:
 737              		.align	2
 738              	.L47:
 739 0004 00000000 		.word	.LC8
 740              		.cfi_endproc
 741              	.LFE406:
 742              		.cantunwind
 743              		.fnend
 745              		.section	.text._Z41__static_initialization_and_destruction_0ii,"ax",%progbits
 746              		.align	1
 747              		.syntax unified
 748              		.thumb
 749              		.thumb_func
 750              		.fpu fpv4-sp-d16
 752              	_Z41__static_initialization_and_destruction_0ii:
 753              		.fnstart
 754              	.LFB510:
 755              		.file 6 "./Src/ROS_main.cpp"
   1:./Src/ROS_main.cpp **** /*
   2:./Src/ROS_main.cpp **** * Implement all ROS functions here.
   3:./Src/ROS_main.cpp **** */
   4:./Src/ROS_main.cpp **** 
   5:./Src/ROS_main.cpp **** #include "ros.h"
   6:./Src/ROS_main.cpp **** #include "ROS_subscribe.h"
   7:./Src/ROS_main.cpp **** #include "std_msgs/ROSString.h"
   8:./Src/ROS_main.cpp **** 
   9:./Src/ROS_main.cpp **** extern "C" 
  10:./Src/ROS_main.cpp **** {
  11:./Src/ROS_main.cpp ****     void ros_init();
  12:./Src/ROS_main.cpp ****     void ros_run();
  13:./Src/ROS_main.cpp **** }
  14:./Src/ROS_main.cpp **** 
  15:./Src/ROS_main.cpp **** ros::NodeHandle nh; /* ROS node handle */
  16:./Src/ROS_main.cpp **** 
  17:./Src/ROS_main.cpp **** ros::PublisherType *chatter;
  18:./Src/ROS_main.cpp **** //extern int16_t ledState;
  19:./Src/ROS_main.cpp **** 
  20:./Src/ROS_main.cpp **** void ros_init()
  21:./Src/ROS_main.cpp **** {
  22:./Src/ROS_main.cpp ****     /* ROS init, we can start UART hear in not in bsp */ 
  23:./Src/ROS_main.cpp ****     //nh_ = &nh;
  24:./Src/ROS_main.cpp ****     nh.initNode();
  25:./Src/ROS_main.cpp **** 
  26:./Src/ROS_main.cpp ****     /* Register Publisher Chatter */
  27:./Src/ROS_main.cpp ****     std_msgs::String str_msg;
  28:./Src/ROS_main.cpp ****     chatter = nh.addPublisher("chatter",  &str_msg);
  29:./Src/ROS_main.cpp **** 
  30:./Src/ROS_main.cpp ****     /* Register Subscriber led */
ARM GAS  /var/folders/l3/4y5292px21b4835bsnjwqc7w009kq1/T//ccaF8PhA.s 			page 22


  31:./Src/ROS_main.cpp ****     rosSubscribeInit(&nh);
  32:./Src/ROS_main.cpp **** }
  33:./Src/ROS_main.cpp **** 
  34:./Src/ROS_main.cpp **** void ros_run()
  35:./Src/ROS_main.cpp **** {
  36:./Src/ROS_main.cpp ****     nh.spinOnce1();
  37:./Src/ROS_main.cpp **** 
  38:./Src/ROS_main.cpp ****     //Note: If Msg is declared outside function/globally publish1 doesn't work.
  39:./Src/ROS_main.cpp ****     //may be constructor is not getting called.
  40:./Src/ROS_main.cpp ****     std_msgs::String str_msg;
  41:./Src/ROS_main.cpp **** 
  42:./Src/ROS_main.cpp ****     char buf[512];
  43:./Src/ROS_main.cpp ****     sprintf(buf,"Millis %ld ledState = %d",HAL_GetTick(), getLedState());
  44:./Src/ROS_main.cpp ****     str_msg.data = buf;
  45:./Src/ROS_main.cpp ****     //printf("%s\n",buf);
  46:./Src/ROS_main.cpp ****     
  47:./Src/ROS_main.cpp ****     nh.publish1(chatter->topic_id, &str_msg); 
  48:./Src/ROS_main.cpp **** 
  49:./Src/ROS_main.cpp **** }...
 756              		.loc 6 49 0
 757              		.cfi_startproc
 758              		@ args = 0, pretend = 0, frame = 0
 759              		@ frame_needed = 0, uses_anonymous_args = 0
 760              		@ link register save eliminated.
 761              	.LVL74:
 762              		.loc 6 49 0
 763 0000 0128     		cmp	r0, #1
 764 0002 00D0     		beq	.L59
 765              	.LVL75:
 766              	.L49:
 767 0004 7047     		bx	lr
 768              	.LVL76:
 769              	.L59:
 770              		.loc 6 49 0 is_stmt 0 discriminator 1
 771 0006 4FF6FF73 		movw	r3, #65535
 772 000a 9942     		cmp	r1, r3
 773 000c FAD1     		bne	.L49
 774              	.LVL77:
 775              	.LBB118:
 776              	.LBB119:
 777              	.LBB120:
 778              		.file 7 "ROSSerial/ros/node_handle.h"
   1:ROSSerial/ros/node_handle.h **** /*
   2:ROSSerial/ros/node_handle.h ****  * Software License Agreement (BSD License)
   3:ROSSerial/ros/node_handle.h ****  *
   4:ROSSerial/ros/node_handle.h ****  * Copyright (c) 2011, Willow Garage, Inc.
   5:ROSSerial/ros/node_handle.h ****  * All rights reserved.
   6:ROSSerial/ros/node_handle.h ****  *
   7:ROSSerial/ros/node_handle.h ****  * Redistribution and use in source and binary forms, with or without
   8:ROSSerial/ros/node_handle.h ****  * modification, are permitted provided that the following conditions
   9:ROSSerial/ros/node_handle.h ****  * are met:
  10:ROSSerial/ros/node_handle.h ****  *
  11:ROSSerial/ros/node_handle.h ****  *  * Redistributions of source code must retain the above copyright
  12:ROSSerial/ros/node_handle.h ****  *    notice, this list of conditions and the following disclaimer.
  13:ROSSerial/ros/node_handle.h ****  *  * Redistributions in binary form must reproduce the above
  14:ROSSerial/ros/node_handle.h ****  *    copyright notice, this list of conditions and the following
  15:ROSSerial/ros/node_handle.h ****  *    disclaimer in the documentation and/or other materials provided
ARM GAS  /var/folders/l3/4y5292px21b4835bsnjwqc7w009kq1/T//ccaF8PhA.s 			page 23


  16:ROSSerial/ros/node_handle.h ****  *    with the distribution.
  17:ROSSerial/ros/node_handle.h ****  *  * Neither the name of Willow Garage, Inc. nor the names of its
  18:ROSSerial/ros/node_handle.h ****  *    contributors may be used to endorse or promote prducts derived
  19:ROSSerial/ros/node_handle.h ****  *    from this software without specific prior written permission.
  20:ROSSerial/ros/node_handle.h ****  *
  21:ROSSerial/ros/node_handle.h ****  * THIS SOFTWARE IS PROVIDED BY THE COPYRIGHT HOLDERS AND CONTRIBUTORS
  22:ROSSerial/ros/node_handle.h ****  * "AS IS" AND ANY EXPRESS OR IMPLIED WARRANTIES, INCLUDING, BUT NOT
  23:ROSSerial/ros/node_handle.h ****  * LIMITED TO, THE IMPLIED WARRANTIES OF MERCHANTABILITY AND FITNESS
  24:ROSSerial/ros/node_handle.h ****  * FOR A PARTICULAR PURPOSE ARE DISCLAIMED. IN NO EVENT SHALL THE
  25:ROSSerial/ros/node_handle.h ****  * COPYRIGHT OWNER OR CONTRIBUTORS BE LIABLE FOR ANY DIRECT, INDIRECT,
  26:ROSSerial/ros/node_handle.h ****  * INCIDENTAL, SPECIAL, EXEMPLARY, OR CONSEQUENTIAL DAMAGES (INCLUDING,
  27:ROSSerial/ros/node_handle.h ****  * BUT NOT LIMITED TO, PROCUREMENT OF SUBSTITUTE GOODS OR SERVICES;
  28:ROSSerial/ros/node_handle.h ****  * LOSS OF USE, DATA, OR PROFITS; OR BUSINESS INTERRUPTION) HOWEVER
  29:ROSSerial/ros/node_handle.h ****  * CAUSED AND ON ANY THEORY OF LIABILITY, WHETHER IN CONTRACT, STRICT
  30:ROSSerial/ros/node_handle.h ****  * LIABILITY, OR TORT (INCLUDING NEGLIGENCE OR OTHERWISE) ARISING IN
  31:ROSSerial/ros/node_handle.h ****  * ANY WAY OUT OF THE USE OF THIS SOFTWARE, EVEN IF ADVISED OF THE
  32:ROSSerial/ros/node_handle.h ****  * POSSIBILITY OF SUCH DAMAGE.
  33:ROSSerial/ros/node_handle.h ****  */
  34:ROSSerial/ros/node_handle.h **** 
  35:ROSSerial/ros/node_handle.h **** #ifndef ROS_NODE_HANDLE_H_
  36:ROSSerial/ros/node_handle.h **** #define ROS_NODE_HANDLE_H_
  37:ROSSerial/ros/node_handle.h **** 
  38:ROSSerial/ros/node_handle.h **** #include <stdint.h>
  39:ROSSerial/ros/node_handle.h **** 
  40:ROSSerial/ros/node_handle.h **** #include "std_msgs/Time.h"
  41:ROSSerial/ros/node_handle.h **** #include "rosserial_msgs/TopicInfo.h"
  42:ROSSerial/ros/node_handle.h **** #include "rosserial_msgs/Log.h"
  43:ROSSerial/ros/node_handle.h **** #include "rosserial_msgs/RequestParam.h"
  44:ROSSerial/ros/node_handle.h **** #include "std_msgs/ROSString.h"
  45:ROSSerial/ros/node_handle.h **** #include "ros/msg.h"
  46:ROSSerial/ros/node_handle.h **** 
  47:ROSSerial/ros/node_handle.h **** namespace ros
  48:ROSSerial/ros/node_handle.h **** {
  49:ROSSerial/ros/node_handle.h **** 
  50:ROSSerial/ros/node_handle.h **** class NodeHandleBase_
  51:ROSSerial/ros/node_handle.h **** {
  52:ROSSerial/ros/node_handle.h **** public:
  53:ROSSerial/ros/node_handle.h ****   virtual int publish(int id, const Msg* msg) = 0;
  54:ROSSerial/ros/node_handle.h ****   virtual int spinOnce() = 0;
  55:ROSSerial/ros/node_handle.h ****   virtual bool connected() = 0;
  56:ROSSerial/ros/node_handle.h **** };
  57:ROSSerial/ros/node_handle.h **** }
  58:ROSSerial/ros/node_handle.h **** 
  59:ROSSerial/ros/node_handle.h **** #include "ros/publisher.h"
  60:ROSSerial/ros/node_handle.h **** #include "ros/subscriber.h"
  61:ROSSerial/ros/node_handle.h **** #include "ros/service_server.h"
  62:ROSSerial/ros/node_handle.h **** #include "ros/service_client.h"
  63:ROSSerial/ros/node_handle.h **** #include "std_msgs/UInt16.h"
  64:ROSSerial/ros/node_handle.h **** 
  65:ROSSerial/ros/node_handle.h **** namespace ros
  66:ROSSerial/ros/node_handle.h **** {
  67:ROSSerial/ros/node_handle.h **** 
  68:ROSSerial/ros/node_handle.h **** const int SPIN_OK = 0;
  69:ROSSerial/ros/node_handle.h **** const int SPIN_ERR = -1;
  70:ROSSerial/ros/node_handle.h **** const int SPIN_TIMEOUT = -2;
  71:ROSSerial/ros/node_handle.h **** 
  72:ROSSerial/ros/node_handle.h **** const uint8_t SYNC_SECONDS  = 5;
ARM GAS  /var/folders/l3/4y5292px21b4835bsnjwqc7w009kq1/T//ccaF8PhA.s 			page 24


  73:ROSSerial/ros/node_handle.h **** const uint8_t MODE_FIRST_FF = 0;
  74:ROSSerial/ros/node_handle.h **** 
  75:ROSSerial/ros/node_handle.h **** /*
  76:ROSSerial/ros/node_handle.h ****  * The second sync byte is a protocol version. It's value is 0xff for the first
  77:ROSSerial/ros/node_handle.h ****  * version of the rosserial protocol (used up to hydro), 0xfe for the second version
  78:ROSSerial/ros/node_handle.h ****  * (introduced in hydro), 0xfd for the next, and so on. Its purpose is to enable
  79:ROSSerial/ros/node_handle.h ****  * detection of mismatched protocol versions (e.g. hydro rosserial_python with groovy
  80:ROSSerial/ros/node_handle.h ****  * rosserial_arduino. It must be changed in both this file and in
  81:ROSSerial/ros/node_handle.h ****  * rosserial_python/src/rosserial_python/SerialClient.py
  82:ROSSerial/ros/node_handle.h ****  */
  83:ROSSerial/ros/node_handle.h **** const uint8_t MODE_PROTOCOL_VER   = 1;
  84:ROSSerial/ros/node_handle.h **** const uint8_t PROTOCOL_VER1       = 0xff; // through groovy
  85:ROSSerial/ros/node_handle.h **** const uint8_t PROTOCOL_VER2       = 0xfe; // in hydro
  86:ROSSerial/ros/node_handle.h **** const uint8_t PROTOCOL_VER        = PROTOCOL_VER2;
  87:ROSSerial/ros/node_handle.h **** const uint8_t MODE_SIZE_L         = 2;
  88:ROSSerial/ros/node_handle.h **** const uint8_t MODE_SIZE_H         = 3;
  89:ROSSerial/ros/node_handle.h **** const uint8_t MODE_SIZE_CHECKSUM  = 4;    // checksum for msg size received from size L and H
  90:ROSSerial/ros/node_handle.h **** const uint8_t MODE_TOPIC_L        = 5;    // waiting for topic id
  91:ROSSerial/ros/node_handle.h **** const uint8_t MODE_TOPIC_H        = 6;
  92:ROSSerial/ros/node_handle.h **** const uint8_t MODE_MESSAGE        = 7;
  93:ROSSerial/ros/node_handle.h **** const uint8_t MODE_MSG_CHECKSUM   = 8;    // checksum for msg and topic id
  94:ROSSerial/ros/node_handle.h **** 
  95:ROSSerial/ros/node_handle.h **** 
  96:ROSSerial/ros/node_handle.h **** const uint8_t SERIAL_MSG_TIMEOUT  = 20;   // 20 milliseconds to recieve all of message data
  97:ROSSerial/ros/node_handle.h **** 
  98:ROSSerial/ros/node_handle.h **** using rosserial_msgs::TopicInfo;
  99:ROSSerial/ros/node_handle.h **** 
 100:ROSSerial/ros/node_handle.h **** typedef struct
 101:ROSSerial/ros/node_handle.h **** {
 102:ROSSerial/ros/node_handle.h ****     uint16_t topic_id;
 103:ROSSerial/ros/node_handle.h ****     const char* topic_name;
 104:ROSSerial/ros/node_handle.h ****     const char* message_type;
 105:ROSSerial/ros/node_handle.h ****     const char* md5sum;
 106:ROSSerial/ros/node_handle.h ****     void (*callback)(const Msg& );
 107:ROSSerial/ros/node_handle.h **** } SubscriberType;
 108:ROSSerial/ros/node_handle.h **** 
 109:ROSSerial/ros/node_handle.h **** typedef struct
 110:ROSSerial/ros/node_handle.h **** {
 111:ROSSerial/ros/node_handle.h ****     uint16_t topic_id;
 112:ROSSerial/ros/node_handle.h ****     const char* topic_name;
 113:ROSSerial/ros/node_handle.h ****     const Msg* msg; 
 114:ROSSerial/ros/node_handle.h ****     const char* message_type;
 115:ROSSerial/ros/node_handle.h ****     const char* md5sum;
 116:ROSSerial/ros/node_handle.h **** } PublisherType;
 117:ROSSerial/ros/node_handle.h **** 
 118:ROSSerial/ros/node_handle.h **** /* Node Handle */
 119:ROSSerial/ros/node_handle.h **** template<class Hardware,
 120:ROSSerial/ros/node_handle.h ****          int MAX_SUBSCRIBERS = 25,
 121:ROSSerial/ros/node_handle.h ****          int MAX_PUBLISHERS = 25,
 122:ROSSerial/ros/node_handle.h ****          int INPUT_SIZE = 512,
 123:ROSSerial/ros/node_handle.h ****          int OUTPUT_SIZE = 512>
 124:ROSSerial/ros/node_handle.h **** class NodeHandle_ : public NodeHandleBase_
 125:ROSSerial/ros/node_handle.h **** {
 126:ROSSerial/ros/node_handle.h **** protected:
 127:ROSSerial/ros/node_handle.h ****   Hardware hardware_;
 128:ROSSerial/ros/node_handle.h **** 
 129:ROSSerial/ros/node_handle.h ****   /* time used for syncing */
ARM GAS  /var/folders/l3/4y5292px21b4835bsnjwqc7w009kq1/T//ccaF8PhA.s 			page 25


 130:ROSSerial/ros/node_handle.h ****   uint32_t rt_time;
 131:ROSSerial/ros/node_handle.h **** 
 132:ROSSerial/ros/node_handle.h ****   /* used for computing current time */
 133:ROSSerial/ros/node_handle.h ****   uint32_t sec_offset, nsec_offset;
 134:ROSSerial/ros/node_handle.h **** 
 135:ROSSerial/ros/node_handle.h ****   /* Spinonce maximum work timeout */
 136:ROSSerial/ros/node_handle.h ****   uint32_t spin_timeout_;
 137:ROSSerial/ros/node_handle.h **** 
 138:ROSSerial/ros/node_handle.h ****   uint8_t message_in[INPUT_SIZE];
 139:ROSSerial/ros/node_handle.h ****   uint8_t message_out[OUTPUT_SIZE];
 140:ROSSerial/ros/node_handle.h **** 
 141:ROSSerial/ros/node_handle.h ****   Publisher * publishers[MAX_PUBLISHERS];
 142:ROSSerial/ros/node_handle.h ****   PublisherType publishers2[MAX_PUBLISHERS];
 143:ROSSerial/ros/node_handle.h ****   Subscriber_ * subscribers[MAX_SUBSCRIBERS];
 144:ROSSerial/ros/node_handle.h ****   SubscriberType subscribers2[MAX_SUBSCRIBERS];
 145:ROSSerial/ros/node_handle.h **** 
 146:ROSSerial/ros/node_handle.h ****   /*
 147:ROSSerial/ros/node_handle.h ****    * Setup Functions
 148:ROSSerial/ros/node_handle.h ****    */
 149:ROSSerial/ros/node_handle.h **** public:
 150:ROSSerial/ros/node_handle.h ****   NodeHandle_() : configured_(false)
 779              		.loc 7 150 0 is_stmt 1
 780 000e 244A     		ldr	r2, .L60
 781 0010 244B     		ldr	r3, .L60+4
 782 0012 1360     		str	r3, [r2]
 783 0014 0023     		movs	r3, #0
 784 0016 82F81C35 		strb	r3, [r2, #1308]
 785              	.LVL78:
 786              	.LBB121:
 787              	.LBB122:
  51:ROSSerial/rosserial_msgs/RequestParam.h ****   {
 788              		.loc 4 51 0
 789 001a 2349     		ldr	r1, .L60+8
 790              	.LVL79:
 791 001c C2F83015 		str	r1, [r2, #1328]
 792              	.LVL80:
 793              	.L52:
 794              	.LBE122:
 795              	.LBE121:
 796              	.LBB123:
 797              	.LBB124:
 151:ROSSerial/ros/node_handle.h ****   {
 152:ROSSerial/ros/node_handle.h **** 
 153:ROSSerial/ros/node_handle.h ****     for (unsigned int i = 0; i < MAX_PUBLISHERS; i++) {
 798              		.loc 7 153 0
 799 0020 042B     		cmp	r3, #4
 800 0022 0CD8     		bhi	.L56
 154:ROSSerial/ros/node_handle.h ****       publishers[i] = 0;
 801              		.loc 7 154 0
 802 0024 1E48     		ldr	r0, .L60
 803 0026 03F58372 		add	r2, r3, #262
 804 002a 0021     		movs	r1, #0
 805 002c 40F82210 		str	r1, [r0, r2, lsl #2]
 155:ROSSerial/ros/node_handle.h ****       publishers2[i].topic_id = 0;
 806              		.loc 7 155 0
 807 0030 1422     		movs	r2, #20
 808 0032 02FB0302 		mla	r2, r2, r3, r0
ARM GAS  /var/folders/l3/4y5292px21b4835bsnjwqc7w009kq1/T//ccaF8PhA.s 			page 26


 809 0036 A2F82C14 		strh	r1, [r2, #1068]	@ movhi
 153:ROSSerial/ros/node_handle.h ****       publishers[i] = 0;
 810              		.loc 7 153 0
 811 003a 0133     		adds	r3, r3, #1
 812              	.LVL81:
 813 003c F0E7     		b	.L52
 814              	.L56:
 815              	.LBE124:
 816              	.LBB125:
 156:ROSSerial/ros/node_handle.h ****     }
 157:ROSSerial/ros/node_handle.h **** 
 158:ROSSerial/ros/node_handle.h ****     for (unsigned int i = 0; i < MAX_SUBSCRIBERS; i++) {
 817              		.loc 7 158 0
 818 003e 0023     		movs	r3, #0
 819              	.LVL82:
 820              	.L51:
 821 0040 042B     		cmp	r3, #4
 822 0042 0CD8     		bhi	.L57
 159:ROSSerial/ros/node_handle.h ****       subscribers[i] = 0;
 823              		.loc 7 159 0
 824 0044 1648     		ldr	r0, .L60
 825 0046 03F59272 		add	r2, r3, #292
 826 004a 0021     		movs	r1, #0
 827 004c 40F82210 		str	r1, [r0, r2, lsl #2]
 160:ROSSerial/ros/node_handle.h ****       subscribers2[i].topic_id = 0;
 828              		.loc 7 160 0
 829 0050 1422     		movs	r2, #20
 830 0052 02FB0302 		mla	r2, r2, r3, r0
 831 0056 A2F8A414 		strh	r1, [r2, #1188]	@ movhi
 158:ROSSerial/ros/node_handle.h ****       subscribers[i] = 0;
 832              		.loc 7 158 0
 833 005a 0133     		adds	r3, r3, #1
 834              	.LVL83:
 835 005c F0E7     		b	.L51
 836              	.L57:
 837              	.LBE125:
 838              	.LBB126:
 161:ROSSerial/ros/node_handle.h ****     }
 162:ROSSerial/ros/node_handle.h **** 
 163:ROSSerial/ros/node_handle.h ****     for (unsigned int i = 0; i < INPUT_SIZE; i++)
 839              		.loc 7 163 0
 840 005e 0023     		movs	r3, #0
 841              	.LVL84:
 842              	.L53:
 843 0060 B3F5007F 		cmp	r3, #512
 844 0064 05D2     		bcs	.L58
 164:ROSSerial/ros/node_handle.h ****       message_in[i] = 0;
 845              		.loc 7 164 0
 846 0066 0E4A     		ldr	r2, .L60
 847 0068 1A44     		add	r2, r2, r3
 848 006a 0021     		movs	r1, #0
 849 006c 1176     		strb	r1, [r2, #24]
 163:ROSSerial/ros/node_handle.h ****       message_in[i] = 0;
 850              		.loc 7 163 0
 851 006e 0133     		adds	r3, r3, #1
 852              	.LVL85:
 853 0070 F6E7     		b	.L53
ARM GAS  /var/folders/l3/4y5292px21b4835bsnjwqc7w009kq1/T//ccaF8PhA.s 			page 27


 854              	.L58:
 855              	.LBE126:
 856              	.LBB127:
 165:ROSSerial/ros/node_handle.h **** 
 166:ROSSerial/ros/node_handle.h ****     for (unsigned int i = 0; i < OUTPUT_SIZE; i++)
 857              		.loc 7 166 0
 858 0072 0023     		movs	r3, #0
 859              	.LVL86:
 860              	.L54:
 861 0074 B3F5007F 		cmp	r3, #512
 862 0078 06D2     		bcs	.L55
 167:ROSSerial/ros/node_handle.h ****       message_out[i] = 0;
 863              		.loc 7 167 0
 864 007a 094A     		ldr	r2, .L60
 865 007c 1A44     		add	r2, r2, r3
 866 007e 0021     		movs	r1, #0
 867 0080 82F81812 		strb	r1, [r2, #536]
 166:ROSSerial/ros/node_handle.h ****       message_out[i] = 0;
 868              		.loc 7 166 0
 869 0084 0133     		adds	r3, r3, #1
 870              	.LVL87:
 871 0086 F5E7     		b	.L54
 872              	.L55:
 873              	.LBE127:
 168:ROSSerial/ros/node_handle.h **** 
 169:ROSSerial/ros/node_handle.h ****     req_param_resp.ints_length = 0;
 874              		.loc 7 169 0
 875 0088 054B     		ldr	r3, .L60
 876              	.LVL88:
 877 008a 0022     		movs	r2, #0
 878 008c 83F83425 		strb	r2, [r3, #1332]
 170:ROSSerial/ros/node_handle.h ****     req_param_resp.ints = NULL;
 879              		.loc 7 170 0
 880 0090 C3F83C25 		str	r2, [r3, #1340]
 171:ROSSerial/ros/node_handle.h ****     req_param_resp.floats_length = 0;
 881              		.loc 7 171 0
 882 0094 83F84025 		strb	r2, [r3, #1344]
 172:ROSSerial/ros/node_handle.h ****     req_param_resp.floats = NULL;
 883              		.loc 7 172 0
 884 0098 C3F84825 		str	r2, [r3, #1352]
 173:ROSSerial/ros/node_handle.h ****     req_param_resp.ints_length = 0;
 174:ROSSerial/ros/node_handle.h ****     req_param_resp.ints = NULL;
 175:ROSSerial/ros/node_handle.h **** 
 176:ROSSerial/ros/node_handle.h ****     spin_timeout_ = 0;
 885              		.loc 7 176 0
 886 009c 5A61     		str	r2, [r3, #20]
 887              	.LBE123:
 888              	.LBE120:
 889              	.LBE119:
 890              	.LBE118:
 891              		.loc 6 49 0
 892 009e B1E7     		b	.L49
 893              	.L61:
 894              		.align	2
 895              	.L60:
 896 00a0 00000000 		.word	.LANCHOR1
 897 00a4 08000000 		.word	_ZTVN3ros11NodeHandle_I13STM32HardwareLi5ELi5ELi512ELi512EEE+8
ARM GAS  /var/folders/l3/4y5292px21b4835bsnjwqc7w009kq1/T//ccaF8PhA.s 			page 28


 898 00a8 08000000 		.word	_ZTVN14rosserial_msgs20RequestParamResponseE+8
 899              		.cfi_endproc
 900              	.LFE510:
 901              		.cantunwind
 902              		.fnend
 904              		.section	.text._ZN3ros11NodeHandle_I13STM32HardwareLi5ELi5ELi512ELi512EE9connectedEv,"axG",%progbi
 905              		.align	1
 906              		.weak	_ZN3ros11NodeHandle_I13STM32HardwareLi5ELi5ELi512ELi512EE9connectedEv
 907              		.syntax unified
 908              		.thumb
 909              		.thumb_func
 910              		.fpu fpv4-sp-d16
 912              	_ZN3ros11NodeHandle_I13STM32HardwareLi5ELi5ELi512ELi512EE9connectedEv:
 913              		.fnstart
 914              	.LFB513:
 177:ROSSerial/ros/node_handle.h ****   }
 178:ROSSerial/ros/node_handle.h **** 
 179:ROSSerial/ros/node_handle.h ****   Hardware* getHardware()
 180:ROSSerial/ros/node_handle.h ****   {
 181:ROSSerial/ros/node_handle.h ****     return &hardware_;
 182:ROSSerial/ros/node_handle.h ****   }
 183:ROSSerial/ros/node_handle.h **** 
 184:ROSSerial/ros/node_handle.h ****   /* Start serial, initialize buffers */
 185:ROSSerial/ros/node_handle.h ****   void initNode()
 186:ROSSerial/ros/node_handle.h ****   {
 187:ROSSerial/ros/node_handle.h ****     hardware_.init();
 188:ROSSerial/ros/node_handle.h ****     mode_ = 0;
 189:ROSSerial/ros/node_handle.h ****     bytes_ = 0;
 190:ROSSerial/ros/node_handle.h ****     index_ = 0;
 191:ROSSerial/ros/node_handle.h ****     topic_ = 0;
 192:ROSSerial/ros/node_handle.h ****     printf("Node init\n");
 193:ROSSerial/ros/node_handle.h ****   };
 194:ROSSerial/ros/node_handle.h **** 
 195:ROSSerial/ros/node_handle.h ****   /* Start a named port, which may be network server IP, initialize buffers */
 196:ROSSerial/ros/node_handle.h ****   void initNode(char *portName)
 197:ROSSerial/ros/node_handle.h ****   {
 198:ROSSerial/ros/node_handle.h ****     hardware_.init(portName);
 199:ROSSerial/ros/node_handle.h ****     mode_ = 0;
 200:ROSSerial/ros/node_handle.h ****     bytes_ = 0;
 201:ROSSerial/ros/node_handle.h ****     index_ = 0;
 202:ROSSerial/ros/node_handle.h ****     topic_ = 0;
 203:ROSSerial/ros/node_handle.h ****   };
 204:ROSSerial/ros/node_handle.h **** 
 205:ROSSerial/ros/node_handle.h ****   /**
 206:ROSSerial/ros/node_handle.h ****    * @brief Sets the maximum time in millisconds that spinOnce() can work.
 207:ROSSerial/ros/node_handle.h ****    * This will not effect the processing of the buffer, as spinOnce processes
 208:ROSSerial/ros/node_handle.h ****    * one byte at a time. It simply sets the maximum time that one call can
 209:ROSSerial/ros/node_handle.h ****    * process for. You can choose to clear the buffer if that is beneficial if
 210:ROSSerial/ros/node_handle.h ****    * SPIN_TIMEOUT is returned from spinOnce().
 211:ROSSerial/ros/node_handle.h ****    * @param timeout The timeout in milliseconds that spinOnce will function.
 212:ROSSerial/ros/node_handle.h ****    */
 213:ROSSerial/ros/node_handle.h ****   void setSpinTimeout(const uint32_t& timeout)
 214:ROSSerial/ros/node_handle.h ****   {
 215:ROSSerial/ros/node_handle.h ****      spin_timeout_ = timeout;
 216:ROSSerial/ros/node_handle.h ****   }
 217:ROSSerial/ros/node_handle.h **** 
 218:ROSSerial/ros/node_handle.h **** protected:
ARM GAS  /var/folders/l3/4y5292px21b4835bsnjwqc7w009kq1/T//ccaF8PhA.s 			page 29


 219:ROSSerial/ros/node_handle.h ****   //State machine variables for spinOnce
 220:ROSSerial/ros/node_handle.h ****   int mode_;
 221:ROSSerial/ros/node_handle.h ****   int bytes_;
 222:ROSSerial/ros/node_handle.h ****   int topic_;
 223:ROSSerial/ros/node_handle.h ****   int index_;
 224:ROSSerial/ros/node_handle.h ****   int checksum_;
 225:ROSSerial/ros/node_handle.h **** 
 226:ROSSerial/ros/node_handle.h ****   bool configured_;
 227:ROSSerial/ros/node_handle.h **** 
 228:ROSSerial/ros/node_handle.h ****   /* used for syncing the time */
 229:ROSSerial/ros/node_handle.h ****   uint32_t last_sync_time;
 230:ROSSerial/ros/node_handle.h ****   uint32_t last_sync_receive_time;
 231:ROSSerial/ros/node_handle.h ****   uint32_t last_msg_timeout_time;
 232:ROSSerial/ros/node_handle.h **** 
 233:ROSSerial/ros/node_handle.h **** public:
 234:ROSSerial/ros/node_handle.h ****   /* This function goes in your loop() function, it handles
 235:ROSSerial/ros/node_handle.h ****    *  serial input and callbacks for subscribers.
 236:ROSSerial/ros/node_handle.h ****    */
 237:ROSSerial/ros/node_handle.h **** 
 238:ROSSerial/ros/node_handle.h ****   virtual int spinOnce() {
 239:ROSSerial/ros/node_handle.h ****     return spinOnce1();
 240:ROSSerial/ros/node_handle.h ****   }
 241:ROSSerial/ros/node_handle.h **** 
 242:ROSSerial/ros/node_handle.h **** //calling spinOnce() directly from spin_task gives stackoverflow
 243:ROSSerial/ros/node_handle.h ****   int spinOnce1()
 244:ROSSerial/ros/node_handle.h ****   {
 245:ROSSerial/ros/node_handle.h ****     static void (*s_CallBack)(char *);
 246:ROSSerial/ros/node_handle.h ****     
 247:ROSSerial/ros/node_handle.h ****     //printf("spinOnce\n");
 248:ROSSerial/ros/node_handle.h ****     /* restart if timed out */
 249:ROSSerial/ros/node_handle.h ****     uint32_t c_time = hardware_.time();
 250:ROSSerial/ros/node_handle.h ****     //printf("spinOnce %ld\n",c_time);
 251:ROSSerial/ros/node_handle.h **** 
 252:ROSSerial/ros/node_handle.h ****     if ((c_time - last_sync_receive_time) > (SYNC_SECONDS * 2200))
 253:ROSSerial/ros/node_handle.h ****     {
 254:ROSSerial/ros/node_handle.h ****       configured_ = false;
 255:ROSSerial/ros/node_handle.h ****     }
 256:ROSSerial/ros/node_handle.h **** 
 257:ROSSerial/ros/node_handle.h ****     /* reset if message has timed out */
 258:ROSSerial/ros/node_handle.h ****     if (mode_ != MODE_FIRST_FF)
 259:ROSSerial/ros/node_handle.h ****     {
 260:ROSSerial/ros/node_handle.h ****       if (c_time > last_msg_timeout_time)
 261:ROSSerial/ros/node_handle.h ****       {
 262:ROSSerial/ros/node_handle.h ****         mode_ = MODE_FIRST_FF;
 263:ROSSerial/ros/node_handle.h ****       }
 264:ROSSerial/ros/node_handle.h ****     }
 265:ROSSerial/ros/node_handle.h **** 
 266:ROSSerial/ros/node_handle.h ****     /* while available buffer, read data */
 267:ROSSerial/ros/node_handle.h ****     while (true)
 268:ROSSerial/ros/node_handle.h ****     {
 269:ROSSerial/ros/node_handle.h ****       // If a timeout has been specified, check how long spinOnce has been running.
 270:ROSSerial/ros/node_handle.h ****       if (spin_timeout_ > 0)
 271:ROSSerial/ros/node_handle.h ****       {
 272:ROSSerial/ros/node_handle.h ****         // If the maximum processing timeout has been exceeded, exit with error.
 273:ROSSerial/ros/node_handle.h ****         // The next spinOnce can continue where it left off, or optionally
 274:ROSSerial/ros/node_handle.h ****         // based on the application in use, the hardware buffer could be flushed
 275:ROSSerial/ros/node_handle.h ****         // and start fresh.
ARM GAS  /var/folders/l3/4y5292px21b4835bsnjwqc7w009kq1/T//ccaF8PhA.s 			page 30


 276:ROSSerial/ros/node_handle.h ****         if ((hardware_.time() - c_time) > spin_timeout_)
 277:ROSSerial/ros/node_handle.h ****         {
 278:ROSSerial/ros/node_handle.h ****           // Exit the spin, processing timeout exceeded.
 279:ROSSerial/ros/node_handle.h ****           return SPIN_TIMEOUT;
 280:ROSSerial/ros/node_handle.h ****         }
 281:ROSSerial/ros/node_handle.h ****       }
 282:ROSSerial/ros/node_handle.h ****       int data = hardware_.read();
 283:ROSSerial/ros/node_handle.h ****       if (data < 0)
 284:ROSSerial/ros/node_handle.h ****         break;
 285:ROSSerial/ros/node_handle.h ****       checksum_ += data;
 286:ROSSerial/ros/node_handle.h ****       if (mode_ == MODE_MESSAGE)          /* message data being recieved */
 287:ROSSerial/ros/node_handle.h ****       {
 288:ROSSerial/ros/node_handle.h ****         message_in[index_++] = data;
 289:ROSSerial/ros/node_handle.h ****         bytes_--;
 290:ROSSerial/ros/node_handle.h ****         if (bytes_ == 0)                 /* is message complete? if so, checksum */
 291:ROSSerial/ros/node_handle.h ****           mode_ = MODE_MSG_CHECKSUM;
 292:ROSSerial/ros/node_handle.h ****       }
 293:ROSSerial/ros/node_handle.h ****       else if (mode_ == MODE_FIRST_FF)
 294:ROSSerial/ros/node_handle.h ****       {
 295:ROSSerial/ros/node_handle.h ****         if (data == 0xff)
 296:ROSSerial/ros/node_handle.h ****         {
 297:ROSSerial/ros/node_handle.h ****           mode_++;
 298:ROSSerial/ros/node_handle.h ****           last_msg_timeout_time = c_time + SERIAL_MSG_TIMEOUT;
 299:ROSSerial/ros/node_handle.h ****         }
 300:ROSSerial/ros/node_handle.h ****         else if (hardware_.time() - c_time > (SYNC_SECONDS * 1000))
 301:ROSSerial/ros/node_handle.h ****         {
 302:ROSSerial/ros/node_handle.h ****           /* We have been stuck in spinOnce too long, return error */
 303:ROSSerial/ros/node_handle.h ****           configured_ = false;
 304:ROSSerial/ros/node_handle.h ****           return SPIN_TIMEOUT;
 305:ROSSerial/ros/node_handle.h ****         }
 306:ROSSerial/ros/node_handle.h ****       }
 307:ROSSerial/ros/node_handle.h ****       else if (mode_ == MODE_PROTOCOL_VER)
 308:ROSSerial/ros/node_handle.h ****       {
 309:ROSSerial/ros/node_handle.h ****         if (data == PROTOCOL_VER)
 310:ROSSerial/ros/node_handle.h ****         {
 311:ROSSerial/ros/node_handle.h ****           mode_++;
 312:ROSSerial/ros/node_handle.h ****         }
 313:ROSSerial/ros/node_handle.h ****         else
 314:ROSSerial/ros/node_handle.h ****         {
 315:ROSSerial/ros/node_handle.h ****           mode_ = MODE_FIRST_FF;
 316:ROSSerial/ros/node_handle.h ****           if (configured_ == false)
 317:ROSSerial/ros/node_handle.h ****             requestSyncTime();  /* send a msg back showing our protocol version */
 318:ROSSerial/ros/node_handle.h ****         }
 319:ROSSerial/ros/node_handle.h ****       }
 320:ROSSerial/ros/node_handle.h ****       else if (mode_ == MODE_SIZE_L)      /* bottom half of message size */
 321:ROSSerial/ros/node_handle.h ****       {
 322:ROSSerial/ros/node_handle.h ****         bytes_ = data;
 323:ROSSerial/ros/node_handle.h ****         index_ = 0;
 324:ROSSerial/ros/node_handle.h ****         mode_++;
 325:ROSSerial/ros/node_handle.h ****         checksum_ = data;               /* first byte for calculating size checksum */
 326:ROSSerial/ros/node_handle.h ****       }
 327:ROSSerial/ros/node_handle.h ****       else if (mode_ == MODE_SIZE_H)      /* top half of message size */
 328:ROSSerial/ros/node_handle.h ****       {
 329:ROSSerial/ros/node_handle.h ****         bytes_ += data << 8;
 330:ROSSerial/ros/node_handle.h ****         mode_++;
 331:ROSSerial/ros/node_handle.h ****       }
 332:ROSSerial/ros/node_handle.h ****       else if (mode_ == MODE_SIZE_CHECKSUM)
ARM GAS  /var/folders/l3/4y5292px21b4835bsnjwqc7w009kq1/T//ccaF8PhA.s 			page 31


 333:ROSSerial/ros/node_handle.h ****       {
 334:ROSSerial/ros/node_handle.h ****         if ((checksum_ % 256) == 255)
 335:ROSSerial/ros/node_handle.h ****           mode_++;
 336:ROSSerial/ros/node_handle.h ****         else
 337:ROSSerial/ros/node_handle.h ****           mode_ = MODE_FIRST_FF;          /* Abandon the frame if the msg len is wrong */
 338:ROSSerial/ros/node_handle.h ****       }
 339:ROSSerial/ros/node_handle.h ****       else if (mode_ == MODE_TOPIC_L)     /* bottom half of topic id */
 340:ROSSerial/ros/node_handle.h ****       {
 341:ROSSerial/ros/node_handle.h ****         topic_ = data;
 342:ROSSerial/ros/node_handle.h ****         mode_++;
 343:ROSSerial/ros/node_handle.h ****         checksum_ = data;               /* first byte included in checksum */
 344:ROSSerial/ros/node_handle.h ****       }
 345:ROSSerial/ros/node_handle.h ****       else if (mode_ == MODE_TOPIC_H)     /* top half of topic id */
 346:ROSSerial/ros/node_handle.h ****       {
 347:ROSSerial/ros/node_handle.h ****         topic_ += data << 8;
 348:ROSSerial/ros/node_handle.h ****         mode_ = MODE_MESSAGE;
 349:ROSSerial/ros/node_handle.h ****         if (bytes_ == 0)
 350:ROSSerial/ros/node_handle.h ****           mode_ = MODE_MSG_CHECKSUM;
 351:ROSSerial/ros/node_handle.h ****       }
 352:ROSSerial/ros/node_handle.h ****       else if (mode_ == MODE_MSG_CHECKSUM)    /* do checksum */
 353:ROSSerial/ros/node_handle.h ****       {
 354:ROSSerial/ros/node_handle.h ****         mode_ = MODE_FIRST_FF;
 355:ROSSerial/ros/node_handle.h ****         if ((checksum_ % 256) == 255)
 356:ROSSerial/ros/node_handle.h ****         {
 357:ROSSerial/ros/node_handle.h ****           if (topic_ == TopicInfo::ID_PUBLISHER)
 358:ROSSerial/ros/node_handle.h ****           {
 359:ROSSerial/ros/node_handle.h ****             requestSyncTime();
 360:ROSSerial/ros/node_handle.h ****             negotiateTopics();
 361:ROSSerial/ros/node_handle.h ****             last_sync_time = c_time;
 362:ROSSerial/ros/node_handle.h ****             last_sync_receive_time = c_time;
 363:ROSSerial/ros/node_handle.h ****             return SPIN_ERR;
 364:ROSSerial/ros/node_handle.h ****           }
 365:ROSSerial/ros/node_handle.h ****           else if (topic_ == TopicInfo::ID_TIME)
 366:ROSSerial/ros/node_handle.h ****           {
 367:ROSSerial/ros/node_handle.h ****             syncTime(message_in);
 368:ROSSerial/ros/node_handle.h ****           }
 369:ROSSerial/ros/node_handle.h ****           else if (topic_ == TopicInfo::ID_PARAMETER_REQUEST)
 370:ROSSerial/ros/node_handle.h ****           {
 371:ROSSerial/ros/node_handle.h ****             req_param_resp.deserialize(message_in);
 372:ROSSerial/ros/node_handle.h ****             param_recieved = true;
 373:ROSSerial/ros/node_handle.h ****           }
 374:ROSSerial/ros/node_handle.h ****           else if (topic_ == TopicInfo::ID_TX_STOP)
 375:ROSSerial/ros/node_handle.h ****           {
 376:ROSSerial/ros/node_handle.h ****             configured_ = false;
 377:ROSSerial/ros/node_handle.h ****           }
 378:ROSSerial/ros/node_handle.h ****           else
 379:ROSSerial/ros/node_handle.h ****           {
 380:ROSSerial/ros/node_handle.h ****             if (subscribers2[topic_ - 100].topic_id != 0) {
 381:ROSSerial/ros/node_handle.h ****               s_CallBack = (void (*)(char*))subscribers2[topic_ - 100].callback;
 382:ROSSerial/ros/node_handle.h ****               //printf("Calling callback with %id\n",subscribers2[topic_ - 100].topic_id);
 383:ROSSerial/ros/node_handle.h ****               s_CallBack(message_in);
 384:ROSSerial/ros/node_handle.h ****             }
 385:ROSSerial/ros/node_handle.h ****           }
 386:ROSSerial/ros/node_handle.h ****         }
 387:ROSSerial/ros/node_handle.h ****       }
 388:ROSSerial/ros/node_handle.h ****     }
 389:ROSSerial/ros/node_handle.h **** 
ARM GAS  /var/folders/l3/4y5292px21b4835bsnjwqc7w009kq1/T//ccaF8PhA.s 			page 32


 390:ROSSerial/ros/node_handle.h ****     /* occasionally sync time */
 391:ROSSerial/ros/node_handle.h ****     if (configured_ && ((c_time - last_sync_time) > (SYNC_SECONDS * 500)))
 392:ROSSerial/ros/node_handle.h ****     {
 393:ROSSerial/ros/node_handle.h ****       requestSyncTime();
 394:ROSSerial/ros/node_handle.h ****       last_sync_time = c_time;
 395:ROSSerial/ros/node_handle.h ****     }
 396:ROSSerial/ros/node_handle.h **** 
 397:ROSSerial/ros/node_handle.h ****     return SPIN_OK;
 398:ROSSerial/ros/node_handle.h ****   }
 399:ROSSerial/ros/node_handle.h **** 
 400:ROSSerial/ros/node_handle.h **** 
 401:ROSSerial/ros/node_handle.h ****   /* Are we connected to the PC? */
 402:ROSSerial/ros/node_handle.h ****   virtual bool connected()
 915              		.loc 7 402 0
 916              		.cfi_startproc
 917              		@ args = 0, pretend = 0, frame = 0
 918              		@ frame_needed = 0, uses_anonymous_args = 0
 919              		@ link register save eliminated.
 920              	.LVL89:
 403:ROSSerial/ros/node_handle.h ****   {
 404:ROSSerial/ros/node_handle.h ****     return configured_;
 405:ROSSerial/ros/node_handle.h ****   };
 921              		.loc 7 405 0
 922 0000 90F81C05 		ldrb	r0, [r0, #1308]	@ zero_extendqisi2
 923              	.LVL90:
 924 0004 7047     		bx	lr
 925              		.cfi_endproc
 926              	.LFE513:
 927              		.cantunwind
 928              		.fnend
 930              		.section	.text._ZNK8std_msgs6String9serializeEPh,"axG",%progbits,_ZNK8std_msgs6String9serializeEPh
 931              		.align	1
 932              		.weak	_ZNK8std_msgs6String9serializeEPh
 933              		.syntax unified
 934              		.thumb
 935              		.thumb_func
 936              		.fpu fpv4-sp-d16
 938              	_ZNK8std_msgs6String9serializeEPh:
 939              		.fnstart
 940              	.LFB403:
  18:ROSSerial/std_msgs/ROSString.h ****     {
 941              		.loc 5 18 0
 942              		.cfi_startproc
 943              		@ args = 0, pretend = 0, frame = 0
 944              		@ frame_needed = 0, uses_anonymous_args = 0
 945              	.LVL91:
 946 0000 70B5     		push	{r4, r5, r6, lr}
 947              	.LCFI6:
 948              		.cfi_def_cfa_offset 16
 949              		.cfi_offset 4, -16
 950              		.cfi_offset 5, -12
 951              		.cfi_offset 6, -8
 952              		.cfi_offset 14, -4
 953 0002 0646     		mov	r6, r0
 954 0004 0C46     		mov	r4, r1
 955              	.LVL92:
  21:ROSSerial/std_msgs/ROSString.h ****       memcpy(outbuffer + offset, &length_data, sizeof(uint32_t));
ARM GAS  /var/folders/l3/4y5292px21b4835bsnjwqc7w009kq1/T//ccaF8PhA.s 			page 33


 956              		.loc 5 21 0
 957 0006 4068     		ldr	r0, [r0, #4]
 958              	.LVL93:
 959 0008 FFF7FEFF 		bl	strlen
 960              	.LVL94:
 961 000c 0546     		mov	r5, r0
 962              	.LVL95:
  22:ROSSerial/std_msgs/ROSString.h ****       offset += 4;
 963              		.loc 5 22 0
 964 000e 2046     		mov	r0, r4
 965              	.LVL96:
 966 0010 40F8045B 		str	r5, [r0], #4	@ unaligned
 967              	.LVL97:
  24:ROSSerial/std_msgs/ROSString.h ****       offset += length_data;
 968              		.loc 5 24 0
 969 0014 2A46     		mov	r2, r5
 970 0016 7168     		ldr	r1, [r6, #4]
 971 0018 FFF7FEFF 		bl	memcpy
 972              	.LVL98:
  27:ROSSerial/std_msgs/ROSString.h **** 
 973              		.loc 5 27 0
 974 001c 281D     		adds	r0, r5, #4
 975              	.LVL99:
 976 001e 70BD     		pop	{r4, r5, r6, pc}
 977              		.cfi_endproc
 978              	.LFE403:
 979              		.cantunwind
 980              		.fnend
 982              		.section	.text._ZNK14rosserial_msgs9TopicInfo9serializeEPh,"axG",%progbits,_ZNK14rosserial_msgs9To
 983              		.align	1
 984              		.weak	_ZNK14rosserial_msgs9TopicInfo9serializeEPh
 985              		.syntax unified
 986              		.thumb
 987              		.thumb_func
 988              		.fpu fpv4-sp-d16
 990              	_ZNK14rosserial_msgs9TopicInfo9serializeEPh:
 991              		.fnstart
 992              	.LFB382:
  29:ROSSerial/rosserial_msgs/TopicInfo.h ****     {
 993              		.loc 2 29 0
 994              		.cfi_startproc
 995              		@ args = 0, pretend = 0, frame = 0
 996              		@ frame_needed = 0, uses_anonymous_args = 0
 997              	.LVL100:
 998 0000 2DE9F041 		push	{r4, r5, r6, r7, r8, lr}
 999              	.LCFI7:
 1000              		.cfi_def_cfa_offset 24
 1001              		.cfi_offset 4, -24
 1002              		.cfi_offset 5, -20
 1003              		.cfi_offset 6, -16
 1004              		.cfi_offset 7, -12
 1005              		.cfi_offset 8, -8
 1006              		.cfi_offset 14, -4
 1007 0004 0646     		mov	r6, r0
 1008 0006 0C46     		mov	r4, r1
 1009              	.LVL101:
  32:ROSSerial/rosserial_msgs/TopicInfo.h ****       *(outbuffer + offset + 1) = (this->topic_id >> (8 * 1)) & 0xFF;
ARM GAS  /var/folders/l3/4y5292px21b4835bsnjwqc7w009kq1/T//ccaF8PhA.s 			page 34


 1010              		.loc 2 32 0
 1011 0008 8388     		ldrh	r3, [r0, #4]
 1012 000a 0B70     		strb	r3, [r1]
  33:ROSSerial/rosserial_msgs/TopicInfo.h ****       offset += sizeof(this->topic_id);
 1013              		.loc 2 33 0
 1014 000c 8388     		ldrh	r3, [r0, #4]
 1015 000e 1B0A     		lsrs	r3, r3, #8
 1016 0010 4B70     		strb	r3, [r1, #1]
 1017              	.LVL102:
  35:ROSSerial/rosserial_msgs/TopicInfo.h ****       memcpy(outbuffer + offset, &length_topic_name, sizeof(uint32_t));
 1018              		.loc 2 35 0
 1019 0012 8068     		ldr	r0, [r0, #8]
 1020              	.LVL103:
 1021 0014 FFF7FEFF 		bl	strlen
 1022              	.LVL104:
 1023 0018 0746     		mov	r7, r0
 1024              	.LVL105:
  36:ROSSerial/rosserial_msgs/TopicInfo.h ****       offset += 4;
 1025              		.loc 2 36 0
 1026 001a C4F80200 		str	r0, [r4, #2]	@ unaligned
 1027              	.LVL106:
  38:ROSSerial/rosserial_msgs/TopicInfo.h ****       offset += length_topic_name;
 1028              		.loc 2 38 0
 1029 001e 0246     		mov	r2, r0
 1030 0020 B168     		ldr	r1, [r6, #8]
 1031 0022 A01D     		adds	r0, r4, #6
 1032              	.LVL107:
 1033 0024 FFF7FEFF 		bl	memcpy
 1034              	.LVL108:
  39:ROSSerial/rosserial_msgs/TopicInfo.h ****       uint32_t length_message_type = strlen(this->message_type);
 1035              		.loc 2 39 0
 1036 0028 07F10608 		add	r8, r7, #6
 1037              	.LVL109:
  40:ROSSerial/rosserial_msgs/TopicInfo.h ****       memcpy(outbuffer + offset, &length_message_type, sizeof(uint32_t));
 1038              		.loc 2 40 0
 1039 002c F068     		ldr	r0, [r6, #12]
 1040 002e FFF7FEFF 		bl	strlen
 1041              	.LVL110:
 1042 0032 0546     		mov	r5, r0
 1043              	.LVL111:
  41:ROSSerial/rosserial_msgs/TopicInfo.h ****       offset += 4;
 1044              		.loc 2 41 0
 1045 0034 44F80800 		str	r0, [r4, r8]	@ unaligned
  42:ROSSerial/rosserial_msgs/TopicInfo.h ****       memcpy(outbuffer + offset, this->message_type, length_message_type);
 1046              		.loc 2 42 0
 1047 0038 0A37     		adds	r7, r7, #10
 1048              	.LVL112:
  43:ROSSerial/rosserial_msgs/TopicInfo.h ****       offset += length_message_type;
 1049              		.loc 2 43 0
 1050 003a 0246     		mov	r2, r0
 1051 003c F168     		ldr	r1, [r6, #12]
 1052 003e E019     		adds	r0, r4, r7
 1053              	.LVL113:
 1054 0040 FFF7FEFF 		bl	memcpy
 1055              	.LVL114:
  44:ROSSerial/rosserial_msgs/TopicInfo.h ****       uint32_t length_md5sum = strlen(this->md5sum);
 1056              		.loc 2 44 0
ARM GAS  /var/folders/l3/4y5292px21b4835bsnjwqc7w009kq1/T//ccaF8PhA.s 			page 35


 1057 0044 2F44     		add	r7, r7, r5
 1058              	.LVL115:
  45:ROSSerial/rosserial_msgs/TopicInfo.h ****       memcpy(outbuffer + offset, &length_md5sum, sizeof(uint32_t));
 1059              		.loc 2 45 0
 1060 0046 3069     		ldr	r0, [r6, #16]
 1061 0048 FFF7FEFF 		bl	strlen
 1062              	.LVL116:
 1063 004c 0546     		mov	r5, r0
 1064              	.LVL117:
  46:ROSSerial/rosserial_msgs/TopicInfo.h ****       offset += 4;
 1065              		.loc 2 46 0
 1066 004e E051     		str	r0, [r4, r7]	@ unaligned
  47:ROSSerial/rosserial_msgs/TopicInfo.h ****       memcpy(outbuffer + offset, this->md5sum, length_md5sum);
 1067              		.loc 2 47 0
 1068 0050 0437     		adds	r7, r7, #4
 1069              	.LVL118:
  48:ROSSerial/rosserial_msgs/TopicInfo.h ****       offset += length_md5sum;
 1070              		.loc 2 48 0
 1071 0052 0246     		mov	r2, r0
 1072 0054 3169     		ldr	r1, [r6, #16]
 1073 0056 E019     		adds	r0, r4, r7
 1074              	.LVL119:
 1075 0058 FFF7FEFF 		bl	memcpy
 1076              	.LVL120:
  49:ROSSerial/rosserial_msgs/TopicInfo.h ****       union {
 1077              		.loc 2 49 0
 1078 005c E819     		adds	r0, r5, r7
 1079              	.LVL121:
  54:ROSSerial/rosserial_msgs/TopicInfo.h ****       *(outbuffer + offset + 0) = (u_buffer_size.base >> (8 * 0)) & 0xFF;
 1080              		.loc 2 54 0
 1081 005e 7369     		ldr	r3, [r6, #20]
  55:ROSSerial/rosserial_msgs/TopicInfo.h ****       *(outbuffer + offset + 1) = (u_buffer_size.base >> (8 * 1)) & 0xFF;
 1082              		.loc 2 55 0
 1083 0060 2354     		strb	r3, [r4, r0]
  56:ROSSerial/rosserial_msgs/TopicInfo.h ****       *(outbuffer + offset + 2) = (u_buffer_size.base >> (8 * 2)) & 0xFF;
 1084              		.loc 2 56 0
 1085 0062 190A     		lsrs	r1, r3, #8
 1086 0064 421C     		adds	r2, r0, #1
 1087 0066 A154     		strb	r1, [r4, r2]
  57:ROSSerial/rosserial_msgs/TopicInfo.h ****       *(outbuffer + offset + 3) = (u_buffer_size.base >> (8 * 3)) & 0xFF;
 1088              		.loc 2 57 0
 1089 0068 190C     		lsrs	r1, r3, #16
 1090 006a 821C     		adds	r2, r0, #2
 1091 006c A154     		strb	r1, [r4, r2]
  58:ROSSerial/rosserial_msgs/TopicInfo.h ****       offset += sizeof(this->buffer_size);
 1092              		.loc 2 58 0
 1093 006e 1B0E     		lsrs	r3, r3, #24
 1094 0070 C21C     		adds	r2, r0, #3
 1095 0072 A354     		strb	r3, [r4, r2]
 1096              	.LVL122:
  61:ROSSerial/rosserial_msgs/TopicInfo.h **** 
 1097              		.loc 2 61 0
 1098 0074 0430     		adds	r0, r0, #4
 1099              	.LVL123:
 1100 0076 BDE8F081 		pop	{r4, r5, r6, r7, r8, pc}
 1101              		.cfi_endproc
 1102              	.LFE382:
ARM GAS  /var/folders/l3/4y5292px21b4835bsnjwqc7w009kq1/T//ccaF8PhA.s 			page 36


 1103              		.cantunwind
 1104              		.fnend
 1106              		.section	.text._ZNK14rosserial_msgs3Log9serializeEPh,"axG",%progbits,_ZNK14rosserial_msgs3Log9seri
 1107              		.align	1
 1108              		.weak	_ZNK14rosserial_msgs3Log9serializeEPh
 1109              		.syntax unified
 1110              		.thumb
 1111              		.thumb_func
 1112              		.fpu fpv4-sp-d16
 1114              	_ZNK14rosserial_msgs3Log9serializeEPh:
 1115              		.fnstart
 1116              	.LFB386:
  24:ROSSerial/rosserial_msgs/Log.h ****     {
 1117              		.loc 3 24 0
 1118              		.cfi_startproc
 1119              		@ args = 0, pretend = 0, frame = 0
 1120              		@ frame_needed = 0, uses_anonymous_args = 0
 1121              	.LVL124:
 1122 0000 70B5     		push	{r4, r5, r6, lr}
 1123              	.LCFI8:
 1124              		.cfi_def_cfa_offset 16
 1125              		.cfi_offset 4, -16
 1126              		.cfi_offset 5, -12
 1127              		.cfi_offset 6, -8
 1128              		.cfi_offset 14, -4
 1129 0002 0646     		mov	r6, r0
 1130 0004 0D46     		mov	r5, r1
 1131              	.LVL125:
  27:ROSSerial/rosserial_msgs/Log.h ****       offset += sizeof(this->level);
 1132              		.loc 3 27 0
 1133 0006 0379     		ldrb	r3, [r0, #4]	@ zero_extendqisi2
 1134 0008 0B70     		strb	r3, [r1]
 1135              	.LVL126:
  29:ROSSerial/rosserial_msgs/Log.h ****       memcpy(outbuffer + offset, &length_msg, sizeof(uint32_t));
 1136              		.loc 3 29 0
 1137 000a 8068     		ldr	r0, [r0, #8]
 1138              	.LVL127:
 1139 000c FFF7FEFF 		bl	strlen
 1140              	.LVL128:
 1141 0010 0446     		mov	r4, r0
 1142              	.LVL129:
  30:ROSSerial/rosserial_msgs/Log.h ****       offset += 4;
 1143              		.loc 3 30 0
 1144 0012 C5F80100 		str	r0, [r5, #1]	@ unaligned
 1145              	.LVL130:
  32:ROSSerial/rosserial_msgs/Log.h ****       offset += length_msg;
 1146              		.loc 3 32 0
 1147 0016 0246     		mov	r2, r0
 1148 0018 B168     		ldr	r1, [r6, #8]
 1149 001a 681D     		adds	r0, r5, #5
 1150              	.LVL131:
 1151 001c FFF7FEFF 		bl	memcpy
 1152              	.LVL132:
  35:ROSSerial/rosserial_msgs/Log.h **** 
 1153              		.loc 3 35 0
 1154 0020 601D     		adds	r0, r4, #5
 1155              	.LVL133:
ARM GAS  /var/folders/l3/4y5292px21b4835bsnjwqc7w009kq1/T//ccaF8PhA.s 			page 37


 1156 0022 70BD     		pop	{r4, r5, r6, pc}
 1157              		.cfi_endproc
 1158              	.LFE386:
 1159              		.cantunwind
 1160              		.fnend
 1162              		.section	.text._ZNK14rosserial_msgs20RequestParamResponse9serializeEPh,"axG",%progbits,_ZNK14rosse
 1163              		.align	1
 1164              		.weak	_ZNK14rosserial_msgs20RequestParamResponse9serializeEPh
 1165              		.syntax unified
 1166              		.thumb
 1167              		.thumb_func
 1168              		.fpu fpv4-sp-d16
 1170              	_ZNK14rosserial_msgs20RequestParamResponse9serializeEPh:
 1171              		.fnstart
 1172              	.LFB394:
  64:ROSSerial/rosserial_msgs/RequestParam.h ****     {
 1173              		.loc 4 64 0
 1174              		.cfi_startproc
 1175              		@ args = 0, pretend = 0, frame = 0
 1176              		@ frame_needed = 0, uses_anonymous_args = 0
 1177              	.LVL134:
 1178 0000 2DE9F041 		push	{r4, r5, r6, r7, r8, lr}
 1179              	.LCFI9:
 1180              		.cfi_def_cfa_offset 24
 1181              		.cfi_offset 4, -24
 1182              		.cfi_offset 5, -20
 1183              		.cfi_offset 6, -16
 1184              		.cfi_offset 7, -12
 1185              		.cfi_offset 8, -8
 1186              		.cfi_offset 14, -4
 1187 0004 0546     		mov	r5, r0
 1188 0006 0C46     		mov	r4, r1
 1189              	.LVL135:
  67:ROSSerial/rosserial_msgs/RequestParam.h ****       *(outbuffer + offset++) = 0;
 1190              		.loc 4 67 0
 1191 0008 0379     		ldrb	r3, [r0, #4]	@ zero_extendqisi2
 1192 000a 0B70     		strb	r3, [r1]
 1193              	.LVL136:
  68:ROSSerial/rosserial_msgs/RequestParam.h ****       *(outbuffer + offset++) = 0;
 1194              		.loc 4 68 0
 1195 000c 0022     		movs	r2, #0
 1196 000e 4A70     		strb	r2, [r1, #1]
 1197              	.LVL137:
  69:ROSSerial/rosserial_msgs/RequestParam.h ****       *(outbuffer + offset++) = 0;
 1198              		.loc 4 69 0
 1199 0010 8A70     		strb	r2, [r1, #2]
 1200              	.LVL138:
  70:ROSSerial/rosserial_msgs/RequestParam.h ****       for( uint8_t i = 0; i < ints_length; i++){
 1201              		.loc 4 70 0
 1202 0012 CA70     		strb	r2, [r1, #3]
 1203              	.LVL139:
 1204 0014 0423     		movs	r3, #4
 1205              	.LVL140:
 1206              	.L71:
 1207              	.LBB128:
  71:ROSSerial/rosserial_msgs/RequestParam.h ****       union {
 1208              		.loc 4 71 0 discriminator 3
ARM GAS  /var/folders/l3/4y5292px21b4835bsnjwqc7w009kq1/T//ccaF8PhA.s 			page 38


 1209 0016 2979     		ldrb	r1, [r5, #4]	@ zero_extendqisi2
 1210 0018 9142     		cmp	r1, r2
 1211 001a 10D9     		bls	.L70
 1212              	.LBB129:
  76:ROSSerial/rosserial_msgs/RequestParam.h ****       *(outbuffer + offset + 0) = (u_intsi.base >> (8 * 0)) & 0xFF;
 1213              		.loc 4 76 0 discriminator 2
 1214 001c E968     		ldr	r1, [r5, #12]
 1215 001e 51F82210 		ldr	r1, [r1, r2, lsl #2]
  77:ROSSerial/rosserial_msgs/RequestParam.h ****       *(outbuffer + offset + 1) = (u_intsi.base >> (8 * 1)) & 0xFF;
 1216              		.loc 4 77 0 discriminator 2
 1217 0022 E154     		strb	r1, [r4, r3]
  78:ROSSerial/rosserial_msgs/RequestParam.h ****       *(outbuffer + offset + 2) = (u_intsi.base >> (8 * 2)) & 0xFF;
 1218              		.loc 4 78 0 discriminator 2
 1219 0024 0E0A     		lsrs	r6, r1, #8
 1220 0026 581C     		adds	r0, r3, #1
 1221 0028 2654     		strb	r6, [r4, r0]
  79:ROSSerial/rosserial_msgs/RequestParam.h ****       *(outbuffer + offset + 3) = (u_intsi.base >> (8 * 3)) & 0xFF;
 1222              		.loc 4 79 0 discriminator 2
 1223 002a 0E0C     		lsrs	r6, r1, #16
 1224 002c 981C     		adds	r0, r3, #2
 1225 002e 2654     		strb	r6, [r4, r0]
  80:ROSSerial/rosserial_msgs/RequestParam.h ****       offset += sizeof(this->ints[i]);
 1226              		.loc 4 80 0 discriminator 2
 1227 0030 090E     		lsrs	r1, r1, #24
 1228 0032 D81C     		adds	r0, r3, #3
 1229 0034 2154     		strb	r1, [r4, r0]
  81:ROSSerial/rosserial_msgs/RequestParam.h ****       }
 1230              		.loc 4 81 0 discriminator 2
 1231 0036 0433     		adds	r3, r3, #4
 1232              	.LVL141:
 1233              	.LBE129:
  71:ROSSerial/rosserial_msgs/RequestParam.h ****       union {
 1234              		.loc 4 71 0 discriminator 2
 1235 0038 0132     		adds	r2, r2, #1
 1236              	.LVL142:
 1237 003a D2B2     		uxtb	r2, r2
 1238              	.LVL143:
 1239 003c EBE7     		b	.L71
 1240              	.L70:
 1241              	.LBE128:
  83:ROSSerial/rosserial_msgs/RequestParam.h ****       *(outbuffer + offset++) = 0;
 1242              		.loc 4 83 0
 1243 003e 591C     		adds	r1, r3, #1
 1244              	.LVL144:
 1245 0040 2A7C     		ldrb	r2, [r5, #16]	@ zero_extendqisi2
 1246              	.LVL145:
 1247 0042 E254     		strb	r2, [r4, r3]
  84:ROSSerial/rosserial_msgs/RequestParam.h ****       *(outbuffer + offset++) = 0;
 1248              		.loc 4 84 0
 1249 0044 981C     		adds	r0, r3, #2
 1250              	.LVL146:
 1251 0046 0022     		movs	r2, #0
 1252 0048 6254     		strb	r2, [r4, r1]
  85:ROSSerial/rosserial_msgs/RequestParam.h ****       *(outbuffer + offset++) = 0;
 1253              		.loc 4 85 0
 1254 004a D91C     		adds	r1, r3, #3
 1255              	.LVL147:
ARM GAS  /var/folders/l3/4y5292px21b4835bsnjwqc7w009kq1/T//ccaF8PhA.s 			page 39


 1256 004c 2254     		strb	r2, [r4, r0]
  86:ROSSerial/rosserial_msgs/RequestParam.h ****       for( uint8_t i = 0; i < floats_length; i++){
 1257              		.loc 4 86 0
 1258 004e 0433     		adds	r3, r3, #4
 1259              	.LVL148:
 1260 0050 6254     		strb	r2, [r4, r1]
 1261              	.LVL149:
 1262              	.L73:
 1263              	.LBB130:
  87:ROSSerial/rosserial_msgs/RequestParam.h ****       union {
 1264              		.loc 4 87 0 discriminator 3
 1265 0052 297C     		ldrb	r1, [r5, #16]	@ zero_extendqisi2
 1266 0054 9142     		cmp	r1, r2
 1267 0056 10D9     		bls	.L72
 1268              	.LBB131:
  92:ROSSerial/rosserial_msgs/RequestParam.h ****       *(outbuffer + offset + 0) = (u_floatsi.base >> (8 * 0)) & 0xFF;
 1269              		.loc 4 92 0 discriminator 2
 1270 0058 A969     		ldr	r1, [r5, #24]
 1271 005a 51F82210 		ldr	r1, [r1, r2, lsl #2]
  93:ROSSerial/rosserial_msgs/RequestParam.h ****       *(outbuffer + offset + 1) = (u_floatsi.base >> (8 * 1)) & 0xFF;
 1272              		.loc 4 93 0 discriminator 2
 1273 005e E154     		strb	r1, [r4, r3]
  94:ROSSerial/rosserial_msgs/RequestParam.h ****       *(outbuffer + offset + 2) = (u_floatsi.base >> (8 * 2)) & 0xFF;
 1274              		.loc 4 94 0 discriminator 2
 1275 0060 0E0A     		lsrs	r6, r1, #8
 1276 0062 581C     		adds	r0, r3, #1
 1277 0064 2654     		strb	r6, [r4, r0]
  95:ROSSerial/rosserial_msgs/RequestParam.h ****       *(outbuffer + offset + 3) = (u_floatsi.base >> (8 * 3)) & 0xFF;
 1278              		.loc 4 95 0 discriminator 2
 1279 0066 0E0C     		lsrs	r6, r1, #16
 1280 0068 981C     		adds	r0, r3, #2
 1281 006a 2654     		strb	r6, [r4, r0]
  96:ROSSerial/rosserial_msgs/RequestParam.h ****       offset += sizeof(this->floats[i]);
 1282              		.loc 4 96 0 discriminator 2
 1283 006c 090E     		lsrs	r1, r1, #24
 1284 006e D81C     		adds	r0, r3, #3
 1285 0070 2154     		strb	r1, [r4, r0]
  97:ROSSerial/rosserial_msgs/RequestParam.h ****       }
 1286              		.loc 4 97 0 discriminator 2
 1287 0072 0433     		adds	r3, r3, #4
 1288              	.LVL150:
 1289              	.LBE131:
  87:ROSSerial/rosserial_msgs/RequestParam.h ****       union {
 1290              		.loc 4 87 0 discriminator 2
 1291 0074 0132     		adds	r2, r2, #1
 1292              	.LVL151:
 1293 0076 D2B2     		uxtb	r2, r2
 1294              	.LVL152:
 1295 0078 EBE7     		b	.L73
 1296              	.L72:
 1297              	.LBE130:
  99:ROSSerial/rosserial_msgs/RequestParam.h ****       *(outbuffer + offset++) = 0;
 1298              		.loc 4 99 0
 1299 007a 5A1C     		adds	r2, r3, #1
 1300              	.LVL153:
 1301 007c 297F     		ldrb	r1, [r5, #28]	@ zero_extendqisi2
 1302 007e E154     		strb	r1, [r4, r3]
ARM GAS  /var/folders/l3/4y5292px21b4835bsnjwqc7w009kq1/T//ccaF8PhA.s 			page 40


 100:ROSSerial/rosserial_msgs/RequestParam.h ****       *(outbuffer + offset++) = 0;
 1303              		.loc 4 100 0
 1304 0080 991C     		adds	r1, r3, #2
 1305              	.LVL154:
 1306 0082 4FF00008 		mov	r8, #0
 1307 0086 04F80280 		strb	r8, [r4, r2]
 101:ROSSerial/rosserial_msgs/RequestParam.h ****       *(outbuffer + offset++) = 0;
 1308              		.loc 4 101 0
 1309 008a DA1C     		adds	r2, r3, #3
 1310              	.LVL155:
 1311 008c 04F80180 		strb	r8, [r4, r1]
 102:ROSSerial/rosserial_msgs/RequestParam.h ****       for( uint8_t i = 0; i < strings_length; i++){
 1312              		.loc 4 102 0
 1313 0090 1E1D     		adds	r6, r3, #4
 1314              	.LVL156:
 1315 0092 04F80280 		strb	r8, [r4, r2]
 1316              	.LVL157:
 1317              	.L75:
 1318              	.LBB132:
 103:ROSSerial/rosserial_msgs/RequestParam.h ****       uint32_t length_stringsi = strlen(this->strings[i]);
 1319              		.loc 4 103 0 discriminator 3
 1320 0096 2B7F     		ldrb	r3, [r5, #28]	@ zero_extendqisi2
 1321 0098 4345     		cmp	r3, r8
 1322 009a 14D9     		bls	.L69
 1323              	.LBB133:
 104:ROSSerial/rosserial_msgs/RequestParam.h ****       memcpy(outbuffer + offset, &length_stringsi, sizeof(uint32_t));
 1324              		.loc 4 104 0 discriminator 2
 1325 009c 6B6A     		ldr	r3, [r5, #36]
 1326 009e 53F82800 		ldr	r0, [r3, r8, lsl #2]
 1327 00a2 FFF7FEFF 		bl	strlen
 1328              	.LVL158:
 1329 00a6 0746     		mov	r7, r0
 1330              	.LVL159:
 105:ROSSerial/rosserial_msgs/RequestParam.h ****       offset += 4;
 1331              		.loc 4 105 0 discriminator 2
 1332 00a8 A051     		str	r0, [r4, r6]	@ unaligned
 106:ROSSerial/rosserial_msgs/RequestParam.h ****       memcpy(outbuffer + offset, this->strings[i], length_stringsi);
 1333              		.loc 4 106 0 discriminator 2
 1334 00aa 0436     		adds	r6, r6, #4
 1335              	.LVL160:
 107:ROSSerial/rosserial_msgs/RequestParam.h ****       offset += length_stringsi;
 1336              		.loc 4 107 0 discriminator 2
 1337 00ac 6B6A     		ldr	r3, [r5, #36]
 1338 00ae 0246     		mov	r2, r0
 1339 00b0 53F82810 		ldr	r1, [r3, r8, lsl #2]
 1340 00b4 A019     		adds	r0, r4, r6
 1341              	.LVL161:
 1342 00b6 FFF7FEFF 		bl	memcpy
 1343              	.LVL162:
 108:ROSSerial/rosserial_msgs/RequestParam.h ****       }
 1344              		.loc 4 108 0 discriminator 2
 1345 00ba 3E44     		add	r6, r6, r7
 1346              	.LVL163:
 1347              	.LBE133:
 103:ROSSerial/rosserial_msgs/RequestParam.h ****       uint32_t length_stringsi = strlen(this->strings[i]);
 1348              		.loc 4 103 0 discriminator 2
 1349 00bc 08F10108 		add	r8, r8, #1
ARM GAS  /var/folders/l3/4y5292px21b4835bsnjwqc7w009kq1/T//ccaF8PhA.s 			page 41


 1350              	.LVL164:
 1351 00c0 5FFA88F8 		uxtb	r8, r8
 1352              	.LVL165:
 1353 00c4 E7E7     		b	.L75
 1354              	.L69:
 1355              	.LBE132:
 111:ROSSerial/rosserial_msgs/RequestParam.h **** 
 1356              		.loc 4 111 0
 1357 00c6 3046     		mov	r0, r6
 1358 00c8 BDE8F081 		pop	{r4, r5, r6, r7, r8, pc}
 1359              		.cfi_endproc
 1360              	.LFE394:
 1361              		.cantunwind
 1362              		.fnend
 1364              		.section	.text._ZN14rosserial_msgs20RequestParamResponse11deserializeEPh,"axG",%progbits,_ZN14ross
 1365              		.align	1
 1366              		.weak	_ZN14rosserial_msgs20RequestParamResponse11deserializeEPh
 1367              		.syntax unified
 1368              		.thumb
 1369              		.thumb_func
 1370              		.fpu fpv4-sp-d16
 1372              	_ZN14rosserial_msgs20RequestParamResponse11deserializeEPh:
 1373              		.fnstart
 1374              	.LFB395:
 113:ROSSerial/rosserial_msgs/RequestParam.h ****     {
 1375              		.loc 4 113 0
 1376              		.cfi_startproc
 1377              		@ args = 0, pretend = 0, frame = 0
 1378              		@ frame_needed = 0, uses_anonymous_args = 0
 1379              	.LVL166:
 1380 0000 F8B5     		push	{r3, r4, r5, r6, r7, lr}
 1381              	.LCFI10:
 1382              		.cfi_def_cfa_offset 24
 1383              		.cfi_offset 3, -24
 1384              		.cfi_offset 4, -20
 1385              		.cfi_offset 5, -16
 1386              		.cfi_offset 6, -12
 1387              		.cfi_offset 7, -8
 1388              		.cfi_offset 14, -4
 1389 0002 0646     		mov	r6, r0
 1390 0004 0D46     		mov	r5, r1
 1391              	.LVL167:
 116:ROSSerial/rosserial_msgs/RequestParam.h ****       if(ints_lengthT > ints_length)
 1392              		.loc 4 116 0
 1393 0006 0C78     		ldrb	r4, [r1]	@ zero_extendqisi2
 1394              	.LVL168:
 117:ROSSerial/rosserial_msgs/RequestParam.h ****         this->ints = (int32_t*)realloc(this->ints, ints_lengthT * sizeof(int32_t));
 1395              		.loc 4 117 0
 1396 0008 0379     		ldrb	r3, [r0, #4]	@ zero_extendqisi2
 1397 000a A342     		cmp	r3, r4
 1398 000c 1AD3     		bcc	.L90
 1399              	.LVL169:
 1400              	.L78:
 120:ROSSerial/rosserial_msgs/RequestParam.h ****       for( uint8_t i = 0; i < ints_length; i++){
 1401              		.loc 4 120 0
 1402 000e 3471     		strb	r4, [r6, #4]
 1403              	.LVL170:
ARM GAS  /var/folders/l3/4y5292px21b4835bsnjwqc7w009kq1/T//ccaF8PhA.s 			page 42


 1404              	.LBB141:
 121:ROSSerial/rosserial_msgs/RequestParam.h ****       union {
 1405              		.loc 4 121 0
 1406 0010 0022     		movs	r2, #0
 1407              	.LBE141:
 119:ROSSerial/rosserial_msgs/RequestParam.h ****       ints_length = ints_lengthT;
 1408              		.loc 4 119 0
 1409 0012 0424     		movs	r4, #4
 1410              	.LVL171:
 1411              	.L80:
 1412              	.LBB143:
 121:ROSSerial/rosserial_msgs/RequestParam.h ****       union {
 1413              		.loc 4 121 0 discriminator 3
 1414 0014 3379     		ldrb	r3, [r6, #4]	@ zero_extendqisi2
 1415 0016 9342     		cmp	r3, r2
 1416 0018 1AD9     		bls	.L79
 1417              	.LBB142:
 127:ROSSerial/rosserial_msgs/RequestParam.h ****       u_st_ints.base |= ((uint32_t) (*(inbuffer + offset + 1))) << (8 * 1);
 1418              		.loc 4 127 0 discriminator 2
 1419 001a 2B5D     		ldrb	r3, [r5, r4]	@ zero_extendqisi2
 128:ROSSerial/rosserial_msgs/RequestParam.h ****       u_st_ints.base |= ((uint32_t) (*(inbuffer + offset + 2))) << (8 * 2);
 1420              		.loc 4 128 0 discriminator 2
 1421 001c 611C     		adds	r1, r4, #1
 1422 001e 695C     		ldrb	r1, [r5, r1]	@ zero_extendqisi2
 1423 0020 43EA0123 		orr	r3, r3, r1, lsl #8
 129:ROSSerial/rosserial_msgs/RequestParam.h ****       u_st_ints.base |= ((uint32_t) (*(inbuffer + offset + 3))) << (8 * 3);
 1424              		.loc 4 129 0 discriminator 2
 1425 0024 A11C     		adds	r1, r4, #2
 1426 0026 695C     		ldrb	r1, [r5, r1]	@ zero_extendqisi2
 1427 0028 43EA0143 		orr	r3, r3, r1, lsl #16
 130:ROSSerial/rosserial_msgs/RequestParam.h ****       this->st_ints = u_st_ints.real;
 1428              		.loc 4 130 0 discriminator 2
 1429 002c E11C     		adds	r1, r4, #3
 1430 002e 695C     		ldrb	r1, [r5, r1]	@ zero_extendqisi2
 1431 0030 43EA0163 		orr	r3, r3, r1, lsl #24
 131:ROSSerial/rosserial_msgs/RequestParam.h ****       offset += sizeof(this->st_ints);
 1432              		.loc 4 131 0 discriminator 2
 1433 0034 B360     		str	r3, [r6, #8]
 132:ROSSerial/rosserial_msgs/RequestParam.h ****         memcpy( &(this->ints[i]), &(this->st_ints), sizeof(int32_t));
 1434              		.loc 4 132 0 discriminator 2
 1435 0036 0434     		adds	r4, r4, #4
 1436              	.LVL172:
 133:ROSSerial/rosserial_msgs/RequestParam.h ****       }
 1437              		.loc 4 133 0 discriminator 2
 1438 0038 F168     		ldr	r1, [r6, #12]
 1439 003a 41F82230 		str	r3, [r1, r2, lsl #2]	@ unaligned
 1440              	.LBE142:
 121:ROSSerial/rosserial_msgs/RequestParam.h ****       union {
 1441              		.loc 4 121 0 discriminator 2
 1442 003e 0132     		adds	r2, r2, #1
 1443              	.LVL173:
 1444 0040 D2B2     		uxtb	r2, r2
 1445              	.LVL174:
 1446 0042 E7E7     		b	.L80
 1447              	.LVL175:
 1448              	.L90:
 1449              	.LBE143:
ARM GAS  /var/folders/l3/4y5292px21b4835bsnjwqc7w009kq1/T//ccaF8PhA.s 			page 43


 118:ROSSerial/rosserial_msgs/RequestParam.h ****       offset += 3;
 1450              		.loc 4 118 0
 1451 0044 A100     		lsls	r1, r4, #2
 1452              	.LVL176:
 1453 0046 C068     		ldr	r0, [r0, #12]
 1454              	.LVL177:
 1455 0048 FFF7FEFF 		bl	realloc
 1456              	.LVL178:
 1457 004c F060     		str	r0, [r6, #12]
 1458 004e DEE7     		b	.L78
 1459              	.LVL179:
 1460              	.L79:
 135:ROSSerial/rosserial_msgs/RequestParam.h ****       if(floats_lengthT > floats_length)
 1461              		.loc 4 135 0
 1462 0050 2F5D     		ldrb	r7, [r5, r4]	@ zero_extendqisi2
 1463              	.LVL180:
 136:ROSSerial/rosserial_msgs/RequestParam.h ****         this->floats = (float*)realloc(this->floats, floats_lengthT * sizeof(float));
 1464              		.loc 4 136 0
 1465 0052 337C     		ldrb	r3, [r6, #16]	@ zero_extendqisi2
 1466 0054 BB42     		cmp	r3, r7
 1467 0056 1AD3     		bcc	.L91
 1468              	.LVL181:
 1469              	.L81:
 138:ROSSerial/rosserial_msgs/RequestParam.h ****       floats_length = floats_lengthT;
 1470              		.loc 4 138 0
 1471 0058 0434     		adds	r4, r4, #4
 1472              	.LVL182:
 139:ROSSerial/rosserial_msgs/RequestParam.h ****       for( uint8_t i = 0; i < floats_length; i++){
 1473              		.loc 4 139 0
 1474 005a 3774     		strb	r7, [r6, #16]
 1475              	.LVL183:
 1476              	.LBB144:
 140:ROSSerial/rosserial_msgs/RequestParam.h ****       union {
 1477              		.loc 4 140 0
 1478 005c 0022     		movs	r2, #0
 1479              	.LVL184:
 1480              	.L83:
 140:ROSSerial/rosserial_msgs/RequestParam.h ****       union {
 1481              		.loc 4 140 0 is_stmt 0 discriminator 3
 1482 005e 337C     		ldrb	r3, [r6, #16]	@ zero_extendqisi2
 1483 0060 9342     		cmp	r3, r2
 1484 0062 1AD9     		bls	.L82
 1485              	.LBB145:
 146:ROSSerial/rosserial_msgs/RequestParam.h ****       u_st_floats.base |= ((uint32_t) (*(inbuffer + offset + 1))) << (8 * 1);
 1486              		.loc 4 146 0 is_stmt 1 discriminator 2
 1487 0064 2B5D     		ldrb	r3, [r5, r4]	@ zero_extendqisi2
 147:ROSSerial/rosserial_msgs/RequestParam.h ****       u_st_floats.base |= ((uint32_t) (*(inbuffer + offset + 2))) << (8 * 2);
 1488              		.loc 4 147 0 discriminator 2
 1489 0066 611C     		adds	r1, r4, #1
 1490 0068 695C     		ldrb	r1, [r5, r1]	@ zero_extendqisi2
 1491 006a 43EA0123 		orr	r3, r3, r1, lsl #8
 148:ROSSerial/rosserial_msgs/RequestParam.h ****       u_st_floats.base |= ((uint32_t) (*(inbuffer + offset + 3))) << (8 * 3);
 1492              		.loc 4 148 0 discriminator 2
 1493 006e A11C     		adds	r1, r4, #2
 1494 0070 695C     		ldrb	r1, [r5, r1]	@ zero_extendqisi2
 1495 0072 43EA0143 		orr	r3, r3, r1, lsl #16
 149:ROSSerial/rosserial_msgs/RequestParam.h ****       this->st_floats = u_st_floats.real;
ARM GAS  /var/folders/l3/4y5292px21b4835bsnjwqc7w009kq1/T//ccaF8PhA.s 			page 44


 1496              		.loc 4 149 0 discriminator 2
 1497 0076 E11C     		adds	r1, r4, #3
 1498 0078 695C     		ldrb	r1, [r5, r1]	@ zero_extendqisi2
 1499 007a 43EA0163 		orr	r3, r3, r1, lsl #24
 150:ROSSerial/rosserial_msgs/RequestParam.h ****       offset += sizeof(this->st_floats);
 1500              		.loc 4 150 0 discriminator 2
 1501 007e 7361     		str	r3, [r6, #20]	@ float
 151:ROSSerial/rosserial_msgs/RequestParam.h ****         memcpy( &(this->floats[i]), &(this->st_floats), sizeof(float));
 1502              		.loc 4 151 0 discriminator 2
 1503 0080 0434     		adds	r4, r4, #4
 1504              	.LVL185:
 152:ROSSerial/rosserial_msgs/RequestParam.h ****       }
 1505              		.loc 4 152 0 discriminator 2
 1506 0082 B169     		ldr	r1, [r6, #24]
 1507 0084 41F82230 		str	r3, [r1, r2, lsl #2]	@ unaligned
 1508              	.LBE145:
 140:ROSSerial/rosserial_msgs/RequestParam.h ****       union {
 1509              		.loc 4 140 0 discriminator 2
 1510 0088 0132     		adds	r2, r2, #1
 1511              	.LVL186:
 1512 008a D2B2     		uxtb	r2, r2
 1513              	.LVL187:
 1514 008c E7E7     		b	.L83
 1515              	.LVL188:
 1516              	.L91:
 1517              	.LBE144:
 137:ROSSerial/rosserial_msgs/RequestParam.h ****       offset += 3;
 1518              		.loc 4 137 0
 1519 008e B900     		lsls	r1, r7, #2
 1520 0090 B069     		ldr	r0, [r6, #24]
 1521 0092 FFF7FEFF 		bl	realloc
 1522              	.LVL189:
 1523 0096 B061     		str	r0, [r6, #24]
 1524 0098 DEE7     		b	.L81
 1525              	.LVL190:
 1526              	.L82:
 154:ROSSerial/rosserial_msgs/RequestParam.h ****       if(strings_lengthT > strings_length)
 1527              		.loc 4 154 0
 1528 009a 2F5D     		ldrb	r7, [r5, r4]	@ zero_extendqisi2
 1529              	.LVL191:
 155:ROSSerial/rosserial_msgs/RequestParam.h ****         this->strings = (char**)realloc(this->strings, strings_lengthT * sizeof(char*));
 1530              		.loc 4 155 0
 1531 009c 337F     		ldrb	r3, [r6, #28]	@ zero_extendqisi2
 1532 009e BB42     		cmp	r3, r7
 1533 00a0 04D3     		bcc	.L92
 1534              	.LVL192:
 1535              	.L84:
 157:ROSSerial/rosserial_msgs/RequestParam.h ****       strings_length = strings_lengthT;
 1536              		.loc 4 157 0
 1537 00a2 201D     		adds	r0, r4, #4
 1538              	.LVL193:
 158:ROSSerial/rosserial_msgs/RequestParam.h ****       for( uint8_t i = 0; i < strings_length; i++){
 1539              		.loc 4 158 0
 1540 00a4 3777     		strb	r7, [r6, #28]
 1541              	.LVL194:
 1542              	.LBB146:
 159:ROSSerial/rosserial_msgs/RequestParam.h ****       uint32_t length_st_strings;
ARM GAS  /var/folders/l3/4y5292px21b4835bsnjwqc7w009kq1/T//ccaF8PhA.s 			page 45


 1543              		.loc 4 159 0
 1544 00a6 4FF0000C 		mov	ip, #0
 1545 00aa 12E0     		b	.L88
 1546              	.LVL195:
 1547              	.L92:
 1548              	.LBE146:
 156:ROSSerial/rosserial_msgs/RequestParam.h ****       offset += 3;
 1549              		.loc 4 156 0
 1550 00ac B900     		lsls	r1, r7, #2
 1551 00ae 706A     		ldr	r0, [r6, #36]
 1552 00b0 FFF7FEFF 		bl	realloc
 1553              	.LVL196:
 1554 00b4 7062     		str	r0, [r6, #36]
 1555 00b6 F4E7     		b	.L84
 1556              	.LVL197:
 1557              	.L86:
 1558              	.LBB150:
 1559              	.LBB147:
 166:ROSSerial/rosserial_msgs/RequestParam.h ****       this->st_strings = (char *)(inbuffer + offset-1);
 1560              		.loc 4 166 0 discriminator 2
 1561 00b8 431E     		subs	r3, r0, #1
 1562              	.LVL198:
 1563 00ba 0022     		movs	r2, #0
 1564 00bc EA54     		strb	r2, [r5, r3]
 167:ROSSerial/rosserial_msgs/RequestParam.h ****       offset += length_st_strings;
 1565              		.loc 4 167 0 discriminator 2
 1566 00be 013C     		subs	r4, r4, #1
 1567 00c0 2C44     		add	r4, r4, r5
 1568 00c2 3462     		str	r4, [r6, #32]
 1569              	.LVL199:
 169:ROSSerial/rosserial_msgs/RequestParam.h ****       }
 1570              		.loc 4 169 0 discriminator 2
 1571 00c4 736A     		ldr	r3, [r6, #36]
 1572 00c6 43F82C40 		str	r4, [r3, ip, lsl #2]	@ unaligned
 1573              	.LVL200:
 1574              	.LBE147:
 159:ROSSerial/rosserial_msgs/RequestParam.h ****       uint32_t length_st_strings;
 1575              		.loc 4 159 0 discriminator 2
 1576 00ca 0CF1010C 		add	ip, ip, #1
 1577              	.LVL201:
 1578 00ce 5FFA8CFC 		uxtb	ip, ip
 1579              	.LVL202:
 1580              	.L88:
 159:ROSSerial/rosserial_msgs/RequestParam.h ****       uint32_t length_st_strings;
 1581              		.loc 4 159 0 is_stmt 0 discriminator 1
 1582 00d2 337F     		ldrb	r3, [r6, #28]	@ zero_extendqisi2
 1583 00d4 6345     		cmp	r3, ip
 1584 00d6 0AD9     		bls	.L77
 1585              	.LBB149:
 161:ROSSerial/rosserial_msgs/RequestParam.h ****       offset += 4;
 1586              		.loc 4 161 0 is_stmt 1
 1587 00d8 2F58     		ldr	r7, [r5, r0]	@ unaligned
 1588              	.LVL203:
 162:ROSSerial/rosserial_msgs/RequestParam.h ****       for(unsigned int k= offset; k< offset+length_st_strings; ++k){
 1589              		.loc 4 162 0
 1590 00da 041D     		adds	r4, r0, #4
 1591              	.LVL204:
ARM GAS  /var/folders/l3/4y5292px21b4835bsnjwqc7w009kq1/T//ccaF8PhA.s 			page 46


 1592              	.LBB148:
 163:ROSSerial/rosserial_msgs/RequestParam.h ****           inbuffer[k-1]=inbuffer[k];
 1593              		.loc 4 163 0
 1594 00dc 2346     		mov	r3, r4
 1595              	.LVL205:
 1596              	.L87:
 163:ROSSerial/rosserial_msgs/RequestParam.h ****           inbuffer[k-1]=inbuffer[k];
 1597              		.loc 4 163 0 is_stmt 0 discriminator 3
 1598 00de 3819     		adds	r0, r7, r4
 1599 00e0 9842     		cmp	r0, r3
 1600 00e2 E9D9     		bls	.L86
 164:ROSSerial/rosserial_msgs/RequestParam.h ****       }
 1601              		.loc 4 164 0 is_stmt 1 discriminator 2
 1602 00e4 5A1E     		subs	r2, r3, #1
 1603 00e6 E95C     		ldrb	r1, [r5, r3]	@ zero_extendqisi2
 1604 00e8 A954     		strb	r1, [r5, r2]
 163:ROSSerial/rosserial_msgs/RequestParam.h ****           inbuffer[k-1]=inbuffer[k];
 1605              		.loc 4 163 0 discriminator 2
 1606 00ea 0133     		adds	r3, r3, #1
 1607              	.LVL206:
 1608 00ec F7E7     		b	.L87
 1609              	.LVL207:
 1610              	.L77:
 1611              	.LBE148:
 1612              	.LBE149:
 1613              	.LBE150:
 172:ROSSerial/rosserial_msgs/RequestParam.h **** 
 1614              		.loc 4 172 0
 1615 00ee F8BD     		pop	{r3, r4, r5, r6, r7, pc}
 1616              		.cfi_endproc
 1617              	.LFE395:
 1618              		.cantunwind
 1619              		.fnend
 1621              		.section	.text.ros_init,"ax",%progbits
 1622              		.align	1
 1623              		.global	ros_init
 1624              		.syntax unified
 1625              		.thumb
 1626              		.thumb_func
 1627              		.fpu fpv4-sp-d16
 1629              	ros_init:
 1630              		.fnstart
 1631              	.LFB474:
  21:./Src/ROS_main.cpp **** {
 1632              		.loc 6 21 0
 1633              		.cfi_startproc
 1634              		@ args = 0, pretend = 0, frame = 8
 1635              		@ frame_needed = 0, uses_anonymous_args = 0
 1636 0000 F0B5     		push	{r4, r5, r6, r7, lr}
 1637              		.save {r4, r5, r6, r7, lr}
 1638              	.LCFI11:
 1639              		.cfi_def_cfa_offset 20
 1640              		.cfi_offset 4, -20
 1641              		.cfi_offset 5, -16
 1642              		.cfi_offset 6, -12
 1643              		.cfi_offset 7, -8
 1644              		.cfi_offset 14, -4
ARM GAS  /var/folders/l3/4y5292px21b4835bsnjwqc7w009kq1/T//ccaF8PhA.s 			page 47


 1645              		.pad #12
 1646 0002 83B0     		sub	sp, sp, #12
 1647              	.LCFI12:
 1648              		.cfi_def_cfa_offset 32
 1649              	.LVL208:
 1650              	.LBB161:
 1651              	.LBB162:
 1652              	.LBB163:
 1653              	.LBB164:
 1654              		.file 8 "ROSSerial/AT32hardware.h"
   1:ROSSerial/AT32hardware.h **** /*
   2:ROSSerial/AT32hardware.h ****  * Software License Agreement (BSD License)
   3:ROSSerial/AT32hardware.h ****  *
   4:ROSSerial/AT32hardware.h ****  * Copyright (c) 2011, Willow Garage, Inc.
   5:ROSSerial/AT32hardware.h ****  * All rights reserved.
   6:ROSSerial/AT32hardware.h ****  *
   7:ROSSerial/AT32hardware.h ****  * Redistribution and use in source and binary forms, with or without
   8:ROSSerial/AT32hardware.h ****  * modification, are permitted provided that the following conditions
   9:ROSSerial/AT32hardware.h ****  * are met:
  10:ROSSerial/AT32hardware.h ****  *
  11:ROSSerial/AT32hardware.h ****  *  * Redistributions of source code must retain the above copyright
  12:ROSSerial/AT32hardware.h ****  *    notice, this list of conditions and the following disclaimer.
  13:ROSSerial/AT32hardware.h ****  *  * Redistributions in binary form must reproduce the above
  14:ROSSerial/AT32hardware.h ****  *    copyright notice, this list of conditions and the following
  15:ROSSerial/AT32hardware.h ****  *    disclaimer in the documentation and/or other materials provided
  16:ROSSerial/AT32hardware.h ****  *    with the distribution.
  17:ROSSerial/AT32hardware.h ****  *  * Neither the name of Willow Garage, Inc. nor the names of its
  18:ROSSerial/AT32hardware.h ****  *    contributors may be used to endorse or promote prducts derived
  19:ROSSerial/AT32hardware.h ****  *    from this software without specific prior written permission.
  20:ROSSerial/AT32hardware.h ****  *
  21:ROSSerial/AT32hardware.h ****  * THIS SOFTWARE IS PROVIDED BY THE COPYRIGHT HOLDERS AND CONTRIBUTORS
  22:ROSSerial/AT32hardware.h ****  * "AS IS" AND ANY EXPRESS OR IMPLIED WARRANTIES, INCLUDING, BUT NOT
  23:ROSSerial/AT32hardware.h ****  * LIMITED TO, THE IMPLIED WARRANTIES OF MERCHANTABILITY AND FITNESS
  24:ROSSerial/AT32hardware.h ****  * FOR A PARTICULAR PURPOSE ARE DISCLAIMED. IN NO EVENT SHALL THE
  25:ROSSerial/AT32hardware.h ****  * COPYRIGHT OWNER OR CONTRIBUTORS BE LIABLE FOR ANY DIRECT, INDIRECT,
  26:ROSSerial/AT32hardware.h ****  * INCIDENTAL, SPECIAL, EXEMPLARY, OR CONSEQUENTIAL DAMAGES (INCLUDING,
  27:ROSSerial/AT32hardware.h ****  * BUT NOT LIMITED TO, PROCUREMENT OF SUBSTITUTE GOODS OR SERVICES;
  28:ROSSerial/AT32hardware.h ****  * LOSS OF USE, DATA, OR PROFITS; OR BUSINESS INTERRUPTION) HOWEVER
  29:ROSSerial/AT32hardware.h ****  * CAUSED AND ON ANY THEORY OF LIABILITY, WHETHER IN CONTRACT, STRICT
  30:ROSSerial/AT32hardware.h ****  * LIABILITY, OR TORT (INCLUDING NEGLIGENCE OR OTHERWISE) ARISING IN
  31:ROSSerial/AT32hardware.h ****  * ANY WAY OUT OF THE USE OF THIS SOFTWARE, EVEN IF ADVISED OF THE
  32:ROSSerial/AT32hardware.h ****  * POSSIBILITY OF SUCH DAMAGE.
  33:ROSSerial/AT32hardware.h ****  */
  34:ROSSerial/AT32hardware.h **** 
  35:ROSSerial/AT32hardware.h **** #ifndef STM32HARDWARE_H_
  36:ROSSerial/AT32hardware.h **** #define STM32HARDWARE_H_
  37:ROSSerial/AT32hardware.h **** 
  38:ROSSerial/AT32hardware.h **** #include "stm32f1xx_hal.h"
  39:ROSSerial/AT32hardware.h **** #include <stdio.h>
  40:ROSSerial/AT32hardware.h **** #include "setup.h"
  41:ROSSerial/AT32hardware.h **** 
  42:ROSSerial/AT32hardware.h **** extern UART_HandleTypeDef huart2; 
  43:ROSSerial/AT32hardware.h **** 
  44:ROSSerial/AT32hardware.h **** extern uint8_t g_RxBuf[];
  45:ROSSerial/AT32hardware.h **** extern uint8_t byte;		/* receive byte */
  46:ROSSerial/AT32hardware.h **** extern uint8_t g_RxRead;
  47:ROSSerial/AT32hardware.h **** extern uint8_t g_RxWritten;
ARM GAS  /var/folders/l3/4y5292px21b4835bsnjwqc7w009kq1/T//ccaF8PhA.s 			page 48


  48:ROSSerial/AT32hardware.h **** 
  49:ROSSerial/AT32hardware.h **** class STM32Hardware
  50:ROSSerial/AT32hardware.h **** {
  51:ROSSerial/AT32hardware.h **** public:
  52:ROSSerial/AT32hardware.h **** 	STM32Hardware()
  53:ROSSerial/AT32hardware.h **** 	{
  54:ROSSerial/AT32hardware.h **** 	}
  55:ROSSerial/AT32hardware.h **** 
  56:ROSSerial/AT32hardware.h **** 	/*
  57:ROSSerial/AT32hardware.h **** 	 * Method: init
  58:ROSSerial/AT32hardware.h **** 	 * ----------------------------
  59:ROSSerial/AT32hardware.h **** 	 *   Initialize the STM32 hardware specific to ROS like UART
  60:ROSSerial/AT32hardware.h **** 	 *   parameters: none
  61:ROSSerial/AT32hardware.h **** 	 *   returns: none
  62:ROSSerial/AT32hardware.h **** 	 */
  63:ROSSerial/AT32hardware.h **** 	void init(void)
  64:ROSSerial/AT32hardware.h **** 	{
  65:ROSSerial/AT32hardware.h **** 		if(HAL_UART_Receive_IT(&huart2, &byte, 1) != 0)
 1655              		.loc 8 65 0
 1656 0004 0122     		movs	r2, #1
 1657 0006 2349     		ldr	r1, .L99
 1658 0008 2348     		ldr	r0, .L99+4
 1659 000a FFF7FEFF 		bl	HAL_UART_Receive_IT
 1660              	.LVL209:
 1661              	.LBE164:
 1662              	.LBE163:
 188:ROSSerial/ros/node_handle.h ****     bytes_ = 0;
 1663              		.loc 7 188 0
 1664 000e 234B     		ldr	r3, .L99+8
 1665 0010 0024     		movs	r4, #0
 1666 0012 C3F80845 		str	r4, [r3, #1288]
 189:ROSSerial/ros/node_handle.h ****     index_ = 0;
 1667              		.loc 7 189 0
 1668 0016 C3F80C45 		str	r4, [r3, #1292]
 190:ROSSerial/ros/node_handle.h ****     topic_ = 0;
 1669              		.loc 7 190 0
 1670 001a C3F81445 		str	r4, [r3, #1300]
 191:ROSSerial/ros/node_handle.h ****     printf("Node init\n");
 1671              		.loc 7 191 0
 1672 001e C3F81045 		str	r4, [r3, #1296]
 192:ROSSerial/ros/node_handle.h ****   };
 1673              		.loc 7 192 0
 1674 0022 1F48     		ldr	r0, .L99+12
 1675 0024 FFF7FEFF 		bl	puts
 1676              	.LVL210:
 1677              	.LBE162:
 1678              	.LBE161:
 1679              	.LBB165:
 1680              	.LBB166:
  13:ROSSerial/std_msgs/ROSString.h ****   {
 1681              		.loc 5 13 0
 1682 0028 1E4B     		ldr	r3, .L99+16
 1683 002a 0093     		str	r3, [sp]
 1684              	.LVL211:
 1685              	.L96:
 1686              	.LBE166:
 1687              	.LBE165:
ARM GAS  /var/folders/l3/4y5292px21b4835bsnjwqc7w009kq1/T//ccaF8PhA.s 			page 49


 1688              	.LBB167:
 1689              	.LBB168:
 406:ROSSerial/ros/node_handle.h **** 
 407:ROSSerial/ros/node_handle.h ****   /********************************************************************
 408:ROSSerial/ros/node_handle.h ****    * Time functions
 409:ROSSerial/ros/node_handle.h ****    */
 410:ROSSerial/ros/node_handle.h **** 
 411:ROSSerial/ros/node_handle.h ****   void requestSyncTime()
 412:ROSSerial/ros/node_handle.h ****   {
 413:ROSSerial/ros/node_handle.h ****     std_msgs::Time t;
 414:ROSSerial/ros/node_handle.h ****     publish1(TopicInfo::ID_TIME, &t);
 415:ROSSerial/ros/node_handle.h ****     rt_time = hardware_.time();
 416:ROSSerial/ros/node_handle.h ****   }
 417:ROSSerial/ros/node_handle.h **** 
 418:ROSSerial/ros/node_handle.h ****   void syncTime(uint8_t * data)
 419:ROSSerial/ros/node_handle.h ****   {
 420:ROSSerial/ros/node_handle.h ****     std_msgs::Time t;
 421:ROSSerial/ros/node_handle.h ****     uint32_t offset = hardware_.time() - rt_time;
 422:ROSSerial/ros/node_handle.h **** 
 423:ROSSerial/ros/node_handle.h ****     t.deserialize(data);
 424:ROSSerial/ros/node_handle.h ****     t.data.sec += offset / 1000;
 425:ROSSerial/ros/node_handle.h ****     t.data.nsec += (offset % 1000) * 1000000UL;
 426:ROSSerial/ros/node_handle.h **** 
 427:ROSSerial/ros/node_handle.h ****     this->setNow(t.data);
 428:ROSSerial/ros/node_handle.h ****     last_sync_receive_time = hardware_.time();
 429:ROSSerial/ros/node_handle.h ****   }
 430:ROSSerial/ros/node_handle.h **** 
 431:ROSSerial/ros/node_handle.h ****   Time now()
 432:ROSSerial/ros/node_handle.h ****   {
 433:ROSSerial/ros/node_handle.h ****     uint32_t ms = hardware_.time();
 434:ROSSerial/ros/node_handle.h ****     Time current_time;
 435:ROSSerial/ros/node_handle.h ****     current_time.sec = ms / 1000 + sec_offset;
 436:ROSSerial/ros/node_handle.h ****     current_time.nsec = (ms % 1000) * 1000000UL + nsec_offset;
 437:ROSSerial/ros/node_handle.h ****     normalizeSecNSec(current_time.sec, current_time.nsec);
 438:ROSSerial/ros/node_handle.h ****     return current_time;
 439:ROSSerial/ros/node_handle.h ****   }
 440:ROSSerial/ros/node_handle.h **** 
 441:ROSSerial/ros/node_handle.h ****   void setNow(Time & new_now)
 442:ROSSerial/ros/node_handle.h ****   {
 443:ROSSerial/ros/node_handle.h ****     uint32_t ms = hardware_.time();
 444:ROSSerial/ros/node_handle.h ****     sec_offset = new_now.sec - ms / 1000 - 1;
 445:ROSSerial/ros/node_handle.h ****     nsec_offset = new_now.nsec - (ms % 1000) * 1000000UL + 1000000000UL;
 446:ROSSerial/ros/node_handle.h ****     normalizeSecNSec(sec_offset, nsec_offset);
 447:ROSSerial/ros/node_handle.h ****   }
 448:ROSSerial/ros/node_handle.h **** 
 449:ROSSerial/ros/node_handle.h ****   /********************************************************************
 450:ROSSerial/ros/node_handle.h ****    * Topic Management
 451:ROSSerial/ros/node_handle.h ****    */
 452:ROSSerial/ros/node_handle.h **** 
 453:ROSSerial/ros/node_handle.h ****    /* Register a new publisher without C++ template */
 454:ROSSerial/ros/node_handle.h ****   PublisherType* addPublisher(char * topic_name, Msg * msg)
 455:ROSSerial/ros/node_handle.h ****   {
 456:ROSSerial/ros/node_handle.h ****     for (int i = 0; i < MAX_PUBLISHERS; i++)
 1690              		.loc 7 456 0
 1691 002c 042C     		cmp	r4, #4
 1692 002e 29DC     		bgt	.L94
 457:ROSSerial/ros/node_handle.h ****     {
ARM GAS  /var/folders/l3/4y5292px21b4835bsnjwqc7w009kq1/T//ccaF8PhA.s 			page 50


 458:ROSSerial/ros/node_handle.h ****       if (publishers2[i].topic_id == 0) {// empty slot}
 1693              		.loc 7 458 0
 1694 0030 04EB8403 		add	r3, r4, r4, lsl #2
 1695 0034 9A00     		lsls	r2, r3, #2
 1696 0036 194B     		ldr	r3, .L99+8
 1697 0038 1344     		add	r3, r3, r2
 1698 003a B3F82C34 		ldrh	r3, [r3, #1068]
 1699 003e 0BB1     		cbz	r3, .L98
 456:ROSSerial/ros/node_handle.h ****     {
 1700              		.loc 7 456 0
 1701 0040 0134     		adds	r4, r4, #1
 1702              	.LVL212:
 1703 0042 F3E7     		b	.L96
 1704              	.L98:
 459:ROSSerial/ros/node_handle.h **** 
 460:ROSSerial/ros/node_handle.h ****         publishers2[i].topic_id = i + 100 + MAX_SUBSCRIBERS;
 1705              		.loc 7 460 0
 1706 0044 04F16902 		add	r2, r4, #105
 1707 0048 144D     		ldr	r5, .L99+8
 1708 004a A700     		lsls	r7, r4, #2
 1709 004c 3B19     		adds	r3, r7, r4
 1710 004e 9E00     		lsls	r6, r3, #2
 1711 0050 2E44     		add	r6, r6, r5
 1712 0052 A6F82C24 		strh	r2, [r6, #1068]	@ movhi
 461:ROSSerial/ros/node_handle.h ****         publishers2[i].topic_name = topic_name;
 1713              		.loc 7 461 0
 1714 0056 144B     		ldr	r3, .L99+20
 1715 0058 C6F83034 		str	r3, [r6, #1072]
 462:ROSSerial/ros/node_handle.h ****         publishers2[i].msg = msg;
 1716              		.loc 7 462 0
 1717 005c C6F834D4 		str	sp, [r6, #1076]
 463:ROSSerial/ros/node_handle.h ****         publishers2[i].message_type = msg->getType();
 1718              		.loc 7 463 0
 1719 0060 009B     		ldr	r3, [sp]
 1720 0062 9B68     		ldr	r3, [r3, #8]
 1721 0064 6846     		mov	r0, sp
 1722 0066 9847     		blx	r3
 1723              	.LVL213:
 1724 0068 C6F83804 		str	r0, [r6, #1080]
 464:ROSSerial/ros/node_handle.h ****         publishers2[i].md5sum = msg->getMD5();
 1725              		.loc 7 464 0
 1726 006c 009B     		ldr	r3, [sp]
 1727 006e DB68     		ldr	r3, [r3, #12]
 1728 0070 6846     		mov	r0, sp
 1729 0072 9847     		blx	r3
 1730              	.LVL214:
 1731 0074 C6F83C04 		str	r0, [r6, #1084]
 465:ROSSerial/ros/node_handle.h **** 
 466:ROSSerial/ros/node_handle.h ****         return &publishers2[i];
 1732              		.loc 7 466 0
 1733 0078 3C44     		add	r4, r4, r7
 1734              	.LVL215:
 1735 007a A300     		lsls	r3, r4, #2
 1736 007c 03F58563 		add	r3, r3, #1064
 1737 0080 1D44     		add	r5, r5, r3
 1738 0082 0435     		adds	r5, r5, #4
 1739              	.L94:
ARM GAS  /var/folders/l3/4y5292px21b4835bsnjwqc7w009kq1/T//ccaF8PhA.s 			page 51


 1740              	.LVL216:
 1741              	.LBE168:
 1742              	.LBE167:
  28:./Src/ROS_main.cpp ****     chatter = nh.addPublisher("chatter",  &str_msg);
 1743              		.loc 6 28 0
 1744 0084 094B     		ldr	r3, .L99+24
 1745 0086 1D60     		str	r5, [r3]
  31:./Src/ROS_main.cpp ****     rosSubscribeInit(&nh);
 1746              		.loc 6 31 0
 1747 0088 0448     		ldr	r0, .L99+8
 1748 008a FFF7FEFF 		bl	_Z16rosSubscribeInitPN3ros11NodeHandle_I13STM32HardwareLi5ELi5ELi512ELi512EEE
 1749              	.LVL217:
  32:./Src/ROS_main.cpp **** }
 1750              		.loc 6 32 0
 1751 008e 03B0     		add	sp, sp, #12
 1752              	.LCFI13:
 1753              		.cfi_def_cfa_offset 20
 1754              		@ sp needed
 1755 0090 F0BD     		pop	{r4, r5, r6, r7, pc}
 1756              	.L100:
 1757 0092 00BF     		.align	2
 1758              	.L99:
 1759 0094 00000000 		.word	byte
 1760 0098 00000000 		.word	huart2
 1761 009c 00000000 		.word	.LANCHOR1
 1762 00a0 00000000 		.word	.LC9
 1763 00a4 08000000 		.word	_ZTVN8std_msgs6StringE+8
 1764 00a8 0C000000 		.word	.LC10
 1765 00ac 00000000 		.word	.LANCHOR2
 1766              		.cfi_endproc
 1767              	.LFE474:
 1768              		.fnend
 1770              		.section	.text._ZN3ros11NodeHandle_I13STM32HardwareLi5ELi5ELi512ELi512EE8publish1EiPNS_3MsgE,"axG"
 1771              		.align	1
 1772              		.weak	_ZN3ros11NodeHandle_I13STM32HardwareLi5ELi5ELi512ELi512EE8publish1EiPNS_3MsgE
 1773              		.syntax unified
 1774              		.thumb
 1775              		.thumb_func
 1776              		.fpu fpv4-sp-d16
 1778              	_ZN3ros11NodeHandle_I13STM32HardwareLi5ELi5ELi512ELi512EE8publish1EiPNS_3MsgE:
 1779              		.fnstart
 1780              	.LFB494:
 467:ROSSerial/ros/node_handle.h ****       }
 468:ROSSerial/ros/node_handle.h ****     }
 469:ROSSerial/ros/node_handle.h ****     return ;
 470:ROSSerial/ros/node_handle.h ****   }
 471:ROSSerial/ros/node_handle.h **** 
 472:ROSSerial/ros/node_handle.h ****   /* Register a new publisher */
 473:ROSSerial/ros/node_handle.h ****   bool advertise(Publisher & p)
 474:ROSSerial/ros/node_handle.h ****   {
 475:ROSSerial/ros/node_handle.h ****     for (int i = 0; i < MAX_PUBLISHERS; i++)
 476:ROSSerial/ros/node_handle.h ****     {
 477:ROSSerial/ros/node_handle.h ****       if (publishers[i] == 0) // empty slot
 478:ROSSerial/ros/node_handle.h ****       {
 479:ROSSerial/ros/node_handle.h ****         publishers[i] = &p;
 480:ROSSerial/ros/node_handle.h ****         p.id_ = i + 100 + MAX_SUBSCRIBERS;
 481:ROSSerial/ros/node_handle.h ****         p.nh_ = this;
ARM GAS  /var/folders/l3/4y5292px21b4835bsnjwqc7w009kq1/T//ccaF8PhA.s 			page 52


 482:ROSSerial/ros/node_handle.h ****         return true;
 483:ROSSerial/ros/node_handle.h ****       }
 484:ROSSerial/ros/node_handle.h ****     }
 485:ROSSerial/ros/node_handle.h ****     return false;
 486:ROSSerial/ros/node_handle.h ****   }
 487:ROSSerial/ros/node_handle.h **** 
 488:ROSSerial/ros/node_handle.h ****   /* Register a new subscriber */
 489:ROSSerial/ros/node_handle.h ****   template<typename SubscriberT>
 490:ROSSerial/ros/node_handle.h ****   bool subscribe(SubscriberT& s)
 491:ROSSerial/ros/node_handle.h ****   {
 492:ROSSerial/ros/node_handle.h ****     for (int i = 0; i < MAX_SUBSCRIBERS; i++)
 493:ROSSerial/ros/node_handle.h ****     {
 494:ROSSerial/ros/node_handle.h ****       if (subscribers[i] == 0) // empty slot
 495:ROSSerial/ros/node_handle.h ****       {
 496:ROSSerial/ros/node_handle.h ****         subscribers[i] = static_cast<Subscriber_*>(&s);
 497:ROSSerial/ros/node_handle.h ****         s.id_ = i + 100;
 498:ROSSerial/ros/node_handle.h ****         return true;
 499:ROSSerial/ros/node_handle.h ****       }
 500:ROSSerial/ros/node_handle.h ****     }
 501:ROSSerial/ros/node_handle.h ****     return false;
 502:ROSSerial/ros/node_handle.h ****   }
 503:ROSSerial/ros/node_handle.h **** 
 504:ROSSerial/ros/node_handle.h ****   bool addSubscriber(SubscriberType sub)
 505:ROSSerial/ros/node_handle.h ****   {
 506:ROSSerial/ros/node_handle.h ****     for (int i = 0; i < MAX_SUBSCRIBERS; i++)
 507:ROSSerial/ros/node_handle.h ****     {
 508:ROSSerial/ros/node_handle.h ****       if (subscribers2[i].topic_id == 0) {// empty slot}
 509:ROSSerial/ros/node_handle.h ****         void * ptr = &subscribers2[i];
 510:ROSSerial/ros/node_handle.h ****         memcpy(ptr, &sub, sizeof(sub));
 511:ROSSerial/ros/node_handle.h ****         subscribers2[i].topic_id = i + 100;
 512:ROSSerial/ros/node_handle.h ****         printf("Registered %s with id %d\n", \
 513:ROSSerial/ros/node_handle.h ****           subscribers2[i].topic_name,subscribers2[i].topic_id);
 514:ROSSerial/ros/node_handle.h ****         return true;
 515:ROSSerial/ros/node_handle.h ****       }
 516:ROSSerial/ros/node_handle.h ****     }
 517:ROSSerial/ros/node_handle.h ****     return false;
 518:ROSSerial/ros/node_handle.h ****   }
 519:ROSSerial/ros/node_handle.h **** 
 520:ROSSerial/ros/node_handle.h ****   /* Register a new Service Server */
 521:ROSSerial/ros/node_handle.h ****   template<typename MReq, typename MRes, typename ObjT>
 522:ROSSerial/ros/node_handle.h ****   bool advertiseService(ServiceServer<MReq, MRes, ObjT>& srv)
 523:ROSSerial/ros/node_handle.h ****   {
 524:ROSSerial/ros/node_handle.h ****     bool v = advertise(srv.pub);
 525:ROSSerial/ros/node_handle.h ****     for (int i = 0; i < MAX_SUBSCRIBERS; i++)
 526:ROSSerial/ros/node_handle.h ****     {
 527:ROSSerial/ros/node_handle.h ****       if (subscribers[i] == 0) // empty slot
 528:ROSSerial/ros/node_handle.h ****       {
 529:ROSSerial/ros/node_handle.h ****         subscribers[i] = static_cast<Subscriber_*>(&srv);
 530:ROSSerial/ros/node_handle.h ****         srv.id_ = i + 100;
 531:ROSSerial/ros/node_handle.h ****         return v;
 532:ROSSerial/ros/node_handle.h ****       }
 533:ROSSerial/ros/node_handle.h ****     }
 534:ROSSerial/ros/node_handle.h ****     return false;
 535:ROSSerial/ros/node_handle.h ****   }
 536:ROSSerial/ros/node_handle.h **** 
 537:ROSSerial/ros/node_handle.h ****   /* Register a new Service Client */
 538:ROSSerial/ros/node_handle.h ****   template<typename MReq, typename MRes>
ARM GAS  /var/folders/l3/4y5292px21b4835bsnjwqc7w009kq1/T//ccaF8PhA.s 			page 53


 539:ROSSerial/ros/node_handle.h ****   bool serviceClient(ServiceClient<MReq, MRes>& srv)
 540:ROSSerial/ros/node_handle.h ****   {
 541:ROSSerial/ros/node_handle.h ****     bool v = advertise(srv.pub);
 542:ROSSerial/ros/node_handle.h ****     for (int i = 0; i < MAX_SUBSCRIBERS; i++)
 543:ROSSerial/ros/node_handle.h ****     {
 544:ROSSerial/ros/node_handle.h ****       if (subscribers[i] == 0) // empty slot
 545:ROSSerial/ros/node_handle.h ****       {
 546:ROSSerial/ros/node_handle.h ****         subscribers[i] = static_cast<Subscriber_*>(&srv);
 547:ROSSerial/ros/node_handle.h ****         srv.id_ = i + 100;
 548:ROSSerial/ros/node_handle.h ****         return v;
 549:ROSSerial/ros/node_handle.h ****       }
 550:ROSSerial/ros/node_handle.h ****     }
 551:ROSSerial/ros/node_handle.h ****     return false;
 552:ROSSerial/ros/node_handle.h ****   }
 553:ROSSerial/ros/node_handle.h **** 
 554:ROSSerial/ros/node_handle.h ****   void negotiateTopics()
 555:ROSSerial/ros/node_handle.h ****   {
 556:ROSSerial/ros/node_handle.h ****     rosserial_msgs::TopicInfo ti;
 557:ROSSerial/ros/node_handle.h ****     int i;
 558:ROSSerial/ros/node_handle.h ****     for (i = 0; i < MAX_PUBLISHERS; i++)
 559:ROSSerial/ros/node_handle.h ****     {
 560:ROSSerial/ros/node_handle.h ****       if (publishers2[i].topic_id != 0) // non-empty slot
 561:ROSSerial/ros/node_handle.h ****       {
 562:ROSSerial/ros/node_handle.h ****         ti.topic_id = publishers2[i].topic_id;
 563:ROSSerial/ros/node_handle.h ****         ti.topic_name = publishers2[i].topic_name;
 564:ROSSerial/ros/node_handle.h ****         ti.message_type = publishers2[i].message_type;
 565:ROSSerial/ros/node_handle.h ****         ti.md5sum = publishers2[i].md5sum;
 566:ROSSerial/ros/node_handle.h ****         ti.buffer_size = OUTPUT_SIZE;
 567:ROSSerial/ros/node_handle.h ****         publish1(TopicInfo::ID_PUBLISHER, &ti);
 568:ROSSerial/ros/node_handle.h ****       }
 569:ROSSerial/ros/node_handle.h ****     }
 570:ROSSerial/ros/node_handle.h ****     for (i = 0; i < MAX_SUBSCRIBERS; i++)
 571:ROSSerial/ros/node_handle.h ****     {
 572:ROSSerial/ros/node_handle.h ****       if (subscribers2[i].topic_id != 0) // non-empty slot
 573:ROSSerial/ros/node_handle.h ****       {
 574:ROSSerial/ros/node_handle.h ****         ti.topic_id = subscribers2[i].topic_id;
 575:ROSSerial/ros/node_handle.h ****         ti.topic_name = subscribers2[i].topic_name;
 576:ROSSerial/ros/node_handle.h ****         ti.message_type = subscribers2[i].message_type;
 577:ROSSerial/ros/node_handle.h ****         ti.md5sum = subscribers2[i].md5sum;
 578:ROSSerial/ros/node_handle.h ****         ti.buffer_size = INPUT_SIZE;
 579:ROSSerial/ros/node_handle.h ****         publish1(rosserial_msgs::TopicInfo::ID_SUBSCRIBER, &ti);
 580:ROSSerial/ros/node_handle.h ****       }
 581:ROSSerial/ros/node_handle.h ****     }
 582:ROSSerial/ros/node_handle.h ****     configured_ = true;
 583:ROSSerial/ros/node_handle.h ****   }
 584:ROSSerial/ros/node_handle.h **** 
 585:ROSSerial/ros/node_handle.h ****   virtual int publish(int id, const Msg * msg)
 586:ROSSerial/ros/node_handle.h ****   {
 587:ROSSerial/ros/node_handle.h ****     return publish1(id, msg);
 588:ROSSerial/ros/node_handle.h ****   }
 589:ROSSerial/ros/node_handle.h **** 
 590:ROSSerial/ros/node_handle.h ****   int publish1(int id, Msg * msg)
 1781              		.loc 7 590 0
 1782              		.cfi_startproc
 1783              		@ args = 0, pretend = 0, frame = 16
 1784              		@ frame_needed = 0, uses_anonymous_args = 0
 1785              	.LVL218:
ARM GAS  /var/folders/l3/4y5292px21b4835bsnjwqc7w009kq1/T//ccaF8PhA.s 			page 54


 1786 0000 30B5     		push	{r4, r5, lr}
 1787              		.save {r4, r5, lr}
 1788              	.LCFI14:
 1789              		.cfi_def_cfa_offset 12
 1790              		.cfi_offset 4, -12
 1791              		.cfi_offset 5, -8
 1792              		.cfi_offset 14, -4
 1793              		.pad #20
 1794 0002 85B0     		sub	sp, sp, #20
 1795              	.LCFI15:
 1796              		.cfi_def_cfa_offset 32
 591:ROSSerial/ros/node_handle.h ****   {
 592:ROSSerial/ros/node_handle.h ****     //printf("in nh.publsh %d\n",id);
 593:ROSSerial/ros/node_handle.h ****     if (id >= 100 && !configured_)
 1797              		.loc 7 593 0
 1798 0004 6329     		cmp	r1, #99
 1799 0006 03DD     		ble	.L102
 1800              		.loc 7 593 0 is_stmt 0 discriminator 1
 1801 0008 90F81C35 		ldrb	r3, [r0, #1308]	@ zero_extendqisi2
 1802 000c 002B     		cmp	r3, #0
 1803 000e 5AD0     		beq	.L107
 1804              	.L102:
 1805 0010 0D46     		mov	r5, r1
 1806 0012 0446     		mov	r4, r0
 594:ROSSerial/ros/node_handle.h ****       return 0;
 595:ROSSerial/ros/node_handle.h ****     //printf("in nh.publsh %s\n",msg->getType());
 596:ROSSerial/ros/node_handle.h ****     /* serialize message */
 597:ROSSerial/ros/node_handle.h ****     int l = msg->serialize(message_out + 7);
 1807              		.loc 7 597 0 is_stmt 1
 1808 0014 1368     		ldr	r3, [r2]
 1809 0016 1B68     		ldr	r3, [r3]
 1810 0018 00F21F21 		addw	r1, r0, #543
 1811              	.LVL219:
 1812 001c 1046     		mov	r0, r2
 1813              	.LVL220:
 1814 001e 9847     		blx	r3
 1815              	.LVL221:
 598:ROSSerial/ros/node_handle.h **** 
 599:ROSSerial/ros/node_handle.h ****     /* setup the header */
 600:ROSSerial/ros/node_handle.h ****     message_out[0] = 0xff;
 1816              		.loc 7 600 0
 1817 0020 FF23     		movs	r3, #255
 1818 0022 84F81832 		strb	r3, [r4, #536]
 601:ROSSerial/ros/node_handle.h ****     message_out[1] = PROTOCOL_VER;
 1819              		.loc 7 601 0
 1820 0026 FE23     		movs	r3, #254
 1821 0028 84F81932 		strb	r3, [r4, #537]
 602:ROSSerial/ros/node_handle.h ****     message_out[2] = (uint8_t)((uint16_t)l & 255);
 1822              		.loc 7 602 0
 1823 002c C3B2     		uxtb	r3, r0
 1824 002e 84F81A32 		strb	r3, [r4, #538]
 603:ROSSerial/ros/node_handle.h ****     message_out[3] = (uint8_t)((uint16_t)l >> 8);
 1825              		.loc 7 603 0
 1826 0032 C0F30722 		ubfx	r2, r0, #8, #8
 1827 0036 84F81B22 		strb	r2, [r4, #539]
 604:ROSSerial/ros/node_handle.h ****     message_out[4] = 255 - ((message_out[2] + message_out[3]) % 256);
 1828              		.loc 7 604 0
ARM GAS  /var/folders/l3/4y5292px21b4835bsnjwqc7w009kq1/T//ccaF8PhA.s 			page 55


 1829 003a 1344     		add	r3, r3, r2
 1830 003c DBB2     		uxtb	r3, r3
 1831 003e DB43     		mvns	r3, r3
 1832 0040 84F81C32 		strb	r3, [r4, #540]
 605:ROSSerial/ros/node_handle.h ****     message_out[5] = (uint8_t)((int16_t)id & 255);
 1833              		.loc 7 605 0
 1834 0044 84F81D52 		strb	r5, [r4, #541]
 606:ROSSerial/ros/node_handle.h ****     message_out[6] = (uint8_t)((int16_t)id >> 8);
 1835              		.loc 7 606 0
 1836 0048 45F30721 		sbfx	r1, r5, #8, #8
 1837 004c 84F81E12 		strb	r1, [r4, #542]
 1838              	.LVL222:
 1839              	.LBB185:
 607:ROSSerial/ros/node_handle.h **** 
 608:ROSSerial/ros/node_handle.h ****     /* calculate checksum */
 609:ROSSerial/ros/node_handle.h ****     int chk = 0;
 610:ROSSerial/ros/node_handle.h ****     for (int i = 5; i < l + 7; i++)
 1840              		.loc 7 610 0
 1841 0050 0523     		movs	r3, #5
 1842              	.LBE185:
 609:ROSSerial/ros/node_handle.h ****     for (int i = 5; i < l + 7; i++)
 1843              		.loc 7 609 0
 1844 0052 0022     		movs	r2, #0
 1845              	.LVL223:
 1846              	.L105:
 1847              	.LBB186:
 1848              		.loc 7 610 0 discriminator 3
 1849 0054 C11D     		adds	r1, r0, #7
 1850 0056 9942     		cmp	r1, r3
 1851 0058 05DD     		ble	.L104
 611:ROSSerial/ros/node_handle.h ****       chk += message_out[i];
 1852              		.loc 7 611 0 discriminator 2
 1853 005a E118     		adds	r1, r4, r3
 1854 005c 91F81812 		ldrb	r1, [r1, #536]	@ zero_extendqisi2
 1855 0060 0A44     		add	r2, r2, r1
 1856              	.LVL224:
 610:ROSSerial/ros/node_handle.h ****       chk += message_out[i];
 1857              		.loc 7 610 0 discriminator 2
 1858 0062 0133     		adds	r3, r3, #1
 1859              	.LVL225:
 1860 0064 F6E7     		b	.L105
 1861              	.L104:
 1862              	.LVL226:
 1863              	.LBE186:
 612:ROSSerial/ros/node_handle.h ****     l += 7;
 613:ROSSerial/ros/node_handle.h ****     message_out[l++] = 255 - (chk % 256);
 1864              		.loc 7 613 0
 1865 0066 5342     		rsbs	r3, r2, #0
 1866              	.LVL227:
 1867 0068 D2B2     		uxtb	r2, r2
 1868              	.LVL228:
 1869 006a DBB2     		uxtb	r3, r3
 1870 006c 58BF     		it	pl
 1871 006e 5A42     		rsbpl	r2, r3, #0
 1872 0070 00F10805 		add	r5, r0, #8
 1873              	.LVL229:
 1874 0074 D243     		mvns	r2, r2
ARM GAS  /var/folders/l3/4y5292px21b4835bsnjwqc7w009kq1/T//ccaF8PhA.s 			page 56


 1875 0076 2144     		add	r1, r1, r4
 1876 0078 81F81822 		strb	r2, [r1, #536]
 614:ROSSerial/ros/node_handle.h ****     //printf("Sending message - %s, length %d\n",msg->getType(), l);
 615:ROSSerial/ros/node_handle.h ****     if (l <= OUTPUT_SIZE)
 1877              		.loc 7 615 0
 1878 007c B5F5007F 		cmp	r5, #512
 1879 0080 12DC     		bgt	.L106
 616:ROSSerial/ros/node_handle.h ****     {
 617:ROSSerial/ros/node_handle.h ****       hardware_.write(message_out, l);
 1880              		.loc 7 617 0
 1881 0082 04F50674 		add	r4, r4, #536
 1882              	.LVL230:
 1883              	.LBB187:
 1884              	.LBB188:
  66:ROSSerial/AT32hardware.h **** 		{
  67:ROSSerial/AT32hardware.h **** 			return -1;
  68:ROSSerial/AT32hardware.h **** 		}
  69:ROSSerial/AT32hardware.h **** 	}
  70:ROSSerial/AT32hardware.h **** 
  71:ROSSerial/AT32hardware.h **** 	/*
  72:ROSSerial/AT32hardware.h ****      * Method: read
  73:ROSSerial/AT32hardware.h **** 	 * ----------------------------
  74:ROSSerial/AT32hardware.h **** 	 *   Read a byte of data from ROS connection
  75:ROSSerial/AT32hardware.h **** 	 *   parameters: none
  76:ROSSerial/AT32hardware.h **** 	 *   returns: data, or -1 if there are no data
  77:ROSSerial/AT32hardware.h **** 	 */
  78:ROSSerial/AT32hardware.h **** 	int read(void)
  79:ROSSerial/AT32hardware.h **** 	{
  80:ROSSerial/AT32hardware.h **** 		int ucData = -1;
  81:ROSSerial/AT32hardware.h **** 		
  82:ROSSerial/AT32hardware.h **** 		if(g_RxRead < g_RxWritten)
  83:ROSSerial/AT32hardware.h **** 		{
  84:ROSSerial/AT32hardware.h **** 			ucData = g_RxBuf[g_RxRead++];
  85:ROSSerial/AT32hardware.h **** 		}
  86:ROSSerial/AT32hardware.h **** 		else if (g_RxWritten < RX_BUF_SIZE &&  g_RxRead == g_RxWritten )
  87:ROSSerial/AT32hardware.h **** 		{
  88:ROSSerial/AT32hardware.h **** 			g_RxRead = 0;
  89:ROSSerial/AT32hardware.h **** 			g_RxWritten = 0;
  90:ROSSerial/AT32hardware.h **** 			__HAL_UART_ENABLE_IT(&huart2, UART_IT_TC);
  91:ROSSerial/AT32hardware.h ****       		HAL_UART_Receive_IT(&huart2, &byte, 1);
  92:ROSSerial/AT32hardware.h **** 		}
  93:ROSSerial/AT32hardware.h **** 		else if (g_RxWritten < RX_BUF_SIZE && g_RxWritten > g_RxRead)
  94:ROSSerial/AT32hardware.h **** 		{
  95:ROSSerial/AT32hardware.h **** 			printf("How did this happen? %d %d\n",g_RxRead,g_RxWritten);
  96:ROSSerial/AT32hardware.h **** 		}
  97:ROSSerial/AT32hardware.h **** 		
  98:ROSSerial/AT32hardware.h **** 		
  99:ROSSerial/AT32hardware.h **** 		if(g_RxRead == RX_BUF_SIZE )
 100:ROSSerial/AT32hardware.h **** 		{
 101:ROSSerial/AT32hardware.h **** 			g_RxRead = 0;
 102:ROSSerial/AT32hardware.h **** 			g_RxWritten = 0;
 103:ROSSerial/AT32hardware.h **** 			//Enable the interrupt so we can read again.
 104:ROSSerial/AT32hardware.h **** 			__HAL_UART_ENABLE_IT(&huart2, UART_IT_TC);
 105:ROSSerial/AT32hardware.h ****       		HAL_UART_Receive_IT(&huart2, &byte, 1);
 106:ROSSerial/AT32hardware.h **** 		}
 107:ROSSerial/AT32hardware.h **** 		return ucData;
 108:ROSSerial/AT32hardware.h **** 	}
ARM GAS  /var/folders/l3/4y5292px21b4835bsnjwqc7w009kq1/T//ccaF8PhA.s 			page 57


 109:ROSSerial/AT32hardware.h **** 
 110:ROSSerial/AT32hardware.h **** 	/*
 111:ROSSerial/AT32hardware.h **** 	 * Method: write
 112:ROSSerial/AT32hardware.h ****      * ----------------------------
 113:ROSSerial/AT32hardware.h **** 	 *   Send data to ROS connection
 114:ROSSerial/AT32hardware.h **** 	 *   parameters: pointer to data array, length of data
 115:ROSSerial/AT32hardware.h **** 	 *   returns: none
 116:ROSSerial/AT32hardware.h **** 	 */
 117:ROSSerial/AT32hardware.h **** 	void write(uint8_t* data, uint32_t length)
 118:ROSSerial/AT32hardware.h **** 	{
 119:ROSSerial/AT32hardware.h **** 		// printf("printing %d\n",length);
 120:ROSSerial/AT32hardware.h **** 		/* Without Interrupt takes 3ms longer per chatter message */
 121:ROSSerial/AT32hardware.h **** 		HAL_StatusTypeDef ret = HAL_UART_Transmit(&huart2, (uint8_t *)data, length, 10);
 1885              		.loc 8 121 0
 1886 0086 0A23     		movs	r3, #10
 1887 0088 AAB2     		uxth	r2, r5
 1888 008a 2146     		mov	r1, r4
 1889 008c 0F48     		ldr	r0, .L110
 1890 008e FFF7FEFF 		bl	HAL_UART_Transmit
 1891              	.LVL231:
 122:ROSSerial/AT32hardware.h **** 		if(ret == HAL_TIMEOUT)
 1892              		.loc 8 122 0
 1893 0092 0328     		cmp	r0, #3
 1894 0094 02D0     		beq	.L109
 1895              	.LVL232:
 1896              	.L101:
 1897              	.LBE188:
 1898              	.LBE187:
 618:ROSSerial/ros/node_handle.h ****       return l;
 619:ROSSerial/ros/node_handle.h ****     }
 620:ROSSerial/ros/node_handle.h ****     else
 621:ROSSerial/ros/node_handle.h ****     {
 622:ROSSerial/ros/node_handle.h ****       logerror("Message from device dropped: message larger than buffer.");
 623:ROSSerial/ros/node_handle.h ****       return -1;
 624:ROSSerial/ros/node_handle.h ****     }
 625:ROSSerial/ros/node_handle.h ****   }
 1899              		.loc 7 625 0
 1900 0096 2846     		mov	r0, r5
 1901 0098 05B0     		add	sp, sp, #20
 1902              	.LCFI16:
 1903              		.cfi_remember_state
 1904              		.cfi_def_cfa_offset 12
 1905              		@ sp needed
 1906 009a 30BD     		pop	{r4, r5, pc}
 1907              	.LVL233:
 1908              	.L109:
 1909              	.LCFI17:
 1910              		.cfi_restore_state
 1911              	.LBB190:
 1912              	.LBB189:
 123:ROSSerial/AT32hardware.h **** 		{
 124:ROSSerial/AT32hardware.h **** 			printf("timeout %d - %s\n",length, data);
 1913              		.loc 8 124 0
 1914 009c 2246     		mov	r2, r4
 1915 009e 2946     		mov	r1, r5
 1916 00a0 0B48     		ldr	r0, .L110+4
 1917              	.LVL234:
ARM GAS  /var/folders/l3/4y5292px21b4835bsnjwqc7w009kq1/T//ccaF8PhA.s 			page 58


 1918 00a2 FFF7FEFF 		bl	printf
 1919              	.LVL235:
 1920 00a6 F6E7     		b	.L101
 1921              	.LVL236:
 1922              	.L106:
 1923              	.LBE189:
 1924              	.LBE190:
 1925              	.LBB191:
 1926              	.LBB192:
 1927              	.LBB193:
 1928              	.LBB194:
 1929              	.LBB195:
  13:ROSSerial/rosserial_msgs/Log.h ****   {
 1930              		.loc 3 13 0
 1931 00a8 0A4B     		ldr	r3, .L110+8
 1932 00aa 0193     		str	r3, [sp, #4]
 1933              	.LVL237:
 1934              	.LBE195:
 1935              	.LBE194:
 626:ROSSerial/ros/node_handle.h **** 
 627:ROSSerial/ros/node_handle.h ****   /********************************************************************
 628:ROSSerial/ros/node_handle.h ****    * Logging
 629:ROSSerial/ros/node_handle.h ****    */
 630:ROSSerial/ros/node_handle.h **** 
 631:ROSSerial/ros/node_handle.h **** private:
 632:ROSSerial/ros/node_handle.h ****   void log(char byte, const char * msg)
 633:ROSSerial/ros/node_handle.h ****   {
 634:ROSSerial/ros/node_handle.h ****     rosserial_msgs::Log l;
 635:ROSSerial/ros/node_handle.h ****     l.level = byte;
 1936              		.loc 7 635 0
 1937 00ac 0323     		movs	r3, #3
 1938 00ae 8DF80830 		strb	r3, [sp, #8]
 636:ROSSerial/ros/node_handle.h ****     l.msg = (char*)msg;
 1939              		.loc 7 636 0
 1940 00b2 094B     		ldr	r3, .L110+12
 1941 00b4 0393     		str	r3, [sp, #12]
 637:ROSSerial/ros/node_handle.h ****     publish1(rosserial_msgs::TopicInfo::ID_LOG, &l);
 1942              		.loc 7 637 0
 1943 00b6 01AA     		add	r2, sp, #4
 1944 00b8 0721     		movs	r1, #7
 1945 00ba 2046     		mov	r0, r4
 1946 00bc FFF7FEFF 		bl	_ZN3ros11NodeHandle_I13STM32HardwareLi5ELi5ELi512ELi512EE8publish1EiPNS_3MsgE
 1947              	.LVL238:
 1948              	.LBE193:
 1949              	.LBE192:
 1950              	.LBE191:
 623:ROSSerial/ros/node_handle.h ****     }
 1951              		.loc 7 623 0
 1952 00c0 4FF0FF35 		mov	r5, #-1
 1953              	.LVL239:
 1954 00c4 E7E7     		b	.L101
 1955              	.LVL240:
 1956              	.L107:
 594:ROSSerial/ros/node_handle.h ****     //printf("in nh.publsh %s\n",msg->getType());
 1957              		.loc 7 594 0
 1958 00c6 0025     		movs	r5, #0
 1959 00c8 E5E7     		b	.L101
ARM GAS  /var/folders/l3/4y5292px21b4835bsnjwqc7w009kq1/T//ccaF8PhA.s 			page 59


 1960              	.L111:
 1961 00ca 00BF     		.align	2
 1962              	.L110:
 1963 00cc 00000000 		.word	huart2
 1964 00d0 00000000 		.word	.LC11
 1965 00d4 08000000 		.word	_ZTVN14rosserial_msgs3LogE+8
 1966 00d8 14000000 		.word	.LC12
 1967              		.cfi_endproc
 1968              	.LFE494:
 1969              		.fnend
 1971              		.section	.text._ZN3ros11NodeHandle_I13STM32HardwareLi5ELi5ELi512ELi512EE7publishEiPKNS_3MsgE,"axG"
 1972              		.align	1
 1973              		.weak	_ZN3ros11NodeHandle_I13STM32HardwareLi5ELi5ELi512ELi512EE7publishEiPKNS_3MsgE
 1974              		.syntax unified
 1975              		.thumb
 1976              		.thumb_func
 1977              		.fpu fpv4-sp-d16
 1979              	_ZN3ros11NodeHandle_I13STM32HardwareLi5ELi5ELi512ELi512EE7publishEiPKNS_3MsgE:
 1980              		.fnstart
 1981              	.LFB511:
 585:ROSSerial/ros/node_handle.h ****   {
 1982              		.loc 7 585 0
 1983              		.cfi_startproc
 1984              		@ args = 0, pretend = 0, frame = 24
 1985              		@ frame_needed = 0, uses_anonymous_args = 0
 1986              	.LVL241:
 1987 0000 30B5     		push	{r4, r5, lr}
 1988              		.save {r4, r5, lr}
 1989              	.LCFI18:
 1990              		.cfi_def_cfa_offset 12
 1991              		.cfi_offset 4, -12
 1992              		.cfi_offset 5, -8
 1993              		.cfi_offset 14, -4
 1994              		.pad #28
 1995 0002 87B0     		sub	sp, sp, #28
 1996              	.LCFI19:
 1997              		.cfi_def_cfa_offset 40
 1998              	.LVL242:
 1999              	.LBB218:
 2000              	.LBB219:
 593:ROSSerial/ros/node_handle.h ****       return 0;
 2001              		.loc 7 593 0
 2002 0004 6329     		cmp	r1, #99
 2003 0006 04DD     		ble	.L113
 2004 0008 90F81C35 		ldrb	r3, [r0, #1308]	@ zero_extendqisi2
 2005 000c 002B     		cmp	r3, #0
 2006 000e 00F0A880 		beq	.L122
 2007              	.L113:
 2008 0012 0D46     		mov	r5, r1
 2009 0014 0446     		mov	r4, r0
 597:ROSSerial/ros/node_handle.h **** 
 2010              		.loc 7 597 0
 2011 0016 1368     		ldr	r3, [r2]
 2012 0018 1B68     		ldr	r3, [r3]
 2013 001a 00F21F21 		addw	r1, r0, #543
 2014              	.LVL243:
 2015 001e 1046     		mov	r0, r2
ARM GAS  /var/folders/l3/4y5292px21b4835bsnjwqc7w009kq1/T//ccaF8PhA.s 			page 60


 2016              	.LVL244:
 2017 0020 9847     		blx	r3
 2018              	.LVL245:
 600:ROSSerial/ros/node_handle.h ****     message_out[1] = PROTOCOL_VER;
 2019              		.loc 7 600 0
 2020 0022 FF23     		movs	r3, #255
 2021 0024 84F81832 		strb	r3, [r4, #536]
 601:ROSSerial/ros/node_handle.h ****     message_out[2] = (uint8_t)((uint16_t)l & 255);
 2022              		.loc 7 601 0
 2023 0028 FE23     		movs	r3, #254
 2024 002a 84F81932 		strb	r3, [r4, #537]
 602:ROSSerial/ros/node_handle.h ****     message_out[3] = (uint8_t)((uint16_t)l >> 8);
 2025              		.loc 7 602 0
 2026 002e C3B2     		uxtb	r3, r0
 2027 0030 84F81A32 		strb	r3, [r4, #538]
 603:ROSSerial/ros/node_handle.h ****     message_out[4] = 255 - ((message_out[2] + message_out[3]) % 256);
 2028              		.loc 7 603 0
 2029 0034 C0F30722 		ubfx	r2, r0, #8, #8
 2030 0038 84F81B22 		strb	r2, [r4, #539]
 604:ROSSerial/ros/node_handle.h ****     message_out[5] = (uint8_t)((int16_t)id & 255);
 2031              		.loc 7 604 0
 2032 003c 1344     		add	r3, r3, r2
 2033 003e DBB2     		uxtb	r3, r3
 2034 0040 DB43     		mvns	r3, r3
 2035 0042 84F81C32 		strb	r3, [r4, #540]
 605:ROSSerial/ros/node_handle.h ****     message_out[6] = (uint8_t)((int16_t)id >> 8);
 2036              		.loc 7 605 0
 2037 0046 84F81D52 		strb	r5, [r4, #541]
 606:ROSSerial/ros/node_handle.h **** 
 2038              		.loc 7 606 0
 2039 004a 45F30721 		sbfx	r1, r5, #8, #8
 2040 004e 84F81E12 		strb	r1, [r4, #542]
 2041              	.LVL246:
 2042              	.LBB220:
 610:ROSSerial/ros/node_handle.h ****       chk += message_out[i];
 2043              		.loc 7 610 0
 2044 0052 0523     		movs	r3, #5
 2045              	.LBE220:
 609:ROSSerial/ros/node_handle.h ****     for (int i = 5; i < l + 7; i++)
 2046              		.loc 7 609 0
 2047 0054 0022     		movs	r2, #0
 2048              	.LVL247:
 2049              	.L116:
 2050              	.LBB221:
 610:ROSSerial/ros/node_handle.h ****       chk += message_out[i];
 2051              		.loc 7 610 0
 2052 0056 C11D     		adds	r1, r0, #7
 2053 0058 9942     		cmp	r1, r3
 2054 005a 05DD     		ble	.L115
 611:ROSSerial/ros/node_handle.h ****     l += 7;
 2055              		.loc 7 611 0
 2056 005c E118     		adds	r1, r4, r3
 2057 005e 91F81812 		ldrb	r1, [r1, #536]	@ zero_extendqisi2
 2058 0062 0A44     		add	r2, r2, r1
 2059              	.LVL248:
 610:ROSSerial/ros/node_handle.h ****       chk += message_out[i];
 2060              		.loc 7 610 0
ARM GAS  /var/folders/l3/4y5292px21b4835bsnjwqc7w009kq1/T//ccaF8PhA.s 			page 61


 2061 0064 0133     		adds	r3, r3, #1
 2062              	.LVL249:
 2063 0066 F6E7     		b	.L116
 2064              	.L115:
 2065              	.LVL250:
 2066              	.LBE221:
 613:ROSSerial/ros/node_handle.h ****     //printf("Sending message - %s, length %d\n",msg->getType(), l);
 2067              		.loc 7 613 0
 2068 0068 5342     		rsbs	r3, r2, #0
 2069              	.LVL251:
 2070 006a D2B2     		uxtb	r2, r2
 2071              	.LVL252:
 2072 006c DBB2     		uxtb	r3, r3
 2073 006e 58BF     		it	pl
 2074 0070 5A42     		rsbpl	r2, r3, #0
 2075 0072 00F10805 		add	r5, r0, #8
 2076              	.LVL253:
 2077 0076 D243     		mvns	r2, r2
 2078 0078 2144     		add	r1, r1, r4
 2079 007a 81F81822 		strb	r2, [r1, #536]
 615:ROSSerial/ros/node_handle.h ****     {
 2080              		.loc 7 615 0
 2081 007e B5F5007F 		cmp	r5, #512
 2082 0082 12DC     		bgt	.L117
 617:ROSSerial/ros/node_handle.h ****       return l;
 2083              		.loc 7 617 0
 2084 0084 04F50674 		add	r4, r4, #536
 2085              	.LVL254:
 2086              	.LBB222:
 2087              	.LBB223:
 121:ROSSerial/AT32hardware.h **** 		if(ret == HAL_TIMEOUT)
 2088              		.loc 8 121 0
 2089 0088 0A23     		movs	r3, #10
 2090 008a AAB2     		uxth	r2, r5
 2091 008c 2146     		mov	r1, r4
 2092 008e 3648     		ldr	r0, .L126
 2093 0090 FFF7FEFF 		bl	HAL_UART_Transmit
 2094              	.LVL255:
 122:ROSSerial/AT32hardware.h **** 		{
 2095              		.loc 8 122 0
 2096 0094 0328     		cmp	r0, #3
 2097 0096 02D0     		beq	.L124
 2098              	.LVL256:
 2099              	.L112:
 2100              	.LBE223:
 2101              	.LBE222:
 2102              	.LBE219:
 2103              	.LBE218:
 588:ROSSerial/ros/node_handle.h **** 
 2104              		.loc 7 588 0
 2105 0098 2846     		mov	r0, r5
 2106 009a 07B0     		add	sp, sp, #28
 2107              	.LCFI20:
 2108              		.cfi_remember_state
 2109              		.cfi_def_cfa_offset 12
 2110              		@ sp needed
 2111 009c 30BD     		pop	{r4, r5, pc}
ARM GAS  /var/folders/l3/4y5292px21b4835bsnjwqc7w009kq1/T//ccaF8PhA.s 			page 62


 2112              	.LVL257:
 2113              	.L124:
 2114              	.LCFI21:
 2115              		.cfi_restore_state
 2116              	.LBB249:
 2117              	.LBB248:
 2118              	.LBB225:
 2119              	.LBB224:
 2120              		.loc 8 124 0
 2121 009e 2246     		mov	r2, r4
 2122 00a0 2946     		mov	r1, r5
 2123 00a2 3248     		ldr	r0, .L126+4
 2124              	.LVL258:
 2125 00a4 FFF7FEFF 		bl	printf
 2126              	.LVL259:
 2127 00a8 F6E7     		b	.L112
 2128              	.LVL260:
 2129              	.L117:
 2130              	.LBE224:
 2131              	.LBE225:
 2132              	.LBB226:
 2133              	.LBB227:
 2134              	.LBB228:
 2135              	.LBB229:
 2136              	.LBB230:
  13:ROSSerial/rosserial_msgs/Log.h ****   {
 2137              		.loc 3 13 0
 2138 00aa 314B     		ldr	r3, .L126+8
 2139 00ac 0093     		str	r3, [sp]
 2140              	.LVL261:
 2141              	.LBE230:
 2142              	.LBE229:
 635:ROSSerial/ros/node_handle.h ****     l.msg = (char*)msg;
 2143              		.loc 7 635 0
 2144 00ae 0322     		movs	r2, #3
 2145 00b0 8DF80420 		strb	r2, [sp, #4]
 636:ROSSerial/ros/node_handle.h ****     publish1(rosserial_msgs::TopicInfo::ID_LOG, &l);
 2146              		.loc 7 636 0
 2147 00b4 2F4A     		ldr	r2, .L126+12
 2148 00b6 0292     		str	r2, [sp, #8]
 2149              	.LVL262:
 2150              	.LBB231:
 2151              	.LBB232:
 597:ROSSerial/ros/node_handle.h **** 
 2152              		.loc 7 597 0
 2153 00b8 1B68     		ldr	r3, [r3]
 2154 00ba 04F21F21 		addw	r1, r4, #543
 2155 00be 6846     		mov	r0, sp
 2156 00c0 9847     		blx	r3
 2157              	.LVL263:
 600:ROSSerial/ros/node_handle.h ****     message_out[1] = PROTOCOL_VER;
 2158              		.loc 7 600 0
 2159 00c2 FF23     		movs	r3, #255
 2160 00c4 84F81832 		strb	r3, [r4, #536]
 601:ROSSerial/ros/node_handle.h ****     message_out[2] = (uint8_t)((uint16_t)l & 255);
 2161              		.loc 7 601 0
 2162 00c8 FE23     		movs	r3, #254
ARM GAS  /var/folders/l3/4y5292px21b4835bsnjwqc7w009kq1/T//ccaF8PhA.s 			page 63


 2163 00ca 84F81932 		strb	r3, [r4, #537]
 602:ROSSerial/ros/node_handle.h ****     message_out[3] = (uint8_t)((uint16_t)l >> 8);
 2164              		.loc 7 602 0
 2165 00ce C3B2     		uxtb	r3, r0
 2166 00d0 84F81A32 		strb	r3, [r4, #538]
 603:ROSSerial/ros/node_handle.h ****     message_out[4] = 255 - ((message_out[2] + message_out[3]) % 256);
 2167              		.loc 7 603 0
 2168 00d4 C0F30722 		ubfx	r2, r0, #8, #8
 2169 00d8 84F81B22 		strb	r2, [r4, #539]
 604:ROSSerial/ros/node_handle.h ****     message_out[5] = (uint8_t)((int16_t)id & 255);
 2170              		.loc 7 604 0
 2171 00dc 1344     		add	r3, r3, r2
 2172 00de DBB2     		uxtb	r3, r3
 2173 00e0 DB43     		mvns	r3, r3
 2174 00e2 84F81C32 		strb	r3, [r4, #540]
 605:ROSSerial/ros/node_handle.h ****     message_out[6] = (uint8_t)((int16_t)id >> 8);
 2175              		.loc 7 605 0
 2176 00e6 0723     		movs	r3, #7
 2177 00e8 84F81D32 		strb	r3, [r4, #541]
 606:ROSSerial/ros/node_handle.h **** 
 2178              		.loc 7 606 0
 2179 00ec 0023     		movs	r3, #0
 2180 00ee 84F81E32 		strb	r3, [r4, #542]
 2181              	.LVL264:
 2182              	.LBB233:
 610:ROSSerial/ros/node_handle.h ****       chk += message_out[i];
 2183              		.loc 7 610 0
 2184 00f2 0522     		movs	r2, #5
 2185              	.LVL265:
 2186              	.L119:
 2187 00f4 C11D     		adds	r1, r0, #7
 2188 00f6 9142     		cmp	r1, r2
 2189 00f8 05DD     		ble	.L118
 611:ROSSerial/ros/node_handle.h ****     l += 7;
 2190              		.loc 7 611 0
 2191 00fa A118     		adds	r1, r4, r2
 2192 00fc 91F81812 		ldrb	r1, [r1, #536]	@ zero_extendqisi2
 2193 0100 0B44     		add	r3, r3, r1
 2194              	.LVL266:
 610:ROSSerial/ros/node_handle.h ****       chk += message_out[i];
 2195              		.loc 7 610 0
 2196 0102 0132     		adds	r2, r2, #1
 2197              	.LVL267:
 2198 0104 F6E7     		b	.L119
 2199              	.L118:
 2200              	.LVL268:
 2201              	.LBE233:
 613:ROSSerial/ros/node_handle.h ****     //printf("Sending message - %s, length %d\n",msg->getType(), l);
 2202              		.loc 7 613 0
 2203 0106 5A42     		rsbs	r2, r3, #0
 2204              	.LVL269:
 2205 0108 DBB2     		uxtb	r3, r3
 2206              	.LVL270:
 2207 010a D2B2     		uxtb	r2, r2
 2208 010c 58BF     		it	pl
 2209 010e 5342     		rsbpl	r3, r2, #0
 2210 0110 00F10805 		add	r5, r0, #8
ARM GAS  /var/folders/l3/4y5292px21b4835bsnjwqc7w009kq1/T//ccaF8PhA.s 			page 64


 2211              	.LVL271:
 2212 0114 DB43     		mvns	r3, r3
 2213 0116 2144     		add	r1, r1, r4
 2214 0118 81F81832 		strb	r3, [r1, #536]
 615:ROSSerial/ros/node_handle.h ****     {
 2215              		.loc 7 615 0
 2216 011c B5F5007F 		cmp	r5, #512
 2217 0120 12DC     		bgt	.L120
 617:ROSSerial/ros/node_handle.h ****       return l;
 2218              		.loc 7 617 0
 2219 0122 04F50674 		add	r4, r4, #536
 2220              	.LVL272:
 2221              	.LBB234:
 2222              	.LBB235:
 121:ROSSerial/AT32hardware.h **** 		if(ret == HAL_TIMEOUT)
 2223              		.loc 8 121 0
 2224 0126 0A23     		movs	r3, #10
 2225 0128 AAB2     		uxth	r2, r5
 2226 012a 2146     		mov	r1, r4
 2227 012c 0E48     		ldr	r0, .L126
 2228 012e FFF7FEFF 		bl	HAL_UART_Transmit
 2229              	.LVL273:
 122:ROSSerial/AT32hardware.h **** 		{
 2230              		.loc 8 122 0
 2231 0132 0328     		cmp	r0, #3
 2232 0134 02D0     		beq	.L125
 2233              	.LVL274:
 2234              	.L121:
 2235              	.LBE235:
 2236              	.LBE234:
 2237              	.LBE232:
 2238              	.LBE231:
 2239              	.LBE228:
 2240              	.LBE227:
 2241              	.LBE226:
 623:ROSSerial/ros/node_handle.h ****     }
 2242              		.loc 7 623 0
 2243 0136 4FF0FF35 		mov	r5, #-1
 2244 013a ADE7     		b	.L112
 2245              	.LVL275:
 2246              	.L125:
 2247              	.LBB247:
 2248              	.LBB246:
 2249              	.LBB245:
 2250              	.LBB244:
 2251              	.LBB243:
 2252              	.LBB237:
 2253              	.LBB236:
 2254              		.loc 8 124 0
 2255 013c 2246     		mov	r2, r4
 2256 013e 2946     		mov	r1, r5
 2257 0140 0A48     		ldr	r0, .L126+4
 2258              	.LVL276:
 2259 0142 FFF7FEFF 		bl	printf
 2260              	.LVL277:
 2261 0146 F6E7     		b	.L121
 2262              	.LVL278:
ARM GAS  /var/folders/l3/4y5292px21b4835bsnjwqc7w009kq1/T//ccaF8PhA.s 			page 65


 2263              	.L120:
 2264              	.LBE236:
 2265              	.LBE237:
 2266              	.LBB238:
 2267              	.LBB239:
 2268              	.LBB240:
 2269              	.LBB241:
 2270              	.LBB242:
  13:ROSSerial/rosserial_msgs/Log.h ****   {
 2271              		.loc 3 13 0
 2272 0148 094B     		ldr	r3, .L126+8
 2273 014a 0393     		str	r3, [sp, #12]
 2274              	.LVL279:
 2275              	.LBE242:
 2276              	.LBE241:
 635:ROSSerial/ros/node_handle.h ****     l.msg = (char*)msg;
 2277              		.loc 7 635 0
 2278 014c 0323     		movs	r3, #3
 2279 014e 8DF81030 		strb	r3, [sp, #16]
 636:ROSSerial/ros/node_handle.h ****     publish1(rosserial_msgs::TopicInfo::ID_LOG, &l);
 2280              		.loc 7 636 0
 2281 0152 084B     		ldr	r3, .L126+12
 2282 0154 0593     		str	r3, [sp, #20]
 2283              		.loc 7 637 0
 2284 0156 03AA     		add	r2, sp, #12
 2285 0158 0721     		movs	r1, #7
 2286 015a 2046     		mov	r0, r4
 2287 015c FFF7FEFF 		bl	_ZN3ros11NodeHandle_I13STM32HardwareLi5ELi5ELi512ELi512EE8publish1EiPNS_3MsgE
 2288              	.LVL280:
 2289 0160 E9E7     		b	.L121
 2290              	.LVL281:
 2291              	.L122:
 2292              	.LBE240:
 2293              	.LBE239:
 2294              	.LBE238:
 2295              	.LBE243:
 2296              	.LBE244:
 2297              	.LBE245:
 2298              	.LBE246:
 2299              	.LBE247:
 594:ROSSerial/ros/node_handle.h ****     //printf("in nh.publsh %s\n",msg->getType());
 2300              		.loc 7 594 0
 2301 0162 0025     		movs	r5, #0
 2302              	.LVL282:
 2303              	.LBE248:
 2304              	.LBE249:
 587:ROSSerial/ros/node_handle.h ****   }
 2305              		.loc 7 587 0
 2306 0164 98E7     		b	.L112
 2307              	.L127:
 2308 0166 00BF     		.align	2
 2309              	.L126:
 2310 0168 00000000 		.word	huart2
 2311 016c 00000000 		.word	.LC11
 2312 0170 08000000 		.word	_ZTVN14rosserial_msgs3LogE+8
 2313 0174 14000000 		.word	.LC12
 2314              		.cfi_endproc
ARM GAS  /var/folders/l3/4y5292px21b4835bsnjwqc7w009kq1/T//ccaF8PhA.s 			page 66


 2315              	.LFE511:
 2316              		.fnend
 2318              		.section	.text._ZN3ros11NodeHandle_I13STM32HardwareLi5ELi5ELi512ELi512EE15requestSyncTimeEv,"axG",
 2319              		.align	1
 2320              		.weak	_ZN3ros11NodeHandle_I13STM32HardwareLi5ELi5ELi512ELi512EE15requestSyncTimeEv
 2321              		.syntax unified
 2322              		.thumb
 2323              		.thumb_func
 2324              		.fpu fpv4-sp-d16
 2326              	_ZN3ros11NodeHandle_I13STM32HardwareLi5ELi5ELi512ELi512EE15requestSyncTimeEv:
 2327              		.fnstart
 2328              	.LFB495:
 411:ROSSerial/ros/node_handle.h ****   {
 2329              		.loc 7 411 0
 2330              		.cfi_startproc
 2331              		@ args = 0, pretend = 0, frame = 40
 2332              		@ frame_needed = 0, uses_anonymous_args = 0
 2333              	.LVL283:
 2334 0000 70B5     		push	{r4, r5, r6, lr}
 2335              		.save {r4, r5, r6, lr}
 2336              	.LCFI22:
 2337              		.cfi_def_cfa_offset 16
 2338              		.cfi_offset 4, -16
 2339              		.cfi_offset 5, -12
 2340              		.cfi_offset 6, -8
 2341              		.cfi_offset 14, -4
 2342              		.pad #40
 2343 0002 8AB0     		sub	sp, sp, #40
 2344              	.LCFI23:
 2345              		.cfi_def_cfa_offset 56
 2346 0004 0546     		mov	r5, r0
 2347              	.LVL284:
 2348              	.LBB288:
 2349              	.LBB289:
  14:ROSSerial/std_msgs/Time.h ****   {
 2350              		.loc 1 14 0
 2351 0006 544B     		ldr	r3, .L139
 2352 0008 0793     		str	r3, [sp, #28]
 2353              	.LVL285:
 2354              	.LBB290:
 2355              	.LBB291:
 2356              	.LBB292:
 2357              		.file 9 "ROSSerial/ros/time.h"
   1:ROSSerial/ros/time.h **** /*
   2:ROSSerial/ros/time.h ****  * Software License Agreement (BSD License)
   3:ROSSerial/ros/time.h ****  *
   4:ROSSerial/ros/time.h ****  * Copyright (c) 2011, Willow Garage, Inc.
   5:ROSSerial/ros/time.h ****  * All rights reserved.
   6:ROSSerial/ros/time.h ****  *
   7:ROSSerial/ros/time.h ****  * Redistribution and use in source and binary forms, with or without
   8:ROSSerial/ros/time.h ****  * modification, are permitted provided that the following conditions
   9:ROSSerial/ros/time.h ****  * are met:
  10:ROSSerial/ros/time.h ****  *
  11:ROSSerial/ros/time.h ****  *  * Redistributions of source code must retain the above copyright
  12:ROSSerial/ros/time.h ****  *    notice, this list of conditions and the following disclaimer.
  13:ROSSerial/ros/time.h ****  *  * Redistributions in binary form must reproduce the above
  14:ROSSerial/ros/time.h ****  *    copyright notice, this list of conditions and the following
ARM GAS  /var/folders/l3/4y5292px21b4835bsnjwqc7w009kq1/T//ccaF8PhA.s 			page 67


  15:ROSSerial/ros/time.h ****  *    disclaimer in the documentation and/or other materials provided
  16:ROSSerial/ros/time.h ****  *    with the distribution.
  17:ROSSerial/ros/time.h ****  *  * Neither the name of Willow Garage, Inc. nor the names of its
  18:ROSSerial/ros/time.h ****  *    contributors may be used to endorse or promote prducts derived
  19:ROSSerial/ros/time.h ****  *    from this software without specific prior written permission.
  20:ROSSerial/ros/time.h ****  *
  21:ROSSerial/ros/time.h ****  * THIS SOFTWARE IS PROVIDED BY THE COPYRIGHT HOLDERS AND CONTRIBUTORS
  22:ROSSerial/ros/time.h ****  * "AS IS" AND ANY EXPRESS OR IMPLIED WARRANTIES, INCLUDING, BUT NOT
  23:ROSSerial/ros/time.h ****  * LIMITED TO, THE IMPLIED WARRANTIES OF MERCHANTABILITY AND FITNESS
  24:ROSSerial/ros/time.h ****  * FOR A PARTICULAR PURPOSE ARE DISCLAIMED. IN NO EVENT SHALL THE
  25:ROSSerial/ros/time.h ****  * COPYRIGHT OWNER OR CONTRIBUTORS BE LIABLE FOR ANY DIRECT, INDIRECT,
  26:ROSSerial/ros/time.h ****  * INCIDENTAL, SPECIAL, EXEMPLARY, OR CONSEQUENTIAL DAMAGES (INCLUDING,
  27:ROSSerial/ros/time.h ****  * BUT NOT LIMITED TO, PROCUREMENT OF SUBSTITUTE GOODS OR SERVICES;
  28:ROSSerial/ros/time.h ****  * LOSS OF USE, DATA, OR PROFITS; OR BUSINESS INTERRUPTION) HOWEVER
  29:ROSSerial/ros/time.h ****  * CAUSED AND ON ANY THEORY OF LIABILITY, WHETHER IN CONTRACT, STRICT
  30:ROSSerial/ros/time.h ****  * LIABILITY, OR TORT (INCLUDING NEGLIGENCE OR OTHERWISE) ARISING IN
  31:ROSSerial/ros/time.h ****  * ANY WAY OUT OF THE USE OF THIS SOFTWARE, EVEN IF ADVISED OF THE
  32:ROSSerial/ros/time.h ****  * POSSIBILITY OF SUCH DAMAGE.
  33:ROSSerial/ros/time.h ****  */
  34:ROSSerial/ros/time.h **** 
  35:ROSSerial/ros/time.h **** #ifndef ROS_TIME_H_
  36:ROSSerial/ros/time.h **** #define ROS_TIME_H_
  37:ROSSerial/ros/time.h **** 
  38:ROSSerial/ros/time.h **** #include "ros/duration.h"
  39:ROSSerial/ros/time.h **** #include <math.h>
  40:ROSSerial/ros/time.h **** #include <stdint.h>
  41:ROSSerial/ros/time.h **** 
  42:ROSSerial/ros/time.h **** namespace ros
  43:ROSSerial/ros/time.h **** {
  44:ROSSerial/ros/time.h **** void normalizeSecNSec(uint32_t &sec, uint32_t &nsec);
  45:ROSSerial/ros/time.h **** 
  46:ROSSerial/ros/time.h **** class Time
  47:ROSSerial/ros/time.h **** {
  48:ROSSerial/ros/time.h **** public:
  49:ROSSerial/ros/time.h ****   uint32_t sec, nsec;
  50:ROSSerial/ros/time.h **** 
  51:ROSSerial/ros/time.h ****   Time() : sec(0), nsec(0) {}
 2358              		.loc 9 51 0
 2359 000a 0024     		movs	r4, #0
 2360 000c 0894     		str	r4, [sp, #32]
 2361 000e 0994     		str	r4, [sp, #36]
 2362              	.LVL286:
 2363              	.LBE292:
 2364              	.LBE291:
 2365              	.LBE290:
 2366              	.LBE289:
 2367              	.LBE288:
 2368              	.LBB293:
 2369              	.LBB294:
 597:ROSSerial/ros/node_handle.h **** 
 2370              		.loc 7 597 0
 2371 0010 1B68     		ldr	r3, [r3]
 2372 0012 00F21F21 		addw	r1, r0, #543
 2373 0016 07A8     		add	r0, sp, #28
 2374              	.LVL287:
 2375 0018 9847     		blx	r3
 2376              	.LVL288:
ARM GAS  /var/folders/l3/4y5292px21b4835bsnjwqc7w009kq1/T//ccaF8PhA.s 			page 68


 600:ROSSerial/ros/node_handle.h ****     message_out[1] = PROTOCOL_VER;
 2377              		.loc 7 600 0
 2378 001a FF23     		movs	r3, #255
 2379 001c 85F81832 		strb	r3, [r5, #536]
 601:ROSSerial/ros/node_handle.h ****     message_out[2] = (uint8_t)((uint16_t)l & 255);
 2380              		.loc 7 601 0
 2381 0020 FE23     		movs	r3, #254
 2382 0022 85F81932 		strb	r3, [r5, #537]
 602:ROSSerial/ros/node_handle.h ****     message_out[3] = (uint8_t)((uint16_t)l >> 8);
 2383              		.loc 7 602 0
 2384 0026 C3B2     		uxtb	r3, r0
 2385 0028 85F81A32 		strb	r3, [r5, #538]
 603:ROSSerial/ros/node_handle.h ****     message_out[4] = 255 - ((message_out[2] + message_out[3]) % 256);
 2386              		.loc 7 603 0
 2387 002c C0F30722 		ubfx	r2, r0, #8, #8
 2388 0030 85F81B22 		strb	r2, [r5, #539]
 604:ROSSerial/ros/node_handle.h ****     message_out[5] = (uint8_t)((int16_t)id & 255);
 2389              		.loc 7 604 0
 2390 0034 1344     		add	r3, r3, r2
 2391 0036 DBB2     		uxtb	r3, r3
 2392 0038 DB43     		mvns	r3, r3
 2393 003a 85F81C32 		strb	r3, [r5, #540]
 605:ROSSerial/ros/node_handle.h ****     message_out[6] = (uint8_t)((int16_t)id >> 8);
 2394              		.loc 7 605 0
 2395 003e 0A23     		movs	r3, #10
 2396 0040 85F81D32 		strb	r3, [r5, #541]
 606:ROSSerial/ros/node_handle.h **** 
 2397              		.loc 7 606 0
 2398 0044 85F81E42 		strb	r4, [r5, #542]
 2399              	.LVL289:
 2400              	.LBB295:
 610:ROSSerial/ros/node_handle.h ****       chk += message_out[i];
 2401              		.loc 7 610 0
 2402 0048 0522     		movs	r2, #5
 2403              	.LBE295:
 609:ROSSerial/ros/node_handle.h ****     for (int i = 5; i < l + 7; i++)
 2404              		.loc 7 609 0
 2405 004a 2346     		mov	r3, r4
 2406              	.LVL290:
 2407              	.L130:
 2408              	.LBB296:
 610:ROSSerial/ros/node_handle.h ****       chk += message_out[i];
 2409              		.loc 7 610 0
 2410 004c C41D     		adds	r4, r0, #7
 2411 004e 9442     		cmp	r4, r2
 2412 0050 05DD     		ble	.L129
 611:ROSSerial/ros/node_handle.h ****     l += 7;
 2413              		.loc 7 611 0
 2414 0052 A918     		adds	r1, r5, r2
 2415 0054 91F81812 		ldrb	r1, [r1, #536]	@ zero_extendqisi2
 2416 0058 0B44     		add	r3, r3, r1
 2417              	.LVL291:
 610:ROSSerial/ros/node_handle.h ****       chk += message_out[i];
 2418              		.loc 7 610 0
 2419 005a 0132     		adds	r2, r2, #1
 2420              	.LVL292:
 2421 005c F6E7     		b	.L130
ARM GAS  /var/folders/l3/4y5292px21b4835bsnjwqc7w009kq1/T//ccaF8PhA.s 			page 69


 2422              	.L129:
 2423              	.LVL293:
 2424              	.LBE296:
 613:ROSSerial/ros/node_handle.h ****     //printf("Sending message - %s, length %d\n",msg->getType(), l);
 2425              		.loc 7 613 0
 2426 005e 5A42     		rsbs	r2, r3, #0
 2427              	.LVL294:
 2428 0060 DBB2     		uxtb	r3, r3
 2429              	.LVL295:
 2430 0062 D2B2     		uxtb	r2, r2
 2431 0064 58BF     		it	pl
 2432 0066 5342     		rsbpl	r3, r2, #0
 2433 0068 00F10806 		add	r6, r0, #8
 2434              	.LVL296:
 2435 006c DB43     		mvns	r3, r3
 2436 006e 2C44     		add	r4, r4, r5
 2437 0070 84F81832 		strb	r3, [r4, #536]
 615:ROSSerial/ros/node_handle.h ****     {
 2438              		.loc 7 615 0
 2439 0074 B6F5007F 		cmp	r6, #512
 2440 0078 14DC     		bgt	.L131
 617:ROSSerial/ros/node_handle.h ****       return l;
 2441              		.loc 7 617 0
 2442 007a 05F50674 		add	r4, r5, #536
 2443              	.LVL297:
 2444              	.LBB297:
 2445              	.LBB298:
 121:ROSSerial/AT32hardware.h **** 		if(ret == HAL_TIMEOUT)
 2446              		.loc 8 121 0
 2447 007e 0A23     		movs	r3, #10
 2448 0080 B2B2     		uxth	r2, r6
 2449 0082 2146     		mov	r1, r4
 2450 0084 3548     		ldr	r0, .L139+4
 2451 0086 FFF7FEFF 		bl	HAL_UART_Transmit
 2452              	.LVL298:
 122:ROSSerial/AT32hardware.h **** 		{
 2453              		.loc 8 122 0
 2454 008a 0328     		cmp	r0, #3
 2455 008c 04D0     		beq	.L138
 2456              	.LVL299:
 2457              	.L132:
 2458              	.LBE298:
 2459              	.LBE297:
 2460              	.LBE294:
 2461              	.LBE293:
 2462              	.LBB317:
 2463              	.LBB318:
 125:ROSSerial/AT32hardware.h **** 		}
 126:ROSSerial/AT32hardware.h **** 		
 127:ROSSerial/AT32hardware.h **** 		// /* Try Interrupt - Has delayed byte problem. */
 128:ROSSerial/AT32hardware.h **** 		// if(HAL_UART_Transmit_IT(&huart2, (uint8_t *)data, length)!= HAL_OK)
 129:ROSSerial/AT32hardware.h ****   		// {
 130:ROSSerial/AT32hardware.h **** 		// 	HAL_Delay(10); 
 131:ROSSerial/AT32hardware.h **** 		// 	printf("delayed bytes %d\n",length); 
 132:ROSSerial/AT32hardware.h **** 		// }
 133:ROSSerial/AT32hardware.h **** 
 134:ROSSerial/AT32hardware.h **** 		// else
ARM GAS  /var/folders/l3/4y5292px21b4835bsnjwqc7w009kq1/T//ccaF8PhA.s 			page 70


 135:ROSSerial/AT32hardware.h **** 		// {
 136:ROSSerial/AT32hardware.h **** 		// 	printf("sent %d bytes over Interrupt\n",length);
 137:ROSSerial/AT32hardware.h **** 		// }
 138:ROSSerial/AT32hardware.h **** 		
 139:ROSSerial/AT32hardware.h **** 	}
 140:ROSSerial/AT32hardware.h **** 
 141:ROSSerial/AT32hardware.h **** 	/*
 142:ROSSerial/AT32hardware.h **** 	 * Method: time
 143:ROSSerial/AT32hardware.h **** 	 * ----------------------------
 144:ROSSerial/AT32hardware.h ****      *   Returns milliseconds since start of program
 145:ROSSerial/AT32hardware.h **** 	 *   parameters: none
 146:ROSSerial/AT32hardware.h **** 	 *   returns: time in milliseconds
 147:ROSSerial/AT32hardware.h **** 	 */
 148:ROSSerial/AT32hardware.h **** 	uint32_t time(void)
 149:ROSSerial/AT32hardware.h **** 	{
 150:ROSSerial/AT32hardware.h **** 		//return (uint32_t) xTaskGetTickCount();
 151:ROSSerial/AT32hardware.h **** 		return HAL_GetTick();
 2464              		.loc 8 151 0
 2465 008e FFF7FEFF 		bl	HAL_GetTick
 2466              	.LVL300:
 2467              	.LBE318:
 2468              	.LBE317:
 415:ROSSerial/ros/node_handle.h ****   }
 2469              		.loc 7 415 0
 2470 0092 A860     		str	r0, [r5, #8]
 416:ROSSerial/ros/node_handle.h **** 
 2471              		.loc 7 416 0
 2472 0094 0AB0     		add	sp, sp, #40
 2473              	.LCFI24:
 2474              		.cfi_remember_state
 2475              		.cfi_def_cfa_offset 16
 2476              		@ sp needed
 2477 0096 70BD     		pop	{r4, r5, r6, pc}
 2478              	.LVL301:
 2479              	.L138:
 2480              	.LCFI25:
 2481              		.cfi_restore_state
 2482              	.LBB319:
 2483              	.LBB316:
 2484              	.LBB300:
 2485              	.LBB299:
 124:ROSSerial/AT32hardware.h **** 		}
 2486              		.loc 8 124 0
 2487 0098 2246     		mov	r2, r4
 2488 009a 3146     		mov	r1, r6
 2489 009c 3048     		ldr	r0, .L139+8
 2490              	.LVL302:
 2491 009e FFF7FEFF 		bl	printf
 2492              	.LVL303:
 2493 00a2 F4E7     		b	.L132
 2494              	.LVL304:
 2495              	.L131:
 2496              	.LBE299:
 2497              	.LBE300:
 2498              	.LBB301:
 2499              	.LBB302:
 2500              	.LBB303:
ARM GAS  /var/folders/l3/4y5292px21b4835bsnjwqc7w009kq1/T//ccaF8PhA.s 			page 71


 2501              	.LBB304:
 2502              	.LBB305:
  13:ROSSerial/rosserial_msgs/Log.h ****   {
 2503              		.loc 3 13 0
 2504 00a4 2F4B     		ldr	r3, .L139+12
 2505 00a6 0193     		str	r3, [sp, #4]
 2506              	.LVL305:
 2507              	.LBE305:
 2508              	.LBE304:
 635:ROSSerial/ros/node_handle.h ****     l.msg = (char*)msg;
 2509              		.loc 7 635 0
 2510 00a8 0322     		movs	r2, #3
 2511 00aa 8DF80820 		strb	r2, [sp, #8]
 636:ROSSerial/ros/node_handle.h ****     publish1(rosserial_msgs::TopicInfo::ID_LOG, &l);
 2512              		.loc 7 636 0
 2513 00ae 2E4A     		ldr	r2, .L139+16
 2514 00b0 0392     		str	r2, [sp, #12]
 2515              	.LVL306:
 2516              	.LBB306:
 2517              	.LBB307:
 597:ROSSerial/ros/node_handle.h **** 
 2518              		.loc 7 597 0
 2519 00b2 1B68     		ldr	r3, [r3]
 2520 00b4 05F21F21 		addw	r1, r5, #543
 2521 00b8 01A8     		add	r0, sp, #4
 2522              	.LVL307:
 2523 00ba 9847     		blx	r3
 2524              	.LVL308:
 600:ROSSerial/ros/node_handle.h ****     message_out[1] = PROTOCOL_VER;
 2525              		.loc 7 600 0
 2526 00bc FF23     		movs	r3, #255
 2527 00be 85F81832 		strb	r3, [r5, #536]
 601:ROSSerial/ros/node_handle.h ****     message_out[2] = (uint8_t)((uint16_t)l & 255);
 2528              		.loc 7 601 0
 2529 00c2 FE23     		movs	r3, #254
 2530 00c4 85F81932 		strb	r3, [r5, #537]
 602:ROSSerial/ros/node_handle.h ****     message_out[3] = (uint8_t)((uint16_t)l >> 8);
 2531              		.loc 7 602 0
 2532 00c8 C3B2     		uxtb	r3, r0
 2533 00ca 85F81A32 		strb	r3, [r5, #538]
 603:ROSSerial/ros/node_handle.h ****     message_out[4] = 255 - ((message_out[2] + message_out[3]) % 256);
 2534              		.loc 7 603 0
 2535 00ce C0F30722 		ubfx	r2, r0, #8, #8
 2536 00d2 85F81B22 		strb	r2, [r5, #539]
 604:ROSSerial/ros/node_handle.h ****     message_out[5] = (uint8_t)((int16_t)id & 255);
 2537              		.loc 7 604 0
 2538 00d6 1344     		add	r3, r3, r2
 2539 00d8 DBB2     		uxtb	r3, r3
 2540 00da DB43     		mvns	r3, r3
 2541 00dc 85F81C32 		strb	r3, [r5, #540]
 605:ROSSerial/ros/node_handle.h ****     message_out[6] = (uint8_t)((int16_t)id >> 8);
 2542              		.loc 7 605 0
 2543 00e0 0723     		movs	r3, #7
 2544 00e2 85F81D32 		strb	r3, [r5, #541]
 606:ROSSerial/ros/node_handle.h **** 
 2545              		.loc 7 606 0
 2546 00e6 0023     		movs	r3, #0
ARM GAS  /var/folders/l3/4y5292px21b4835bsnjwqc7w009kq1/T//ccaF8PhA.s 			page 72


 2547 00e8 85F81E32 		strb	r3, [r5, #542]
 2548              	.LVL309:
 2549              	.LBB308:
 610:ROSSerial/ros/node_handle.h ****       chk += message_out[i];
 2550              		.loc 7 610 0
 2551 00ec 0522     		movs	r2, #5
 2552              	.LVL310:
 2553              	.L134:
 2554 00ee C11D     		adds	r1, r0, #7
 2555 00f0 9142     		cmp	r1, r2
 2556 00f2 05DD     		ble	.L133
 611:ROSSerial/ros/node_handle.h ****     l += 7;
 2557              		.loc 7 611 0
 2558 00f4 A918     		adds	r1, r5, r2
 2559 00f6 91F81812 		ldrb	r1, [r1, #536]	@ zero_extendqisi2
 2560 00fa 0B44     		add	r3, r3, r1
 2561              	.LVL311:
 610:ROSSerial/ros/node_handle.h ****       chk += message_out[i];
 2562              		.loc 7 610 0
 2563 00fc 0132     		adds	r2, r2, #1
 2564              	.LVL312:
 2565 00fe F6E7     		b	.L134
 2566              	.L133:
 2567              	.LVL313:
 2568              	.LBE308:
 613:ROSSerial/ros/node_handle.h ****     //printf("Sending message - %s, length %d\n",msg->getType(), l);
 2569              		.loc 7 613 0
 2570 0100 5A42     		rsbs	r2, r3, #0
 2571              	.LVL314:
 2572 0102 DBB2     		uxtb	r3, r3
 2573              	.LVL315:
 2574 0104 D2B2     		uxtb	r2, r2
 2575 0106 58BF     		it	pl
 2576 0108 5342     		rsbpl	r3, r2, #0
 2577 010a 00F10804 		add	r4, r0, #8
 2578              	.LVL316:
 2579 010e DB43     		mvns	r3, r3
 2580 0110 2944     		add	r1, r1, r5
 2581 0112 81F81832 		strb	r3, [r1, #536]
 615:ROSSerial/ros/node_handle.h ****     {
 2582              		.loc 7 615 0
 2583 0116 B4F5007F 		cmp	r4, #512
 2584 011a 0FDC     		bgt	.L135
 617:ROSSerial/ros/node_handle.h ****       return l;
 2585              		.loc 7 617 0
 2586 011c 05F50676 		add	r6, r5, #536
 2587              	.LVL317:
 2588              	.LBB309:
 2589              	.LBB310:
 121:ROSSerial/AT32hardware.h **** 		if(ret == HAL_TIMEOUT)
 2590              		.loc 8 121 0
 2591 0120 0A23     		movs	r3, #10
 2592 0122 A2B2     		uxth	r2, r4
 2593 0124 3146     		mov	r1, r6
 2594 0126 0D48     		ldr	r0, .L139+4
 2595 0128 FFF7FEFF 		bl	HAL_UART_Transmit
 2596              	.LVL318:
ARM GAS  /var/folders/l3/4y5292px21b4835bsnjwqc7w009kq1/T//ccaF8PhA.s 			page 73


 122:ROSSerial/AT32hardware.h **** 		{
 2597              		.loc 8 122 0
 2598 012c 0328     		cmp	r0, #3
 2599 012e AED1     		bne	.L132
 124:ROSSerial/AT32hardware.h **** 		}
 2600              		.loc 8 124 0
 2601 0130 3246     		mov	r2, r6
 2602 0132 2146     		mov	r1, r4
 2603 0134 0A48     		ldr	r0, .L139+8
 2604              	.LVL319:
 2605 0136 FFF7FEFF 		bl	printf
 2606              	.LVL320:
 2607 013a A8E7     		b	.L132
 2608              	.LVL321:
 2609              	.L135:
 2610              	.LBE310:
 2611              	.LBE309:
 2612              	.LBB311:
 2613              	.LBB312:
 2614              	.LBB313:
 2615              	.LBB314:
 2616              	.LBB315:
  13:ROSSerial/rosserial_msgs/Log.h ****   {
 2617              		.loc 3 13 0
 2618 013c 094B     		ldr	r3, .L139+12
 2619 013e 0493     		str	r3, [sp, #16]
 2620              	.LVL322:
 2621              	.LBE315:
 2622              	.LBE314:
 635:ROSSerial/ros/node_handle.h ****     l.msg = (char*)msg;
 2623              		.loc 7 635 0
 2624 0140 0323     		movs	r3, #3
 2625 0142 8DF81430 		strb	r3, [sp, #20]
 636:ROSSerial/ros/node_handle.h ****     publish1(rosserial_msgs::TopicInfo::ID_LOG, &l);
 2626              		.loc 7 636 0
 2627 0146 084B     		ldr	r3, .L139+16
 2628 0148 0693     		str	r3, [sp, #24]
 2629              		.loc 7 637 0
 2630 014a 04AA     		add	r2, sp, #16
 2631 014c 0721     		movs	r1, #7
 2632 014e 2846     		mov	r0, r5
 2633 0150 FFF7FEFF 		bl	_ZN3ros11NodeHandle_I13STM32HardwareLi5ELi5ELi512ELi512EE8publish1EiPNS_3MsgE
 2634              	.LVL323:
 2635 0154 9BE7     		b	.L132
 2636              	.L140:
 2637 0156 00BF     		.align	2
 2638              	.L139:
 2639 0158 08000000 		.word	_ZTVN8std_msgs4TimeE+8
 2640 015c 00000000 		.word	huart2
 2641 0160 00000000 		.word	.LC11
 2642 0164 08000000 		.word	_ZTVN14rosserial_msgs3LogE+8
 2643 0168 14000000 		.word	.LC12
 2644              	.LBE313:
 2645              	.LBE312:
 2646              	.LBE311:
 2647              	.LBE307:
 2648              	.LBE306:
ARM GAS  /var/folders/l3/4y5292px21b4835bsnjwqc7w009kq1/T//ccaF8PhA.s 			page 74


 2649              	.LBE303:
 2650              	.LBE302:
 2651              	.LBE301:
 2652              	.LBE316:
 2653              	.LBE319:
 2654              		.cfi_endproc
 2655              	.LFE495:
 2656              		.fnend
 2658              		.section	.text.ros_run,"ax",%progbits
 2659              		.align	1
 2660              		.global	ros_run
 2661              		.syntax unified
 2662              		.thumb
 2663              		.thumb_func
 2664              		.fpu fpv4-sp-d16
 2666              	ros_run:
 2667              		.fnstart
 2668              	.LFB481:
  35:./Src/ROS_main.cpp **** {
 2669              		.loc 6 35 0
 2670              		.cfi_startproc
 2671              		@ args = 0, pretend = 0, frame = 560
 2672              		@ frame_needed = 0, uses_anonymous_args = 0
 2673 0000 2DE9F041 		push	{r4, r5, r6, r7, r8, lr}
 2674              		.save {r4, r5, r6, r7, r8, lr}
 2675              	.LCFI26:
 2676              		.cfi_def_cfa_offset 24
 2677              		.cfi_offset 4, -24
 2678              		.cfi_offset 5, -20
 2679              		.cfi_offset 6, -16
 2680              		.cfi_offset 7, -12
 2681              		.cfi_offset 8, -8
 2682              		.cfi_offset 14, -4
 2683              		.pad #560
 2684 0004 ADF50C7D 		sub	sp, sp, #560
 2685              	.LCFI27:
 2686              		.cfi_def_cfa_offset 584
 2687              	.LVL324:
 2688              	.LBB430:
 2689              	.LBB431:
 2690              	.LBB432:
 2691              	.LBB433:
 2692              		.loc 8 151 0
 2693 0008 FFF7FEFF 		bl	HAL_GetTick
 2694              	.LVL325:
 2695 000c 0446     		mov	r4, r0
 2696              	.LVL326:
 2697              	.LBE433:
 2698              	.LBE432:
 252:ROSSerial/ros/node_handle.h ****     {
 2699              		.loc 7 252 0
 2700 000e BC4B     		ldr	r3, .L224
 2701 0010 D3F82435 		ldr	r3, [r3, #1316]
 2702 0014 C31A     		subs	r3, r0, r3
 2703 0016 42F6F822 		movw	r2, #11000
 2704 001a 9342     		cmp	r3, r2
 2705 001c 03D9     		bls	.L142
ARM GAS  /var/folders/l3/4y5292px21b4835bsnjwqc7w009kq1/T//ccaF8PhA.s 			page 75


 254:ROSSerial/ros/node_handle.h ****     }
 2706              		.loc 7 254 0
 2707 001e B84B     		ldr	r3, .L224
 2708 0020 0022     		movs	r2, #0
 2709 0022 83F81C25 		strb	r2, [r3, #1308]
 2710              	.L142:
 258:ROSSerial/ros/node_handle.h ****     {
 2711              		.loc 7 258 0
 2712 0026 B64B     		ldr	r3, .L224
 2713 0028 D3F80835 		ldr	r3, [r3, #1288]
 2714 002c 002B     		cmp	r3, #0
 2715 002e 4BD0     		beq	.L144
 260:ROSSerial/ros/node_handle.h ****       {
 2716              		.loc 7 260 0
 2717 0030 B34B     		ldr	r3, .L224
 2718 0032 D3F82835 		ldr	r3, [r3, #1320]
 2719 0036 9C42     		cmp	r4, r3
 2720 0038 46D9     		bls	.L144
 262:ROSSerial/ros/node_handle.h ****       }
 2721              		.loc 7 262 0
 2722 003a B14B     		ldr	r3, .L224
 2723 003c 0022     		movs	r2, #0
 2724 003e C3F80825 		str	r2, [r3, #1288]
 2725 0042 41E0     		b	.L144
 2726              	.LVL327:
 2727              	.L202:
 2728              	.LBB434:
 2729              	.LBB435:
 2730              	.LBB436:
  84:ROSSerial/AT32hardware.h **** 		}
 2731              		.loc 8 84 0
 2732 0044 591C     		adds	r1, r3, #1
 2733 0046 AF4A     		ldr	r2, .L224+4
 2734 0048 1170     		strb	r1, [r2]
 2735 004a AF4A     		ldr	r2, .L224+8
 2736 004c D15C     		ldrb	r1, [r2, r3]	@ zero_extendqisi2
 2737              	.LVL328:
 2738              	.L148:
 2739              	.LBE436:
 2740              	.LBE435:
 283:ROSSerial/ros/node_handle.h ****         break;
 2741              		.loc 7 283 0
 2742 004e 0029     		cmp	r1, #0
 2743 0050 C0F2BC82 		blt	.L149
 285:ROSSerial/ros/node_handle.h ****       if (mode_ == MODE_MESSAGE)          /* message data being recieved */
 2744              		.loc 7 285 0
 2745 0054 AA4B     		ldr	r3, .L224
 2746 0056 D3F81825 		ldr	r2, [r3, #1304]
 2747 005a 0A44     		add	r2, r2, r1
 2748 005c C3F81825 		str	r2, [r3, #1304]
 286:ROSSerial/ros/node_handle.h ****       {
 2749              		.loc 7 286 0
 2750 0060 D3F80835 		ldr	r3, [r3, #1288]
 2751 0064 072B     		cmp	r3, #7
 2752 0066 1ED0     		beq	.L201
 293:ROSSerial/ros/node_handle.h ****       {
 2753              		.loc 7 293 0
ARM GAS  /var/folders/l3/4y5292px21b4835bsnjwqc7w009kq1/T//ccaF8PhA.s 			page 76


 2754 0068 002B     		cmp	r3, #0
 2755 006a 4FD1     		bne	.L152
 295:ROSSerial/ros/node_handle.h ****         {
 2756              		.loc 7 295 0
 2757 006c FF29     		cmp	r1, #255
 2758 006e 41D1     		bne	.L153
 297:ROSSerial/ros/node_handle.h ****           last_msg_timeout_time = c_time + SERIAL_MSG_TIMEOUT;
 2759              		.loc 7 297 0
 2760 0070 A34A     		ldr	r2, .L224
 2761 0072 0133     		adds	r3, r3, #1
 2762 0074 C2F80835 		str	r3, [r2, #1288]
 298:ROSSerial/ros/node_handle.h ****         }
 2763              		.loc 7 298 0
 2764 0078 04F11403 		add	r3, r4, #20
 2765 007c C2F82835 		str	r3, [r2, #1320]
 2766 0080 22E0     		b	.L144
 2767              	.LVL329:
 2768              	.L203:
 2769              	.LBB439:
 2770              	.LBB437:
  88:ROSSerial/AT32hardware.h **** 			g_RxWritten = 0;
 2771              		.loc 8 88 0
 2772 0082 0023     		movs	r3, #0
 2773 0084 9F4A     		ldr	r2, .L224+4
 2774 0086 1370     		strb	r3, [r2]
  89:ROSSerial/AT32hardware.h **** 			__HAL_UART_ENABLE_IT(&huart2, UART_IT_TC);
 2775              		.loc 8 89 0
 2776 0088 A04A     		ldr	r2, .L224+12
 2777 008a 1370     		strb	r3, [r2]
  90:ROSSerial/AT32hardware.h ****       		HAL_UART_Receive_IT(&huart2, &byte, 1);
 2778              		.loc 8 90 0
 2779 008c A048     		ldr	r0, .L224+16
 2780 008e 0268     		ldr	r2, [r0]
 2781 0090 D368     		ldr	r3, [r2, #12]
 2782 0092 43F04003 		orr	r3, r3, #64
 2783 0096 D360     		str	r3, [r2, #12]
  91:ROSSerial/AT32hardware.h **** 		}
 2784              		.loc 8 91 0
 2785 0098 0122     		movs	r2, #1
 2786 009a 9E49     		ldr	r1, .L224+20
 2787 009c FFF7FEFF 		bl	HAL_UART_Receive_IT
 2788              	.LVL330:
  80:ROSSerial/AT32hardware.h **** 		
 2789              		.loc 8 80 0
 2790 00a0 4FF0FF31 		mov	r1, #-1
 2791 00a4 D3E7     		b	.L148
 2792              	.LVL331:
 2793              	.L201:
 2794              	.LBE437:
 2795              	.LBE439:
 288:ROSSerial/ros/node_handle.h ****         bytes_--;
 2796              		.loc 7 288 0
 2797 00a6 964B     		ldr	r3, .L224
 2798 00a8 D3F81425 		ldr	r2, [r3, #1300]
 2799 00ac 501C     		adds	r0, r2, #1
 2800 00ae C3F81405 		str	r0, [r3, #1300]
 2801 00b2 1A44     		add	r2, r2, r3
ARM GAS  /var/folders/l3/4y5292px21b4835bsnjwqc7w009kq1/T//ccaF8PhA.s 			page 77


 2802 00b4 1176     		strb	r1, [r2, #24]
 289:ROSSerial/ros/node_handle.h ****         if (bytes_ == 0)                 /* is message complete? if so, checksum */
 2803              		.loc 7 289 0
 2804 00b6 D3F80C25 		ldr	r2, [r3, #1292]
 2805 00ba 013A     		subs	r2, r2, #1
 2806 00bc C3F80C25 		str	r2, [r3, #1292]
 290:ROSSerial/ros/node_handle.h ****           mode_ = MODE_MSG_CHECKSUM;
 2807              		.loc 7 290 0
 2808 00c0 12B9     		cbnz	r2, .L144
 291:ROSSerial/ros/node_handle.h ****       }
 2809              		.loc 7 291 0
 2810 00c2 0822     		movs	r2, #8
 2811 00c4 C3F80825 		str	r2, [r3, #1288]
 2812              	.L144:
 270:ROSSerial/ros/node_handle.h ****       {
 2813              		.loc 7 270 0
 2814 00c8 8D4B     		ldr	r3, .L224
 2815 00ca 5B69     		ldr	r3, [r3, #20]
 2816 00cc 3BB1     		cbz	r3, .L145
 2817              	.LVL332:
 2818              	.LBB440:
 2819              	.LBB441:
 2820              		.loc 8 151 0
 2821 00ce FFF7FEFF 		bl	HAL_GetTick
 2822              	.LVL333:
 2823              	.LBE441:
 2824              	.LBE440:
 276:ROSSerial/ros/node_handle.h ****         {
 2825              		.loc 7 276 0
 2826 00d2 001B     		subs	r0, r0, r4
 2827 00d4 8A4B     		ldr	r3, .L224
 2828 00d6 5B69     		ldr	r3, [r3, #20]
 2829 00d8 9842     		cmp	r0, r3
 2830 00da 00F28382 		bhi	.L146
 2831              	.L145:
 2832              	.LVL334:
 2833              	.LBB442:
 2834              	.LBB438:
  82:ROSSerial/AT32hardware.h **** 		{
 2835              		.loc 8 82 0
 2836 00de 894B     		ldr	r3, .L224+4
 2837 00e0 1B78     		ldrb	r3, [r3]	@ zero_extendqisi2
 2838 00e2 8A4A     		ldr	r2, .L224+12
 2839 00e4 1278     		ldrb	r2, [r2]	@ zero_extendqisi2
 2840 00e6 9342     		cmp	r3, r2
 2841 00e8 ACD3     		bcc	.L202
  86:ROSSerial/AT32hardware.h **** 		{
 2842              		.loc 8 86 0
 2843 00ea 9342     		cmp	r3, r2
 2844 00ec C9D0     		beq	.L203
  80:ROSSerial/AT32hardware.h **** 		
 2845              		.loc 8 80 0
 2846 00ee 4FF0FF31 		mov	r1, #-1
 2847 00f2 ACE7     		b	.L148
 2848              	.LVL335:
 2849              	.L153:
 2850              	.LBE438:
ARM GAS  /var/folders/l3/4y5292px21b4835bsnjwqc7w009kq1/T//ccaF8PhA.s 			page 78


 2851              	.LBE442:
 2852              	.LBB443:
 2853              	.LBB444:
 2854              		.loc 8 151 0
 2855 00f4 FFF7FEFF 		bl	HAL_GetTick
 2856              	.LVL336:
 2857              	.LBE444:
 2858              	.LBE443:
 300:ROSSerial/ros/node_handle.h ****         {
 2859              		.loc 7 300 0
 2860 00f8 001B     		subs	r0, r0, r4
 2861 00fa 41F28833 		movw	r3, #5000
 2862 00fe 9842     		cmp	r0, r3
 2863 0100 E2D9     		bls	.L144
 303:ROSSerial/ros/node_handle.h ****           return SPIN_TIMEOUT;
 2864              		.loc 7 303 0
 2865 0102 7F4B     		ldr	r3, .L224
 2866 0104 0022     		movs	r2, #0
 2867 0106 83F81C25 		strb	r2, [r3, #1308]
 2868 010a 6BE2     		b	.L146
 2869              	.L152:
 307:ROSSerial/ros/node_handle.h ****       {
 2870              		.loc 7 307 0
 2871 010c 012B     		cmp	r3, #1
 2872 010e 3ED0     		beq	.L204
 320:ROSSerial/ros/node_handle.h ****       {
 2873              		.loc 7 320 0
 2874 0110 022B     		cmp	r3, #2
 2875 0112 00F0A880 		beq	.L205
 327:ROSSerial/ros/node_handle.h ****       {
 2876              		.loc 7 327 0
 2877 0116 032B     		cmp	r3, #3
 2878 0118 00F0B180 		beq	.L206
 332:ROSSerial/ros/node_handle.h ****       {
 2879              		.loc 7 332 0
 2880 011c 042B     		cmp	r3, #4
 2881 011e 00F0B980 		beq	.L207
 339:ROSSerial/ros/node_handle.h ****       {
 2882              		.loc 7 339 0
 2883 0122 052B     		cmp	r3, #5
 2884 0124 00F0C780 		beq	.L208
 345:ROSSerial/ros/node_handle.h ****       {
 2885              		.loc 7 345 0
 2886 0128 062B     		cmp	r3, #6
 2887 012a 00F0CD80 		beq	.L209
 352:ROSSerial/ros/node_handle.h ****       {
 2888              		.loc 7 352 0
 2889 012e 082B     		cmp	r3, #8
 2890 0130 CAD1     		bne	.L144
 354:ROSSerial/ros/node_handle.h ****         if ((checksum_ % 256) == 255)
 2891              		.loc 7 354 0
 2892 0132 734B     		ldr	r3, .L224
 2893 0134 0021     		movs	r1, #0
 2894 0136 C3F80815 		str	r1, [r3, #1288]
 355:ROSSerial/ros/node_handle.h ****         {
 2895              		.loc 7 355 0
 2896 013a 8B1A     		subs	r3, r1, r2
ARM GAS  /var/folders/l3/4y5292px21b4835bsnjwqc7w009kq1/T//ccaF8PhA.s 			page 79


 2897 013c D2B2     		uxtb	r2, r2
 2898 013e DBB2     		uxtb	r3, r3
 2899 0140 58BF     		it	pl
 2900 0142 5A42     		rsbpl	r2, r3, #0
 2901 0144 FF2A     		cmp	r2, #255
 2902 0146 BFD1     		bne	.L144
 357:ROSSerial/ros/node_handle.h ****           {
 2903              		.loc 7 357 0
 2904 0148 6D4B     		ldr	r3, .L224
 2905 014a D3F81055 		ldr	r5, [r3, #1296]
 2906 014e 002D     		cmp	r5, #0
 2907 0150 00F0CE80 		beq	.L210
 365:ROSSerial/ros/node_handle.h ****           {
 2908              		.loc 7 365 0
 2909 0154 0A2D     		cmp	r5, #10
 2910 0156 00F03A81 		beq	.L211
 369:ROSSerial/ros/node_handle.h ****           {
 2911              		.loc 7 369 0
 2912 015a 062D     		cmp	r5, #6
 2913 015c 00F07A81 		beq	.L212
 374:ROSSerial/ros/node_handle.h ****           {
 2914              		.loc 7 374 0
 2915 0160 0B2D     		cmp	r5, #11
 2916 0162 00F02382 		beq	.L213
 380:ROSSerial/ros/node_handle.h ****               s_CallBack = (void (*)(char*))subscribers2[topic_ - 100].callback;
 2917              		.loc 7 380 0
 2918 0166 643D     		subs	r5, r5, #100
 2919 0168 05EB8502 		add	r2, r5, r5, lsl #2
 2920 016c 644B     		ldr	r3, .L224
 2921 016e 03EB8203 		add	r3, r3, r2, lsl #2
 2922 0172 B3F8A434 		ldrh	r3, [r3, #1188]
 2923 0176 002B     		cmp	r3, #0
 2924 0178 A6D0     		beq	.L144
 381:ROSSerial/ros/node_handle.h ****               //printf("Calling callback with %id\n",subscribers2[topic_ - 100].topic_id);
 2925              		.loc 7 381 0
 2926 017a 6148     		ldr	r0, .L224
 2927 017c 00EB8205 		add	r5, r0, r2, lsl #2
 2928 0180 D5F8B434 		ldr	r3, [r5, #1204]
 2929 0184 644A     		ldr	r2, .L224+24
 2930 0186 1360     		str	r3, [r2]
 383:ROSSerial/ros/node_handle.h ****             }
 2931              		.loc 7 383 0
 2932 0188 1830     		adds	r0, r0, #24
 2933 018a 9847     		blx	r3
 2934              	.LVL337:
 2935 018c 9CE7     		b	.L144
 2936              	.L204:
 309:ROSSerial/ros/node_handle.h ****         {
 2937              		.loc 7 309 0
 2938 018e FE29     		cmp	r1, #254
 2939 0190 35D0     		beq	.L214
 315:ROSSerial/ros/node_handle.h ****           if (configured_ == false)
 2940              		.loc 7 315 0
 2941 0192 5B4B     		ldr	r3, .L224
 2942 0194 0022     		movs	r2, #0
 2943 0196 C3F80825 		str	r2, [r3, #1288]
 316:ROSSerial/ros/node_handle.h ****             requestSyncTime();  /* send a msg back showing our protocol version */
ARM GAS  /var/folders/l3/4y5292px21b4835bsnjwqc7w009kq1/T//ccaF8PhA.s 			page 80


 2944              		.loc 7 316 0
 2945 019a 93F81C35 		ldrb	r3, [r3, #1308]	@ zero_extendqisi2
 2946 019e 002B     		cmp	r3, #0
 2947 01a0 92D1     		bne	.L144
 2948              	.LVL338:
 2949              	.LBB445:
 2950              	.LBB446:
 2951              	.LBB447:
 2952              	.LBB448:
  14:ROSSerial/std_msgs/Time.h ****   {
 2953              		.loc 1 14 0
 2954 01a2 5E4B     		ldr	r3, .L224+28
 2955 01a4 0193     		str	r3, [sp, #4]
 2956              	.LVL339:
 2957              	.LBB449:
 2958              	.LBB450:
 2959              	.LBB451:
 2960              		.loc 9 51 0
 2961 01a6 1546     		mov	r5, r2
 2962 01a8 0292     		str	r2, [sp, #8]
 2963 01aa 0392     		str	r2, [sp, #12]
 2964              	.LVL340:
 2965              	.LBE451:
 2966              	.LBE450:
 2967              	.LBE449:
 2968              	.LBE448:
 2969              	.LBE447:
 2970              	.LBB452:
 2971              	.LBB453:
 597:ROSSerial/ros/node_handle.h **** 
 2972              		.loc 7 597 0
 2973 01ac 544E     		ldr	r6, .L224
 2974 01ae 1B68     		ldr	r3, [r3]
 2975 01b0 06F21F21 		addw	r1, r6, #543
 2976 01b4 01A8     		add	r0, sp, #4
 2977              	.LVL341:
 2978 01b6 9847     		blx	r3
 2979              	.LVL342:
 600:ROSSerial/ros/node_handle.h ****     message_out[1] = PROTOCOL_VER;
 2980              		.loc 7 600 0
 2981 01b8 FF23     		movs	r3, #255
 2982 01ba 86F81832 		strb	r3, [r6, #536]
 601:ROSSerial/ros/node_handle.h ****     message_out[2] = (uint8_t)((uint16_t)l & 255);
 2983              		.loc 7 601 0
 2984 01be FE23     		movs	r3, #254
 2985 01c0 86F81932 		strb	r3, [r6, #537]
 602:ROSSerial/ros/node_handle.h ****     message_out[3] = (uint8_t)((uint16_t)l >> 8);
 2986              		.loc 7 602 0
 2987 01c4 C3B2     		uxtb	r3, r0
 2988 01c6 86F81A32 		strb	r3, [r6, #538]
 603:ROSSerial/ros/node_handle.h ****     message_out[4] = 255 - ((message_out[2] + message_out[3]) % 256);
 2989              		.loc 7 603 0
 2990 01ca C0F30722 		ubfx	r2, r0, #8, #8
 2991 01ce 86F81B22 		strb	r2, [r6, #539]
 604:ROSSerial/ros/node_handle.h ****     message_out[5] = (uint8_t)((int16_t)id & 255);
 2992              		.loc 7 604 0
 2993 01d2 1344     		add	r3, r3, r2
ARM GAS  /var/folders/l3/4y5292px21b4835bsnjwqc7w009kq1/T//ccaF8PhA.s 			page 81


 2994 01d4 DBB2     		uxtb	r3, r3
 2995 01d6 DB43     		mvns	r3, r3
 2996 01d8 86F81C32 		strb	r3, [r6, #540]
 605:ROSSerial/ros/node_handle.h ****     message_out[6] = (uint8_t)((int16_t)id >> 8);
 2997              		.loc 7 605 0
 2998 01dc 0A23     		movs	r3, #10
 2999 01de 86F81D32 		strb	r3, [r6, #541]
 606:ROSSerial/ros/node_handle.h **** 
 3000              		.loc 7 606 0
 3001 01e2 86F81E52 		strb	r5, [r6, #542]
 3002              	.LVL343:
 3003              	.LBB454:
 610:ROSSerial/ros/node_handle.h ****       chk += message_out[i];
 3004              		.loc 7 610 0
 3005 01e6 0522     		movs	r2, #5
 3006              	.LBE454:
 609:ROSSerial/ros/node_handle.h ****     for (int i = 5; i < l + 7; i++)
 3007              		.loc 7 609 0
 3008 01e8 2B46     		mov	r3, r5
 3009              	.LVL344:
 3010              	.L157:
 3011              	.LBB455:
 610:ROSSerial/ros/node_handle.h ****       chk += message_out[i];
 3012              		.loc 7 610 0
 3013 01ea C11D     		adds	r1, r0, #7
 3014 01ec 9142     		cmp	r1, r2
 3015 01ee 0BDD     		ble	.L156
 611:ROSSerial/ros/node_handle.h ****     l += 7;
 3016              		.loc 7 611 0
 3017 01f0 4349     		ldr	r1, .L224
 3018 01f2 1144     		add	r1, r1, r2
 3019 01f4 91F81812 		ldrb	r1, [r1, #536]	@ zero_extendqisi2
 3020 01f8 0B44     		add	r3, r3, r1
 3021              	.LVL345:
 610:ROSSerial/ros/node_handle.h ****       chk += message_out[i];
 3022              		.loc 7 610 0
 3023 01fa 0132     		adds	r2, r2, #1
 3024              	.LVL346:
 3025 01fc F5E7     		b	.L157
 3026              	.LVL347:
 3027              	.L214:
 3028              	.LBE455:
 3029              	.LBE453:
 3030              	.LBE452:
 3031              	.LBE446:
 3032              	.LBE445:
 311:ROSSerial/ros/node_handle.h ****         }
 3033              		.loc 7 311 0
 3034 01fe 0133     		adds	r3, r3, #1
 3035 0200 3F4A     		ldr	r2, .L224
 3036 0202 C2F80835 		str	r3, [r2, #1288]
 3037 0206 5FE7     		b	.L144
 3038              	.LVL348:
 3039              	.L156:
 3040              	.LBB472:
 3041              	.LBB471:
 3042              	.LBB467:
ARM GAS  /var/folders/l3/4y5292px21b4835bsnjwqc7w009kq1/T//ccaF8PhA.s 			page 82


 3043              	.LBB465:
 613:ROSSerial/ros/node_handle.h ****     //printf("Sending message - %s, length %d\n",msg->getType(), l);
 3044              		.loc 7 613 0
 3045 0208 5A42     		rsbs	r2, r3, #0
 3046              	.LVL349:
 3047 020a DBB2     		uxtb	r3, r3
 3048              	.LVL350:
 3049 020c D2B2     		uxtb	r2, r2
 3050 020e 58BF     		it	pl
 3051 0210 5342     		rsbpl	r3, r2, #0
 3052 0212 00F10805 		add	r5, r0, #8
 3053              	.LVL351:
 3054 0216 DB43     		mvns	r3, r3
 3055 0218 394A     		ldr	r2, .L224
 3056 021a 1144     		add	r1, r1, r2
 3057 021c 81F81832 		strb	r3, [r1, #536]
 615:ROSSerial/ros/node_handle.h ****     {
 3058              		.loc 7 615 0
 3059 0220 B5F5007F 		cmp	r5, #512
 3060 0224 12DC     		bgt	.L158
 3061              	.LVL352:
 3062              	.LBB456:
 3063              	.LBB457:
 121:ROSSerial/AT32hardware.h **** 		if(ret == HAL_TIMEOUT)
 3064              		.loc 8 121 0
 3065 0226 0A23     		movs	r3, #10
 3066 0228 AAB2     		uxth	r2, r5
 3067 022a 3D49     		ldr	r1, .L224+32
 3068 022c 3848     		ldr	r0, .L224+16
 3069 022e FFF7FEFF 		bl	HAL_UART_Transmit
 3070              	.LVL353:
 122:ROSSerial/AT32hardware.h **** 		{
 3071              		.loc 8 122 0
 3072 0232 0328     		cmp	r0, #3
 3073 0234 04D0     		beq	.L215
 3074              	.LVL354:
 3075              	.L159:
 3076              	.LBE457:
 3077              	.LBE456:
 3078              	.LBE465:
 3079              	.LBE467:
 3080              	.LBB468:
 3081              	.LBB469:
 3082              		.loc 8 151 0
 3083 0236 FFF7FEFF 		bl	HAL_GetTick
 3084              	.LVL355:
 3085              	.LBE469:
 3086              	.LBE468:
 415:ROSSerial/ros/node_handle.h ****   }
 3087              		.loc 7 415 0
 3088 023a 314B     		ldr	r3, .L224
 3089 023c 9860     		str	r0, [r3, #8]
 3090 023e 43E7     		b	.L144
 3091              	.LVL356:
 3092              	.L215:
 3093              	.LBB470:
 3094              	.LBB466:
ARM GAS  /var/folders/l3/4y5292px21b4835bsnjwqc7w009kq1/T//ccaF8PhA.s 			page 83


 3095              	.LBB459:
 3096              	.LBB458:
 124:ROSSerial/AT32hardware.h **** 		}
 3097              		.loc 8 124 0
 3098 0240 374A     		ldr	r2, .L224+32
 3099 0242 2946     		mov	r1, r5
 3100 0244 3748     		ldr	r0, .L224+36
 3101              	.LVL357:
 3102 0246 FFF7FEFF 		bl	printf
 3103              	.LVL358:
 3104 024a F4E7     		b	.L159
 3105              	.LVL359:
 3106              	.L158:
 3107              	.LBE458:
 3108              	.LBE459:
 3109              	.LBB460:
 3110              	.LBB461:
 3111              	.LBB462:
 3112              	.LBB463:
 3113              	.LBB464:
  13:ROSSerial/rosserial_msgs/Log.h ****   {
 3114              		.loc 3 13 0
 3115 024c 364B     		ldr	r3, .L224+40
 3116 024e 0493     		str	r3, [sp, #16]
 3117              	.LVL360:
 3118              	.LBE464:
 3119              	.LBE463:
 635:ROSSerial/ros/node_handle.h ****     l.msg = (char*)msg;
 3120              		.loc 7 635 0
 3121 0250 0323     		movs	r3, #3
 3122 0252 8DF81430 		strb	r3, [sp, #20]
 636:ROSSerial/ros/node_handle.h ****     publish1(rosserial_msgs::TopicInfo::ID_LOG, &l);
 3123              		.loc 7 636 0
 3124 0256 354B     		ldr	r3, .L224+44
 3125 0258 0693     		str	r3, [sp, #24]
 3126              		.loc 7 637 0
 3127 025a 04AA     		add	r2, sp, #16
 3128 025c 0721     		movs	r1, #7
 3129 025e 2848     		ldr	r0, .L224
 3130 0260 FFF7FEFF 		bl	_ZN3ros11NodeHandle_I13STM32HardwareLi5ELi5ELi512ELi512EE8publish1EiPNS_3MsgE
 3131              	.LVL361:
 3132 0264 E7E7     		b	.L159
 3133              	.LVL362:
 3134              	.L205:
 3135              	.LBE462:
 3136              	.LBE461:
 3137              	.LBE460:
 3138              	.LBE466:
 3139              	.LBE470:
 3140              	.LBE471:
 3141              	.LBE472:
 322:ROSSerial/ros/node_handle.h ****         index_ = 0;
 3142              		.loc 7 322 0
 3143 0266 264A     		ldr	r2, .L224
 3144 0268 C2F80C15 		str	r1, [r2, #1292]
 323:ROSSerial/ros/node_handle.h ****         mode_++;
 3145              		.loc 7 323 0
ARM GAS  /var/folders/l3/4y5292px21b4835bsnjwqc7w009kq1/T//ccaF8PhA.s 			page 84


 3146 026c 0020     		movs	r0, #0
 3147 026e C2F81405 		str	r0, [r2, #1300]
 324:ROSSerial/ros/node_handle.h ****         checksum_ = data;               /* first byte for calculating size checksum */
 3148              		.loc 7 324 0
 3149 0272 0133     		adds	r3, r3, #1
 3150 0274 C2F80835 		str	r3, [r2, #1288]
 325:ROSSerial/ros/node_handle.h ****       }
 3151              		.loc 7 325 0
 3152 0278 C2F81815 		str	r1, [r2, #1304]
 3153 027c 24E7     		b	.L144
 3154              	.L206:
 329:ROSSerial/ros/node_handle.h ****         mode_++;
 3155              		.loc 7 329 0
 3156 027e 204A     		ldr	r2, .L224
 3157 0280 D2F80C05 		ldr	r0, [r2, #1292]
 3158 0284 00EB0121 		add	r1, r0, r1, lsl #8
 3159 0288 C2F80C15 		str	r1, [r2, #1292]
 330:ROSSerial/ros/node_handle.h ****       }
 3160              		.loc 7 330 0
 3161 028c 0133     		adds	r3, r3, #1
 3162 028e C2F80835 		str	r3, [r2, #1288]
 3163 0292 19E7     		b	.L144
 3164              	.L207:
 334:ROSSerial/ros/node_handle.h ****           mode_++;
 3165              		.loc 7 334 0
 3166 0294 5142     		rsbs	r1, r2, #0
 3167 0296 D2B2     		uxtb	r2, r2
 3168 0298 C9B2     		uxtb	r1, r1
 3169 029a 58BF     		it	pl
 3170 029c 4A42     		rsbpl	r2, r1, #0
 3171 029e FF2A     		cmp	r2, #255
 3172 02a0 04D0     		beq	.L216
 337:ROSSerial/ros/node_handle.h ****       }
 3173              		.loc 7 337 0
 3174 02a2 174B     		ldr	r3, .L224
 3175 02a4 0022     		movs	r2, #0
 3176 02a6 C3F80825 		str	r2, [r3, #1288]
 3177 02aa 0DE7     		b	.L144
 3178              	.L216:
 335:ROSSerial/ros/node_handle.h ****         else
 3179              		.loc 7 335 0
 3180 02ac 0133     		adds	r3, r3, #1
 3181 02ae 144A     		ldr	r2, .L224
 3182 02b0 C2F80835 		str	r3, [r2, #1288]
 3183 02b4 08E7     		b	.L144
 3184              	.L208:
 341:ROSSerial/ros/node_handle.h ****         mode_++;
 3185              		.loc 7 341 0
 3186 02b6 124A     		ldr	r2, .L224
 3187 02b8 C2F81015 		str	r1, [r2, #1296]
 342:ROSSerial/ros/node_handle.h ****         checksum_ = data;               /* first byte included in checksum */
 3188              		.loc 7 342 0
 3189 02bc 0133     		adds	r3, r3, #1
 3190 02be C2F80835 		str	r3, [r2, #1288]
 343:ROSSerial/ros/node_handle.h ****       }
 3191              		.loc 7 343 0
 3192 02c2 C2F81815 		str	r1, [r2, #1304]
ARM GAS  /var/folders/l3/4y5292px21b4835bsnjwqc7w009kq1/T//ccaF8PhA.s 			page 85


 3193 02c6 FFE6     		b	.L144
 3194              	.L209:
 347:ROSSerial/ros/node_handle.h ****         mode_ = MODE_MESSAGE;
 3195              		.loc 7 347 0
 3196 02c8 0D4B     		ldr	r3, .L224
 3197 02ca D3F81025 		ldr	r2, [r3, #1296]
 3198 02ce 02EB0122 		add	r2, r2, r1, lsl #8
 3199 02d2 C3F81025 		str	r2, [r3, #1296]
 348:ROSSerial/ros/node_handle.h ****         if (bytes_ == 0)
 3200              		.loc 7 348 0
 3201 02d6 0722     		movs	r2, #7
 3202 02d8 C3F80825 		str	r2, [r3, #1288]
 349:ROSSerial/ros/node_handle.h ****           mode_ = MODE_MSG_CHECKSUM;
 3203              		.loc 7 349 0
 3204 02dc D3F80C35 		ldr	r3, [r3, #1292]
 3205 02e0 002B     		cmp	r3, #0
 3206 02e2 7FF4F1AE 		bne	.L144
 350:ROSSerial/ros/node_handle.h ****       }
 3207              		.loc 7 350 0
 3208 02e6 064B     		ldr	r3, .L224
 3209 02e8 0822     		movs	r2, #8
 3210 02ea C3F80825 		str	r2, [r3, #1288]
 3211 02ee EBE6     		b	.L144
 3212              	.L210:
 359:ROSSerial/ros/node_handle.h ****             negotiateTopics();
 3213              		.loc 7 359 0
 3214 02f0 1846     		mov	r0, r3
 3215 02f2 FFF7FEFF 		bl	_ZN3ros11NodeHandle_I13STM32HardwareLi5ELi5ELi512ELi512EE15requestSyncTimeEv
 3216              	.LVL363:
 3217              	.LBB473:
 3218              	.LBB474:
 3219              	.LBB475:
 3220              	.LBB476:
  12:ROSSerial/rosserial_msgs/TopicInfo.h ****   {
 3221              		.loc 2 12 0
 3222 02f6 0E4B     		ldr	r3, .L224+48
 3223 02f8 0493     		str	r3, [sp, #16]
 3224              	.LVL364:
 3225              	.LBE476:
 3226              	.LBE475:
 558:ROSSerial/ros/node_handle.h ****     {
 3227              		.loc 7 558 0
 3228 02fa 2E46     		mov	r6, r5
 3229 02fc 1BE0     		b	.L169
 3230              	.L225:
 3231 02fe 00BF     		.align	2
 3232              	.L224:
 3233 0300 00000000 		.word	.LANCHOR1
 3234 0304 00000000 		.word	g_RxRead
 3235 0308 00000000 		.word	g_RxBuf
 3236 030c 00000000 		.word	g_RxWritten
 3237 0310 00000000 		.word	huart2
 3238 0314 00000000 		.word	byte
 3239 0318 00000000 		.word	_ZZN3ros11NodeHandle_I13STM32HardwareLi5ELi5ELi512ELi512EE9spinOnce1EvE10s_CallBack
 3240 031c 08000000 		.word	_ZTVN8std_msgs4TimeE+8
 3241 0320 18020000 		.word	.LANCHOR1+536
 3242 0324 00000000 		.word	.LC11
ARM GAS  /var/folders/l3/4y5292px21b4835bsnjwqc7w009kq1/T//ccaF8PhA.s 			page 86


 3243 0328 08000000 		.word	_ZTVN14rosserial_msgs3LogE+8
 3244 032c 14000000 		.word	.LC12
 3245 0330 08000000 		.word	_ZTVN14rosserial_msgs9TopicInfoE+8
 3246              	.LVL365:
 3247              	.L168:
 3248 0334 0136     		adds	r6, r6, #1
 3249              	.LVL366:
 3250              	.L169:
 3251 0336 042E     		cmp	r6, #4
 3252 0338 1FDC     		bgt	.L167
 560:ROSSerial/ros/node_handle.h ****       {
 3253              		.loc 7 560 0
 3254 033a 06EB8602 		add	r2, r6, r6, lsl #2
 3255 033e 9E4B     		ldr	r3, .L226
 3256 0340 03EB8203 		add	r3, r3, r2, lsl #2
 3257 0344 B3F82C34 		ldrh	r3, [r3, #1068]
 3258 0348 002B     		cmp	r3, #0
 3259 034a F3D0     		beq	.L168
 562:ROSSerial/ros/node_handle.h ****         ti.topic_name = publishers2[i].topic_name;
 3260              		.loc 7 562 0
 3261 034c ADF81430 		strh	r3, [sp, #20]	@ movhi
 563:ROSSerial/ros/node_handle.h ****         ti.message_type = publishers2[i].message_type;
 3262              		.loc 7 563 0
 3263 0350 9948     		ldr	r0, .L226
 3264 0352 00EB8203 		add	r3, r0, r2, lsl #2
 3265 0356 D3F83024 		ldr	r2, [r3, #1072]
 3266 035a 0692     		str	r2, [sp, #24]
 564:ROSSerial/ros/node_handle.h ****         ti.md5sum = publishers2[i].md5sum;
 3267              		.loc 7 564 0
 3268 035c D3F83824 		ldr	r2, [r3, #1080]
 3269 0360 0792     		str	r2, [sp, #28]
 565:ROSSerial/ros/node_handle.h ****         ti.buffer_size = OUTPUT_SIZE;
 3270              		.loc 7 565 0
 3271 0362 D3F83C34 		ldr	r3, [r3, #1084]
 3272 0366 0893     		str	r3, [sp, #32]
 566:ROSSerial/ros/node_handle.h ****         publish1(TopicInfo::ID_PUBLISHER, &ti);
 3273              		.loc 7 566 0
 3274 0368 4FF40073 		mov	r3, #512
 3275 036c 0993     		str	r3, [sp, #36]
 567:ROSSerial/ros/node_handle.h ****       }
 3276              		.loc 7 567 0
 3277 036e 04AA     		add	r2, sp, #16
 3278 0370 0021     		movs	r1, #0
 3279 0372 FFF7FEFF 		bl	_ZN3ros11NodeHandle_I13STM32HardwareLi5ELi5ELi512ELi512EE8publish1EiPNS_3MsgE
 3280              	.LVL367:
 3281 0376 DDE7     		b	.L168
 3282              	.LVL368:
 3283              	.L171:
 570:ROSSerial/ros/node_handle.h ****     {
 3284              		.loc 7 570 0
 3285 0378 0135     		adds	r5, r5, #1
 3286              	.LVL369:
 3287              	.L167:
 3288 037a 042D     		cmp	r5, #4
 3289 037c 1EDC     		bgt	.L170
 572:ROSSerial/ros/node_handle.h ****       {
 3290              		.loc 7 572 0
ARM GAS  /var/folders/l3/4y5292px21b4835bsnjwqc7w009kq1/T//ccaF8PhA.s 			page 87


 3291 037e 05EB8502 		add	r2, r5, r5, lsl #2
 3292 0382 8D4B     		ldr	r3, .L226
 3293 0384 03EB8203 		add	r3, r3, r2, lsl #2
 3294 0388 B3F8A434 		ldrh	r3, [r3, #1188]
 3295 038c 002B     		cmp	r3, #0
 3296 038e F3D0     		beq	.L171
 574:ROSSerial/ros/node_handle.h ****         ti.topic_name = subscribers2[i].topic_name;
 3297              		.loc 7 574 0
 3298 0390 ADF81430 		strh	r3, [sp, #20]	@ movhi
 575:ROSSerial/ros/node_handle.h ****         ti.message_type = subscribers2[i].message_type;
 3299              		.loc 7 575 0
 3300 0394 8848     		ldr	r0, .L226
 3301 0396 00EB8203 		add	r3, r0, r2, lsl #2
 3302 039a D3F8A824 		ldr	r2, [r3, #1192]
 3303 039e 0692     		str	r2, [sp, #24]
 576:ROSSerial/ros/node_handle.h ****         ti.md5sum = subscribers2[i].md5sum;
 3304              		.loc 7 576 0
 3305 03a0 D3F8AC24 		ldr	r2, [r3, #1196]
 3306 03a4 0792     		str	r2, [sp, #28]
 577:ROSSerial/ros/node_handle.h ****         ti.buffer_size = INPUT_SIZE;
 3307              		.loc 7 577 0
 3308 03a6 D3F8B034 		ldr	r3, [r3, #1200]
 3309 03aa 0893     		str	r3, [sp, #32]
 578:ROSSerial/ros/node_handle.h ****         publish1(rosserial_msgs::TopicInfo::ID_SUBSCRIBER, &ti);
 3310              		.loc 7 578 0
 3311 03ac 4FF40073 		mov	r3, #512
 3312 03b0 0993     		str	r3, [sp, #36]
 579:ROSSerial/ros/node_handle.h ****       }
 3313              		.loc 7 579 0
 3314 03b2 04AA     		add	r2, sp, #16
 3315 03b4 0121     		movs	r1, #1
 3316 03b6 FFF7FEFF 		bl	_ZN3ros11NodeHandle_I13STM32HardwareLi5ELi5ELi512ELi512EE8publish1EiPNS_3MsgE
 3317              	.LVL370:
 3318 03ba DDE7     		b	.L171
 3319              	.L170:
 582:ROSSerial/ros/node_handle.h ****   }
 3320              		.loc 7 582 0
 3321 03bc 7E4B     		ldr	r3, .L226
 3322 03be 0122     		movs	r2, #1
 3323 03c0 83F81C25 		strb	r2, [r3, #1308]
 3324              	.LVL371:
 3325              	.LBE474:
 3326              	.LBE473:
 361:ROSSerial/ros/node_handle.h ****             last_sync_receive_time = c_time;
 3327              		.loc 7 361 0
 3328 03c4 C3F82045 		str	r4, [r3, #1312]
 362:ROSSerial/ros/node_handle.h ****             return SPIN_ERR;
 3329              		.loc 7 362 0
 3330 03c8 C3F82445 		str	r4, [r3, #1316]
 3331 03cc 0AE1     		b	.L146
 3332              	.L211:
 3333              	.LVL372:
 3334              	.LBB477:
 3335              	.LBB478:
 3336              	.LBB479:
 3337              	.LBB480:
 3338              		.loc 8 151 0
ARM GAS  /var/folders/l3/4y5292px21b4835bsnjwqc7w009kq1/T//ccaF8PhA.s 			page 88


 3339 03ce FFF7FEFF 		bl	HAL_GetTick
 3340              	.LVL373:
 3341              	.LBE480:
 3342              	.LBE479:
 421:ROSSerial/ros/node_handle.h **** 
 3343              		.loc 7 421 0
 3344 03d2 794D     		ldr	r5, .L226
 3345 03d4 AB68     		ldr	r3, [r5, #8]
 3346 03d6 C01A     		subs	r0, r0, r3
 3347              	.LVL374:
 3348              	.LBB481:
 3349              	.LBB482:
  38:ROSSerial/std_msgs/Time.h ****       this->data.sec |= ((uint32_t) (*(inbuffer + offset + 1))) << (8 * 1);
 3350              		.loc 1 38 0
 3351 03d8 2B7E     		ldrb	r3, [r5, #24]	@ zero_extendqisi2
  39:ROSSerial/std_msgs/Time.h ****       this->data.sec |= ((uint32_t) (*(inbuffer + offset + 2))) << (8 * 2);
 3352              		.loc 1 39 0
 3353 03da 6A7E     		ldrb	r2, [r5, #25]	@ zero_extendqisi2
 3354 03dc 43EA0223 		orr	r3, r3, r2, lsl #8
  40:ROSSerial/std_msgs/Time.h ****       this->data.sec |= ((uint32_t) (*(inbuffer + offset + 3))) << (8 * 3);
 3355              		.loc 1 40 0
 3356 03e0 AA7E     		ldrb	r2, [r5, #26]	@ zero_extendqisi2
 3357 03e2 43EA0243 		orr	r3, r3, r2, lsl #16
  41:ROSSerial/std_msgs/Time.h ****       offset += sizeof(this->data.sec);
 3358              		.loc 1 41 0
 3359 03e6 EA7E     		ldrb	r2, [r5, #27]	@ zero_extendqisi2
 3360 03e8 43EA0263 		orr	r3, r3, r2, lsl #24
 3361              	.LVL375:
  43:ROSSerial/std_msgs/Time.h ****       this->data.nsec |= ((uint32_t) (*(inbuffer + offset + 1))) << (8 * 1);
 3362              		.loc 1 43 0
 3363 03ec 297F     		ldrb	r1, [r5, #28]	@ zero_extendqisi2
  44:ROSSerial/std_msgs/Time.h ****       this->data.nsec |= ((uint32_t) (*(inbuffer + offset + 2))) << (8 * 2);
 3364              		.loc 1 44 0
 3365 03ee 6A7F     		ldrb	r2, [r5, #29]	@ zero_extendqisi2
 3366 03f0 41EA0221 		orr	r1, r1, r2, lsl #8
  45:ROSSerial/std_msgs/Time.h ****       this->data.nsec |= ((uint32_t) (*(inbuffer + offset + 3))) << (8 * 3);
 3367              		.loc 1 45 0
 3368 03f4 AA7F     		ldrb	r2, [r5, #30]	@ zero_extendqisi2
 3369 03f6 41EA0241 		orr	r1, r1, r2, lsl #16
  46:ROSSerial/std_msgs/Time.h ****       offset += sizeof(this->data.nsec);
 3370              		.loc 1 46 0
 3371 03fa EA7F     		ldrb	r2, [r5, #31]	@ zero_extendqisi2
 3372 03fc 41EA0261 		orr	r1, r1, r2, lsl #24
 3373              	.LVL376:
 3374              	.LBE482:
 3375              	.LBE481:
 424:ROSSerial/ros/node_handle.h ****     t.data.nsec += (offset % 1000) * 1000000UL;
 3376              		.loc 7 424 0
 3377 0400 6E4E     		ldr	r6, .L226+4
 3378 0402 A6FB0072 		umull	r7, r2, r6, r0
 3379 0406 9209     		lsrs	r2, r2, #6
 3380 0408 1344     		add	r3, r3, r2
 3381 040a 0593     		str	r3, [sp, #20]
 425:ROSSerial/ros/node_handle.h **** 
 3382              		.loc 7 425 0
 3383 040c 4FF47A78 		mov	r8, #1000
 3384 0410 08FB1203 		mls	r3, r8, r2, r0
ARM GAS  /var/folders/l3/4y5292px21b4835bsnjwqc7w009kq1/T//ccaF8PhA.s 			page 89


 3385 0414 6A4F     		ldr	r7, .L226+8
 3386 0416 07FB0313 		mla	r3, r7, r3, r1
 3387 041a 0693     		str	r3, [sp, #24]
 3388              	.LVL377:
 3389              	.LBB483:
 3390              	.LBB484:
 3391              	.LBB485:
 3392              	.LBB486:
 3393              		.loc 8 151 0
 3394 041c FFF7FEFF 		bl	HAL_GetTick
 3395              	.LVL378:
 3396              	.LBE486:
 3397              	.LBE485:
 444:ROSSerial/ros/node_handle.h ****     nsec_offset = new_now.nsec - (ms % 1000) * 1000000UL + 1000000000UL;
 3398              		.loc 7 444 0
 3399 0420 059A     		ldr	r2, [sp, #20]
 3400 0422 A6FB0013 		umull	r1, r3, r6, r0
 3401 0426 9B09     		lsrs	r3, r3, #6
 3402 0428 D21A     		subs	r2, r2, r3
 3403 042a 013A     		subs	r2, r2, #1
 3404 042c EA60     		str	r2, [r5, #12]
 445:ROSSerial/ros/node_handle.h ****     normalizeSecNSec(sec_offset, nsec_offset);
 3405              		.loc 7 445 0
 3406 042e 069A     		ldr	r2, [sp, #24]
 3407 0430 08FB1303 		mls	r3, r8, r3, r0
 3408 0434 07FB1323 		mls	r3, r7, r3, r2
 3409 0438 624A     		ldr	r2, .L226+12
 3410 043a 1A44     		add	r2, r2, r3
 3411 043c 2946     		mov	r1, r5
 3412 043e 41F8102F 		str	r2, [r1, #16]!
 446:ROSSerial/ros/node_handle.h ****   }
 3413              		.loc 7 446 0
 3414 0442 05F10C00 		add	r0, r5, #12
 3415              	.LVL379:
 3416 0446 FFF7FEFF 		bl	_ZN3ros16normalizeSecNSecERmS0_
 3417              	.LVL380:
 3418              	.LBE484:
 3419              	.LBE483:
 3420              	.LBB487:
 3421              	.LBB488:
 3422              		.loc 8 151 0
 3423 044a FFF7FEFF 		bl	HAL_GetTick
 3424              	.LVL381:
 3425              	.LBE488:
 3426              	.LBE487:
 428:ROSSerial/ros/node_handle.h ****   }
 3427              		.loc 7 428 0
 3428 044e C5F82405 		str	r0, [r5, #1316]
 3429 0452 39E6     		b	.L144
 3430              	.LVL382:
 3431              	.L212:
 3432              	.LBE478:
 3433              	.LBE477:
 3434              	.LBB489:
 3435              	.LBB490:
 116:ROSSerial/rosserial_msgs/RequestParam.h ****       if(ints_lengthT > ints_length)
 3436              		.loc 4 116 0
ARM GAS  /var/folders/l3/4y5292px21b4835bsnjwqc7w009kq1/T//ccaF8PhA.s 			page 90


 3437 0454 584B     		ldr	r3, .L226
 3438 0456 1D7E     		ldrb	r5, [r3, #24]	@ zero_extendqisi2
 3439              	.LVL383:
 117:ROSSerial/rosserial_msgs/RequestParam.h ****         this->ints = (int32_t*)realloc(this->ints, ints_lengthT * sizeof(int32_t));
 3440              		.loc 4 117 0
 3441 0458 93F83435 		ldrb	r3, [r3, #1332]	@ zero_extendqisi2
 3442 045c 9D42     		cmp	r5, r3
 3443 045e 23D8     		bhi	.L217
 3444              	.L174:
 3445              	.LVL384:
 120:ROSSerial/rosserial_msgs/RequestParam.h ****       for( uint8_t i = 0; i < ints_length; i++){
 3446              		.loc 4 120 0
 3447 0460 554B     		ldr	r3, .L226
 3448 0462 83F83455 		strb	r5, [r3, #1332]
 3449              	.LVL385:
 3450              	.LBB491:
 121:ROSSerial/rosserial_msgs/RequestParam.h ****       union {
 3451              		.loc 4 121 0
 3452 0466 0022     		movs	r2, #0
 3453              	.LBE491:
 119:ROSSerial/rosserial_msgs/RequestParam.h ****       ints_length = ints_lengthT;
 3454              		.loc 4 119 0
 3455 0468 0425     		movs	r5, #4
 3456              	.LVL386:
 3457              	.L176:
 3458              	.LBB493:
 121:ROSSerial/rosserial_msgs/RequestParam.h ****       union {
 3459              		.loc 4 121 0
 3460 046a 534B     		ldr	r3, .L226
 3461 046c 93F83435 		ldrb	r3, [r3, #1332]	@ zero_extendqisi2
 3462 0470 9342     		cmp	r3, r2
 3463 0472 22D9     		bls	.L175
 3464              	.LBB492:
 127:ROSSerial/rosserial_msgs/RequestParam.h ****       u_st_ints.base |= ((uint32_t) (*(inbuffer + offset + 1))) << (8 * 1);
 3465              		.loc 4 127 0
 3466 0474 5048     		ldr	r0, .L226
 3467 0476 00F11801 		add	r1, r0, #24
 3468 047a 4B5D     		ldrb	r3, [r1, r5]	@ zero_extendqisi2
 128:ROSSerial/rosserial_msgs/RequestParam.h ****       u_st_ints.base |= ((uint32_t) (*(inbuffer + offset + 2))) << (8 * 2);
 3469              		.loc 4 128 0
 3470 047c 6E1C     		adds	r6, r5, #1
 3471 047e 8E5D     		ldrb	r6, [r1, r6]	@ zero_extendqisi2
 3472 0480 43EA0623 		orr	r3, r3, r6, lsl #8
 129:ROSSerial/rosserial_msgs/RequestParam.h ****       u_st_ints.base |= ((uint32_t) (*(inbuffer + offset + 3))) << (8 * 3);
 3473              		.loc 4 129 0
 3474 0484 AE1C     		adds	r6, r5, #2
 3475 0486 8E5D     		ldrb	r6, [r1, r6]	@ zero_extendqisi2
 3476 0488 43EA0643 		orr	r3, r3, r6, lsl #16
 130:ROSSerial/rosserial_msgs/RequestParam.h ****       this->st_ints = u_st_ints.real;
 3477              		.loc 4 130 0
 3478 048c EE1C     		adds	r6, r5, #3
 3479 048e 895D     		ldrb	r1, [r1, r6]	@ zero_extendqisi2
 3480 0490 43EA0163 		orr	r3, r3, r1, lsl #24
 131:ROSSerial/rosserial_msgs/RequestParam.h ****       offset += sizeof(this->st_ints);
 3481              		.loc 4 131 0
 3482 0494 C0F83835 		str	r3, [r0, #1336]
 132:ROSSerial/rosserial_msgs/RequestParam.h ****         memcpy( &(this->ints[i]), &(this->st_ints), sizeof(int32_t));
ARM GAS  /var/folders/l3/4y5292px21b4835bsnjwqc7w009kq1/T//ccaF8PhA.s 			page 91


 3483              		.loc 4 132 0
 3484 0498 0435     		adds	r5, r5, #4
 3485              	.LVL387:
 133:ROSSerial/rosserial_msgs/RequestParam.h ****       }
 3486              		.loc 4 133 0
 3487 049a D0F83C15 		ldr	r1, [r0, #1340]
 3488 049e 41F82230 		str	r3, [r1, r2, lsl #2]	@ unaligned
 3489              	.LBE492:
 121:ROSSerial/rosserial_msgs/RequestParam.h ****       union {
 3490              		.loc 4 121 0
 3491 04a2 0132     		adds	r2, r2, #1
 3492              	.LVL388:
 3493 04a4 D2B2     		uxtb	r2, r2
 3494              	.LVL389:
 3495 04a6 E0E7     		b	.L176
 3496              	.LVL390:
 3497              	.L217:
 3498              	.LBE493:
 118:ROSSerial/rosserial_msgs/RequestParam.h ****       offset += 3;
 3499              		.loc 4 118 0
 3500 04a8 434E     		ldr	r6, .L226
 3501 04aa A900     		lsls	r1, r5, #2
 3502 04ac D6F83C05 		ldr	r0, [r6, #1340]
 3503 04b0 FFF7FEFF 		bl	realloc
 3504              	.LVL391:
 3505 04b4 C6F83C05 		str	r0, [r6, #1340]
 3506 04b8 D2E7     		b	.L174
 3507              	.LVL392:
 3508              	.L175:
 135:ROSSerial/rosserial_msgs/RequestParam.h ****       if(floats_lengthT > floats_length)
 3509              		.loc 4 135 0
 3510 04ba 3F4B     		ldr	r3, .L226
 3511 04bc 03F11802 		add	r2, r3, #24
 3512              	.LVL393:
 3513 04c0 565D     		ldrb	r6, [r2, r5]	@ zero_extendqisi2
 3514              	.LVL394:
 136:ROSSerial/rosserial_msgs/RequestParam.h ****         this->floats = (float*)realloc(this->floats, floats_lengthT * sizeof(float));
 3515              		.loc 4 136 0
 3516 04c2 93F84035 		ldrb	r3, [r3, #1344]	@ zero_extendqisi2
 3517 04c6 9E42     		cmp	r6, r3
 3518 04c8 24D8     		bhi	.L218
 3519              	.L177:
 138:ROSSerial/rosserial_msgs/RequestParam.h ****       floats_length = floats_lengthT;
 3520              		.loc 4 138 0
 3521 04ca 0435     		adds	r5, r5, #4
 3522              	.LVL395:
 139:ROSSerial/rosserial_msgs/RequestParam.h ****       for( uint8_t i = 0; i < floats_length; i++){
 3523              		.loc 4 139 0
 3524 04cc 3A4B     		ldr	r3, .L226
 3525 04ce 83F84065 		strb	r6, [r3, #1344]
 3526              	.LVL396:
 3527              	.LBB494:
 140:ROSSerial/rosserial_msgs/RequestParam.h ****       union {
 3528              		.loc 4 140 0
 3529 04d2 0022     		movs	r2, #0
 3530              	.LVL397:
 3531              	.L179:
ARM GAS  /var/folders/l3/4y5292px21b4835bsnjwqc7w009kq1/T//ccaF8PhA.s 			page 92


 3532 04d4 384B     		ldr	r3, .L226
 3533 04d6 93F84035 		ldrb	r3, [r3, #1344]	@ zero_extendqisi2
 3534 04da 9342     		cmp	r3, r2
 3535 04dc 24D9     		bls	.L178
 3536              	.LBB495:
 146:ROSSerial/rosserial_msgs/RequestParam.h ****       u_st_floats.base |= ((uint32_t) (*(inbuffer + offset + 1))) << (8 * 1);
 3537              		.loc 4 146 0
 3538 04de 3648     		ldr	r0, .L226
 3539 04e0 00F11801 		add	r1, r0, #24
 3540 04e4 4B5D     		ldrb	r3, [r1, r5]	@ zero_extendqisi2
 147:ROSSerial/rosserial_msgs/RequestParam.h ****       u_st_floats.base |= ((uint32_t) (*(inbuffer + offset + 2))) << (8 * 2);
 3541              		.loc 4 147 0
 3542 04e6 6E1C     		adds	r6, r5, #1
 3543 04e8 8E5D     		ldrb	r6, [r1, r6]	@ zero_extendqisi2
 3544 04ea 43EA0623 		orr	r3, r3, r6, lsl #8
 148:ROSSerial/rosserial_msgs/RequestParam.h ****       u_st_floats.base |= ((uint32_t) (*(inbuffer + offset + 3))) << (8 * 3);
 3545              		.loc 4 148 0
 3546 04ee AE1C     		adds	r6, r5, #2
 3547 04f0 8E5D     		ldrb	r6, [r1, r6]	@ zero_extendqisi2
 3548 04f2 43EA0643 		orr	r3, r3, r6, lsl #16
 149:ROSSerial/rosserial_msgs/RequestParam.h ****       this->st_floats = u_st_floats.real;
 3549              		.loc 4 149 0
 3550 04f6 EE1C     		adds	r6, r5, #3
 3551 04f8 895D     		ldrb	r1, [r1, r6]	@ zero_extendqisi2
 3552 04fa 43EA0163 		orr	r3, r3, r1, lsl #24
 150:ROSSerial/rosserial_msgs/RequestParam.h ****       offset += sizeof(this->st_floats);
 3553              		.loc 4 150 0
 3554 04fe 00F24451 		addw	r1, r0, #1348
 3555 0502 0B60     		str	r3, [r1]	@ float
 151:ROSSerial/rosserial_msgs/RequestParam.h ****         memcpy( &(this->floats[i]), &(this->st_floats), sizeof(float));
 3556              		.loc 4 151 0
 3557 0504 0435     		adds	r5, r5, #4
 3558              	.LVL398:
 152:ROSSerial/rosserial_msgs/RequestParam.h ****       }
 3559              		.loc 4 152 0
 3560 0506 D0F84815 		ldr	r1, [r0, #1352]
 3561 050a 41F82230 		str	r3, [r1, r2, lsl #2]	@ unaligned
 3562              	.LBE495:
 140:ROSSerial/rosserial_msgs/RequestParam.h ****       union {
 3563              		.loc 4 140 0
 3564 050e 0132     		adds	r2, r2, #1
 3565              	.LVL399:
 3566 0510 D2B2     		uxtb	r2, r2
 3567              	.LVL400:
 3568 0512 DFE7     		b	.L179
 3569              	.LVL401:
 3570              	.L218:
 3571              	.LBE494:
 137:ROSSerial/rosserial_msgs/RequestParam.h ****       offset += 3;
 3572              		.loc 4 137 0
 3573 0514 A2F11807 		sub	r7, r2, #24
 3574 0518 B100     		lsls	r1, r6, #2
 3575 051a D7F84805 		ldr	r0, [r7, #1352]
 3576 051e FFF7FEFF 		bl	realloc
 3577              	.LVL402:
 3578 0522 C7F84805 		str	r0, [r7, #1352]
 3579 0526 D0E7     		b	.L177
ARM GAS  /var/folders/l3/4y5292px21b4835bsnjwqc7w009kq1/T//ccaF8PhA.s 			page 93


 3580              	.LVL403:
 3581              	.L178:
 154:ROSSerial/rosserial_msgs/RequestParam.h ****       if(strings_lengthT > strings_length)
 3582              		.loc 4 154 0
 3583 0528 234B     		ldr	r3, .L226
 3584 052a 03F11802 		add	r2, r3, #24
 3585              	.LVL404:
 3586 052e 565D     		ldrb	r6, [r2, r5]	@ zero_extendqisi2
 3587              	.LVL405:
 155:ROSSerial/rosserial_msgs/RequestParam.h ****         this->strings = (char**)realloc(this->strings, strings_lengthT * sizeof(char*));
 3588              		.loc 4 155 0
 3589 0530 93F84C35 		ldrb	r3, [r3, #1356]	@ zero_extendqisi2
 3590 0534 9E42     		cmp	r6, r3
 3591 0536 05D8     		bhi	.L219
 3592              	.L180:
 157:ROSSerial/rosserial_msgs/RequestParam.h ****       strings_length = strings_lengthT;
 3593              		.loc 4 157 0
 3594 0538 2A1D     		adds	r2, r5, #4
 3595              	.LVL406:
 158:ROSSerial/rosserial_msgs/RequestParam.h ****       for( uint8_t i = 0; i < strings_length; i++){
 3596              		.loc 4 158 0
 3597 053a 1F4B     		ldr	r3, .L226
 3598 053c 83F84C65 		strb	r6, [r3, #1356]
 3599              	.LVL407:
 3600              	.LBB496:
 159:ROSSerial/rosserial_msgs/RequestParam.h ****       uint32_t length_st_strings;
 3601              		.loc 4 159 0
 3602 0540 0027     		movs	r7, #0
 3603 0542 19E0     		b	.L184
 3604              	.LVL408:
 3605              	.L219:
 3606              	.LBE496:
 156:ROSSerial/rosserial_msgs/RequestParam.h ****       offset += 3;
 3607              		.loc 4 156 0
 3608 0544 A2F11807 		sub	r7, r2, #24
 3609 0548 B100     		lsls	r1, r6, #2
 3610 054a D7F85405 		ldr	r0, [r7, #1364]
 3611 054e FFF7FEFF 		bl	realloc
 3612              	.LVL409:
 3613 0552 C7F85405 		str	r0, [r7, #1364]
 3614 0556 EFE7     		b	.L180
 3615              	.LVL410:
 3616              	.L182:
 3617              	.LBB500:
 3618              	.LBB497:
 166:ROSSerial/rosserial_msgs/RequestParam.h ****       this->st_strings = (char *)(inbuffer + offset-1);
 3619              		.loc 4 166 0
 3620 0558 1749     		ldr	r1, .L226
 3621 055a 01F11803 		add	r3, r1, #24
 3622              	.LVL411:
 3623 055e 501E     		subs	r0, r2, #1
 3624 0560 0026     		movs	r6, #0
 3625              	.LVL412:
 3626 0562 1E54     		strb	r6, [r3, r0]
 167:ROSSerial/rosserial_msgs/RequestParam.h ****       offset += length_st_strings;
 3627              		.loc 4 167 0
 3628 0564 013D     		subs	r5, r5, #1
ARM GAS  /var/folders/l3/4y5292px21b4835bsnjwqc7w009kq1/T//ccaF8PhA.s 			page 94


 3629 0566 1D44     		add	r5, r5, r3
 3630 0568 C1F85055 		str	r5, [r1, #1360]
 3631              	.LVL413:
 169:ROSSerial/rosserial_msgs/RequestParam.h ****       }
 3632              		.loc 4 169 0
 3633 056c D1F85435 		ldr	r3, [r1, #1364]
 3634 0570 43F82750 		str	r5, [r3, r7, lsl #2]	@ unaligned
 3635              	.LBE497:
 159:ROSSerial/rosserial_msgs/RequestParam.h ****       uint32_t length_st_strings;
 3636              		.loc 4 159 0
 3637 0574 0137     		adds	r7, r7, #1
 3638              	.LVL414:
 3639 0576 FFB2     		uxtb	r7, r7
 3640              	.LVL415:
 3641              	.L184:
 3642 0578 0F4B     		ldr	r3, .L226
 3643 057a 93F84C35 		ldrb	r3, [r3, #1356]	@ zero_extendqisi2
 3644 057e BB42     		cmp	r3, r7
 3645 0580 0FD9     		bls	.L181
 3646              	.LBB499:
 161:ROSSerial/rosserial_msgs/RequestParam.h ****       offset += 4;
 3647              		.loc 4 161 0
 3648 0582 114B     		ldr	r3, .L226+16
 3649 0584 9E58     		ldr	r6, [r3, r2]	@ unaligned
 3650              	.LVL416:
 162:ROSSerial/rosserial_msgs/RequestParam.h ****       for(unsigned int k= offset; k< offset+length_st_strings; ++k){
 3651              		.loc 4 162 0
 3652 0586 151D     		adds	r5, r2, #4
 3653              	.LVL417:
 3654              	.LBB498:
 163:ROSSerial/rosserial_msgs/RequestParam.h ****           inbuffer[k-1]=inbuffer[k];
 3655              		.loc 4 163 0
 3656 0588 2B46     		mov	r3, r5
 3657              	.LVL418:
 3658              	.L183:
 3659 058a 7219     		adds	r2, r6, r5
 3660 058c 9A42     		cmp	r2, r3
 3661 058e E3D9     		bls	.L182
 164:ROSSerial/rosserial_msgs/RequestParam.h ****       }
 3662              		.loc 4 164 0
 3663 0590 094A     		ldr	r2, .L226
 3664 0592 02F11800 		add	r0, r2, #24
 3665 0596 591E     		subs	r1, r3, #1
 3666 0598 1A44     		add	r2, r2, r3
 3667 059a 127E     		ldrb	r2, [r2, #24]	@ zero_extendqisi2
 3668 059c 4254     		strb	r2, [r0, r1]
 163:ROSSerial/rosserial_msgs/RequestParam.h ****           inbuffer[k-1]=inbuffer[k];
 3669              		.loc 4 163 0
 3670 059e 0133     		adds	r3, r3, #1
 3671              	.LVL419:
 3672 05a0 F3E7     		b	.L183
 3673              	.LVL420:
 3674              	.L181:
 3675              	.LBE498:
 3676              	.LBE499:
 3677              	.LBE500:
 3678              	.LBE490:
ARM GAS  /var/folders/l3/4y5292px21b4835bsnjwqc7w009kq1/T//ccaF8PhA.s 			page 95


 3679              	.LBE489:
 372:ROSSerial/ros/node_handle.h ****           }
 3680              		.loc 7 372 0
 3681 05a2 054B     		ldr	r3, .L226
 3682 05a4 0122     		movs	r2, #1
 3683 05a6 83F82C25 		strb	r2, [r3, #1324]
 3684 05aa 8DE5     		b	.L144
 3685              	.L213:
 376:ROSSerial/ros/node_handle.h ****           }
 3686              		.loc 7 376 0
 3687 05ac 024B     		ldr	r3, .L226
 3688 05ae 0022     		movs	r2, #0
 3689 05b0 83F81C25 		strb	r2, [r3, #1308]
 3690 05b4 88E5     		b	.L144
 3691              	.L227:
 3692 05b6 00BF     		.align	2
 3693              	.L226:
 3694 05b8 00000000 		.word	.LANCHOR1
 3695 05bc D34D6210 		.word	274877907
 3696 05c0 40420F00 		.word	1000000
 3697 05c4 00CA9A3B 		.word	1000000000
 3698 05c8 18000000 		.word	.LANCHOR1+24
 3699              	.L149:
 3700              	.LBE434:
 391:ROSSerial/ros/node_handle.h ****     {
 3701              		.loc 7 391 0
 3702 05cc 954B     		ldr	r3, .L228
 3703 05ce 93F81C35 		ldrb	r3, [r3, #1308]	@ zero_extendqisi2
 3704 05d2 3BB1     		cbz	r3, .L146
 3705 05d4 934B     		ldr	r3, .L228
 3706 05d6 D3F82035 		ldr	r3, [r3, #1312]
 3707 05da E31A     		subs	r3, r4, r3
 3708 05dc 40F6C412 		movw	r2, #2500
 3709 05e0 9342     		cmp	r3, r2
 3710 05e2 44D8     		bhi	.L220
 3711              	.L146:
 3712              	.LVL421:
 3713              	.LBE431:
 3714              	.LBE430:
 3715              	.LBB528:
 3716              	.LBB529:
  13:ROSSerial/std_msgs/ROSString.h ****   {
 3717              		.loc 5 13 0
 3718 05e4 904B     		ldr	r3, .L228+4
 3719 05e6 8A93     		str	r3, [sp, #552]
 3720              	.LVL422:
 3721              	.LBE529:
 3722              	.LBE528:
  43:./Src/ROS_main.cpp ****     sprintf(buf,"Millis %ld ledState = %d",HAL_GetTick(), getLedState());
 3723              		.loc 6 43 0
 3724 05e8 FFF7FEFF 		bl	HAL_GetTick
 3725              	.LVL423:
 3726 05ec 0546     		mov	r5, r0
 3727 05ee FFF7FEFF 		bl	_Z11getLedStatev
 3728              	.LVL424:
 3729 05f2 0AAC     		add	r4, sp, #40
 3730              	.LVL425:
ARM GAS  /var/folders/l3/4y5292px21b4835bsnjwqc7w009kq1/T//ccaF8PhA.s 			page 96


 3731 05f4 0346     		mov	r3, r0
 3732 05f6 2A46     		mov	r2, r5
 3733 05f8 8C49     		ldr	r1, .L228+8
 3734 05fa 2046     		mov	r0, r4
 3735 05fc FFF7FEFF 		bl	sprintf
 3736              	.LVL426:
  44:./Src/ROS_main.cpp ****     str_msg.data = buf;
 3737              		.loc 6 44 0
 3738 0600 8B94     		str	r4, [sp, #556]
  47:./Src/ROS_main.cpp ****     nh.publish1(chatter->topic_id, &str_msg); 
 3739              		.loc 6 47 0
 3740 0602 8B4B     		ldr	r3, .L228+12
 3741 0604 1B68     		ldr	r3, [r3]
 3742 0606 1D88     		ldrh	r5, [r3]
 3743              	.LVL427:
 3744              	.LBB530:
 3745              	.LBB531:
 593:ROSSerial/ros/node_handle.h ****       return 0;
 3746              		.loc 7 593 0
 3747 0608 632D     		cmp	r5, #99
 3748 060a 05DD     		ble	.L190
 3749 060c 854B     		ldr	r3, .L228
 3750 060e 93F81C35 		ldrb	r3, [r3, #1308]	@ zero_extendqisi2
 3751 0612 002B     		cmp	r3, #0
 3752 0614 00F0A180 		beq	.L141
 3753              	.L190:
 597:ROSSerial/ros/node_handle.h **** 
 3754              		.loc 7 597 0
 3755 0618 824C     		ldr	r4, .L228
 3756 061a 8A9B     		ldr	r3, [sp, #552]
 3757 061c 1B68     		ldr	r3, [r3]
 3758 061e 04F21F21 		addw	r1, r4, #543
 3759 0622 8AA8     		add	r0, sp, #552
 3760              	.LVL428:
 3761 0624 9847     		blx	r3
 3762              	.LVL429:
 600:ROSSerial/ros/node_handle.h ****     message_out[1] = PROTOCOL_VER;
 3763              		.loc 7 600 0
 3764 0626 FF23     		movs	r3, #255
 3765 0628 84F81832 		strb	r3, [r4, #536]
 601:ROSSerial/ros/node_handle.h ****     message_out[2] = (uint8_t)((uint16_t)l & 255);
 3766              		.loc 7 601 0
 3767 062c FE23     		movs	r3, #254
 3768 062e 84F81932 		strb	r3, [r4, #537]
 602:ROSSerial/ros/node_handle.h ****     message_out[3] = (uint8_t)((uint16_t)l >> 8);
 3769              		.loc 7 602 0
 3770 0632 C3B2     		uxtb	r3, r0
 3771 0634 84F81A32 		strb	r3, [r4, #538]
 603:ROSSerial/ros/node_handle.h ****     message_out[4] = 255 - ((message_out[2] + message_out[3]) % 256);
 3772              		.loc 7 603 0
 3773 0638 C0F30722 		ubfx	r2, r0, #8, #8
 3774 063c 84F81B22 		strb	r2, [r4, #539]
 604:ROSSerial/ros/node_handle.h ****     message_out[5] = (uint8_t)((int16_t)id & 255);
 3775              		.loc 7 604 0
 3776 0640 1344     		add	r3, r3, r2
 3777 0642 DBB2     		uxtb	r3, r3
 3778 0644 DB43     		mvns	r3, r3
ARM GAS  /var/folders/l3/4y5292px21b4835bsnjwqc7w009kq1/T//ccaF8PhA.s 			page 97


 3779 0646 84F81C32 		strb	r3, [r4, #540]
 605:ROSSerial/ros/node_handle.h ****     message_out[6] = (uint8_t)((int16_t)id >> 8);
 3780              		.loc 7 605 0
 3781 064a 84F81D52 		strb	r5, [r4, #541]
 606:ROSSerial/ros/node_handle.h **** 
 3782              		.loc 7 606 0
 3783 064e 45F30725 		sbfx	r5, r5, #8, #8
 3784              	.LVL430:
 3785 0652 84F81E52 		strb	r5, [r4, #542]
 3786              	.LVL431:
 3787              	.LBB532:
 610:ROSSerial/ros/node_handle.h ****       chk += message_out[i];
 3788              		.loc 7 610 0
 3789 0656 0523     		movs	r3, #5
 3790              	.LBE532:
 609:ROSSerial/ros/node_handle.h ****     for (int i = 5; i < l + 7; i++)
 3791              		.loc 7 609 0
 3792 0658 0021     		movs	r1, #0
 3793              	.LVL432:
 3794              	.L193:
 3795              	.LBB533:
 610:ROSSerial/ros/node_handle.h ****       chk += message_out[i];
 3796              		.loc 7 610 0
 3797 065a C21D     		adds	r2, r0, #7
 3798 065c 9A42     		cmp	r2, r3
 3799 065e 65DD     		ble	.L192
 611:ROSSerial/ros/node_handle.h ****     l += 7;
 3800              		.loc 7 611 0
 3801 0660 704A     		ldr	r2, .L228
 3802 0662 1A44     		add	r2, r2, r3
 3803 0664 92F81822 		ldrb	r2, [r2, #536]	@ zero_extendqisi2
 3804 0668 1144     		add	r1, r1, r2
 3805              	.LVL433:
 610:ROSSerial/ros/node_handle.h ****       chk += message_out[i];
 3806              		.loc 7 610 0
 3807 066a 0133     		adds	r3, r3, #1
 3808              	.LVL434:
 3809 066c F5E7     		b	.L193
 3810              	.LVL435:
 3811              	.L220:
 3812              	.LBE533:
 3813              	.LBE531:
 3814              	.LBE530:
 3815              	.LBB555:
 3816              	.LBB527:
 3817              	.LBB501:
 3818              	.LBB502:
 3819              	.LBB503:
 3820              	.LBB504:
  14:ROSSerial/std_msgs/Time.h ****   {
 3821              		.loc 1 14 0
 3822 066e 714B     		ldr	r3, .L228+16
 3823 0670 0193     		str	r3, [sp, #4]
 3824              	.LVL436:
 3825              	.LBB505:
 3826              	.LBB506:
 3827              	.LBB507:
ARM GAS  /var/folders/l3/4y5292px21b4835bsnjwqc7w009kq1/T//ccaF8PhA.s 			page 98


 3828              		.loc 9 51 0
 3829 0672 0025     		movs	r5, #0
 3830 0674 0295     		str	r5, [sp, #8]
 3831 0676 0395     		str	r5, [sp, #12]
 3832              	.LVL437:
 3833              	.LBE507:
 3834              	.LBE506:
 3835              	.LBE505:
 3836              	.LBE504:
 3837              	.LBE503:
 3838              	.LBB508:
 3839              	.LBB509:
 597:ROSSerial/ros/node_handle.h **** 
 3840              		.loc 7 597 0
 3841 0678 6A4E     		ldr	r6, .L228
 3842 067a 1B68     		ldr	r3, [r3]
 3843 067c 06F21F21 		addw	r1, r6, #543
 3844 0680 01A8     		add	r0, sp, #4
 3845              	.LVL438:
 3846 0682 9847     		blx	r3
 3847              	.LVL439:
 600:ROSSerial/ros/node_handle.h ****     message_out[1] = PROTOCOL_VER;
 3848              		.loc 7 600 0
 3849 0684 FF23     		movs	r3, #255
 3850 0686 86F81832 		strb	r3, [r6, #536]
 601:ROSSerial/ros/node_handle.h ****     message_out[2] = (uint8_t)((uint16_t)l & 255);
 3851              		.loc 7 601 0
 3852 068a FE23     		movs	r3, #254
 3853 068c 86F81932 		strb	r3, [r6, #537]
 602:ROSSerial/ros/node_handle.h ****     message_out[3] = (uint8_t)((uint16_t)l >> 8);
 3854              		.loc 7 602 0
 3855 0690 C3B2     		uxtb	r3, r0
 3856 0692 86F81A32 		strb	r3, [r6, #538]
 603:ROSSerial/ros/node_handle.h ****     message_out[4] = 255 - ((message_out[2] + message_out[3]) % 256);
 3857              		.loc 7 603 0
 3858 0696 C0F30722 		ubfx	r2, r0, #8, #8
 3859 069a 86F81B22 		strb	r2, [r6, #539]
 604:ROSSerial/ros/node_handle.h ****     message_out[5] = (uint8_t)((int16_t)id & 255);
 3860              		.loc 7 604 0
 3861 069e 1344     		add	r3, r3, r2
 3862 06a0 DBB2     		uxtb	r3, r3
 3863 06a2 DB43     		mvns	r3, r3
 3864 06a4 86F81C32 		strb	r3, [r6, #540]
 605:ROSSerial/ros/node_handle.h ****     message_out[6] = (uint8_t)((int16_t)id >> 8);
 3865              		.loc 7 605 0
 3866 06a8 0A23     		movs	r3, #10
 3867 06aa 86F81D32 		strb	r3, [r6, #541]
 606:ROSSerial/ros/node_handle.h **** 
 3868              		.loc 7 606 0
 3869 06ae 86F81E52 		strb	r5, [r6, #542]
 3870              	.LVL440:
 3871              	.LBB510:
 610:ROSSerial/ros/node_handle.h ****       chk += message_out[i];
 3872              		.loc 7 610 0
 3873 06b2 0522     		movs	r2, #5
 3874              	.LBE510:
 609:ROSSerial/ros/node_handle.h ****     for (int i = 5; i < l + 7; i++)
ARM GAS  /var/folders/l3/4y5292px21b4835bsnjwqc7w009kq1/T//ccaF8PhA.s 			page 99


 3875              		.loc 7 609 0
 3876 06b4 2B46     		mov	r3, r5
 3877 06b6 05E0     		b	.L187
 3878              	.LVL441:
 3879              	.L221:
 3880              	.LBB511:
 611:ROSSerial/ros/node_handle.h ****     l += 7;
 3881              		.loc 7 611 0
 3882 06b8 5A49     		ldr	r1, .L228
 3883 06ba 1144     		add	r1, r1, r2
 3884 06bc 91F81812 		ldrb	r1, [r1, #536]	@ zero_extendqisi2
 3885 06c0 0B44     		add	r3, r3, r1
 3886              	.LVL442:
 610:ROSSerial/ros/node_handle.h ****       chk += message_out[i];
 3887              		.loc 7 610 0
 3888 06c2 0132     		adds	r2, r2, #1
 3889              	.LVL443:
 3890              	.L187:
 3891 06c4 C11D     		adds	r1, r0, #7
 3892 06c6 9142     		cmp	r1, r2
 3893 06c8 F6DC     		bgt	.L221
 3894              	.LVL444:
 3895              	.LBE511:
 613:ROSSerial/ros/node_handle.h ****     //printf("Sending message - %s, length %d\n",msg->getType(), l);
 3896              		.loc 7 613 0
 3897 06ca 5A42     		rsbs	r2, r3, #0
 3898              	.LVL445:
 3899 06cc DBB2     		uxtb	r3, r3
 3900              	.LVL446:
 3901 06ce D2B2     		uxtb	r2, r2
 3902 06d0 58BF     		it	pl
 3903 06d2 5342     		rsbpl	r3, r2, #0
 3904 06d4 00F10805 		add	r5, r0, #8
 3905              	.LVL447:
 3906 06d8 DB43     		mvns	r3, r3
 3907 06da 524A     		ldr	r2, .L228
 3908 06dc 1144     		add	r1, r1, r2
 3909 06de 81F81832 		strb	r3, [r1, #536]
 615:ROSSerial/ros/node_handle.h ****     {
 3910              		.loc 7 615 0
 3911 06e2 B5F5007F 		cmp	r5, #512
 3912 06e6 14DC     		bgt	.L188
 3913              	.LVL448:
 3914              	.LBB512:
 3915              	.LBB513:
 121:ROSSerial/AT32hardware.h **** 		if(ret == HAL_TIMEOUT)
 3916              		.loc 8 121 0
 3917 06e8 0A23     		movs	r3, #10
 3918 06ea AAB2     		uxth	r2, r5
 3919 06ec 5249     		ldr	r1, .L228+20
 3920 06ee 5348     		ldr	r0, .L228+24
 3921 06f0 FFF7FEFF 		bl	HAL_UART_Transmit
 3922              	.LVL449:
 122:ROSSerial/AT32hardware.h **** 		{
 3923              		.loc 8 122 0
 3924 06f4 0328     		cmp	r0, #3
 3925 06f6 06D0     		beq	.L222
ARM GAS  /var/folders/l3/4y5292px21b4835bsnjwqc7w009kq1/T//ccaF8PhA.s 			page 100


 3926              	.LVL450:
 3927              	.L189:
 3928              	.LBE513:
 3929              	.LBE512:
 3930              	.LBE509:
 3931              	.LBE508:
 3932              	.LBB522:
 3933              	.LBB523:
 3934              		.loc 8 151 0
 3935 06f8 FFF7FEFF 		bl	HAL_GetTick
 3936              	.LVL451:
 3937              	.LBE523:
 3938              	.LBE522:
 415:ROSSerial/ros/node_handle.h ****   }
 3939              		.loc 7 415 0
 3940 06fc 494B     		ldr	r3, .L228
 3941 06fe 9860     		str	r0, [r3, #8]
 3942              	.LVL452:
 3943              	.LBE502:
 3944              	.LBE501:
 394:ROSSerial/ros/node_handle.h ****     }
 3945              		.loc 7 394 0
 3946 0700 C3F82045 		str	r4, [r3, #1312]
 3947 0704 6EE7     		b	.L146
 3948              	.LVL453:
 3949              	.L222:
 3950              	.LBB526:
 3951              	.LBB525:
 3952              	.LBB524:
 3953              	.LBB521:
 3954              	.LBB515:
 3955              	.LBB514:
 124:ROSSerial/AT32hardware.h **** 		}
 3956              		.loc 8 124 0
 3957 0706 4C4A     		ldr	r2, .L228+20
 3958 0708 2946     		mov	r1, r5
 3959 070a 4D48     		ldr	r0, .L228+28
 3960              	.LVL454:
 3961 070c FFF7FEFF 		bl	printf
 3962              	.LVL455:
 3963 0710 F2E7     		b	.L189
 3964              	.LVL456:
 3965              	.L188:
 3966              	.LBE514:
 3967              	.LBE515:
 3968              	.LBB516:
 3969              	.LBB517:
 3970              	.LBB518:
 3971              	.LBB519:
 3972              	.LBB520:
  13:ROSSerial/rosserial_msgs/Log.h ****   {
 3973              		.loc 3 13 0
 3974 0712 4C4B     		ldr	r3, .L228+32
 3975 0714 0493     		str	r3, [sp, #16]
 3976              	.LVL457:
 3977              	.LBE520:
 3978              	.LBE519:
ARM GAS  /var/folders/l3/4y5292px21b4835bsnjwqc7w009kq1/T//ccaF8PhA.s 			page 101


 635:ROSSerial/ros/node_handle.h ****     l.msg = (char*)msg;
 3979              		.loc 7 635 0
 3980 0716 0323     		movs	r3, #3
 3981 0718 8DF81430 		strb	r3, [sp, #20]
 636:ROSSerial/ros/node_handle.h ****     publish1(rosserial_msgs::TopicInfo::ID_LOG, &l);
 3982              		.loc 7 636 0
 3983 071c 4A4B     		ldr	r3, .L228+36
 3984 071e 0693     		str	r3, [sp, #24]
 3985              		.loc 7 637 0
 3986 0720 04AA     		add	r2, sp, #16
 3987 0722 0721     		movs	r1, #7
 3988 0724 3F48     		ldr	r0, .L228
 3989 0726 FFF7FEFF 		bl	_ZN3ros11NodeHandle_I13STM32HardwareLi5ELi5ELi512ELi512EE8publish1EiPNS_3MsgE
 3990              	.LVL458:
 3991 072a E5E7     		b	.L189
 3992              	.LVL459:
 3993              	.L192:
 3994              	.LBE518:
 3995              	.LBE517:
 3996              	.LBE516:
 3997              	.LBE521:
 3998              	.LBE524:
 3999              	.LBE525:
 4000              	.LBE526:
 4001              	.LBE527:
 4002              	.LBE555:
 4003              	.LBB556:
 4004              	.LBB553:
 613:ROSSerial/ros/node_handle.h ****     //printf("Sending message - %s, length %d\n",msg->getType(), l);
 4005              		.loc 7 613 0
 4006 072c 4B42     		rsbs	r3, r1, #0
 4007              	.LVL460:
 4008 072e C9B2     		uxtb	r1, r1
 4009              	.LVL461:
 4010 0730 DBB2     		uxtb	r3, r3
 4011 0732 58BF     		it	pl
 4012 0734 5942     		rsbpl	r1, r3, #0
 4013 0736 00F10804 		add	r4, r0, #8
 4014              	.LVL462:
 4015 073a C943     		mvns	r1, r1
 4016 073c 394B     		ldr	r3, .L228
 4017 073e 1A44     		add	r2, r2, r3
 4018 0740 82F81812 		strb	r1, [r2, #536]
 615:ROSSerial/ros/node_handle.h ****     {
 4019              		.loc 7 615 0
 4020 0744 B4F5007F 		cmp	r4, #512
 4021 0748 11DC     		bgt	.L194
 4022              	.LVL463:
 4023              	.LBB534:
 4024              	.LBB535:
 121:ROSSerial/AT32hardware.h **** 		if(ret == HAL_TIMEOUT)
 4025              		.loc 8 121 0
 4026 074a 0A23     		movs	r3, #10
 4027 074c A2B2     		uxth	r2, r4
 4028 074e 3A49     		ldr	r1, .L228+20
 4029 0750 3A48     		ldr	r0, .L228+24
 4030 0752 FFF7FEFF 		bl	HAL_UART_Transmit
ARM GAS  /var/folders/l3/4y5292px21b4835bsnjwqc7w009kq1/T//ccaF8PhA.s 			page 102


 4031              	.LVL464:
 122:ROSSerial/AT32hardware.h **** 		{
 4032              		.loc 8 122 0
 4033 0756 0328     		cmp	r0, #3
 4034 0758 03D0     		beq	.L223
 4035              	.LVL465:
 4036              	.L141:
 4037              	.LBE535:
 4038              	.LBE534:
 4039              	.LBE553:
 4040              	.LBE556:
 4041              		.loc 6 49 0
 4042 075a 0DF50C7D 		add	sp, sp, #560
 4043              	.LCFI28:
 4044              		.cfi_remember_state
 4045              		.cfi_def_cfa_offset 24
 4046              		@ sp needed
 4047 075e BDE8F081 		pop	{r4, r5, r6, r7, r8, pc}
 4048              	.LVL466:
 4049              	.L223:
 4050              	.LCFI29:
 4051              		.cfi_restore_state
 4052              	.LBB557:
 4053              	.LBB554:
 4054              	.LBB537:
 4055              	.LBB536:
 124:ROSSerial/AT32hardware.h **** 		}
 4056              		.loc 8 124 0
 4057 0762 354A     		ldr	r2, .L228+20
 4058 0764 2146     		mov	r1, r4
 4059 0766 3648     		ldr	r0, .L228+28
 4060              	.LVL467:
 4061 0768 FFF7FEFF 		bl	printf
 4062              	.LVL468:
 4063 076c F5E7     		b	.L141
 4064              	.LVL469:
 4065              	.L194:
 4066              	.LBE536:
 4067              	.LBE537:
 4068              	.LBB538:
 4069              	.LBB539:
 4070              	.LBB540:
 4071              	.LBB541:
 4072              	.LBB542:
  13:ROSSerial/rosserial_msgs/Log.h ****   {
 4073              		.loc 3 13 0
 4074 076e 354B     		ldr	r3, .L228+32
 4075 0770 0193     		str	r3, [sp, #4]
 4076              	.LVL470:
 4077              	.LBE542:
 4078              	.LBE541:
 635:ROSSerial/ros/node_handle.h ****     l.msg = (char*)msg;
 4079              		.loc 7 635 0
 4080 0772 0322     		movs	r2, #3
 4081 0774 8DF80820 		strb	r2, [sp, #8]
 636:ROSSerial/ros/node_handle.h ****     publish1(rosserial_msgs::TopicInfo::ID_LOG, &l);
 4082              		.loc 7 636 0
ARM GAS  /var/folders/l3/4y5292px21b4835bsnjwqc7w009kq1/T//ccaF8PhA.s 			page 103


 4083 0778 334A     		ldr	r2, .L228+36
 4084 077a 0392     		str	r2, [sp, #12]
 4085              	.LVL471:
 4086              	.LBB543:
 4087              	.LBB544:
 597:ROSSerial/ros/node_handle.h **** 
 4088              		.loc 7 597 0
 4089 077c 294D     		ldr	r5, .L228
 4090 077e 1B68     		ldr	r3, [r3]
 4091 0780 05F21F21 		addw	r1, r5, #543
 4092 0784 01A8     		add	r0, sp, #4
 4093              	.LVL472:
 4094 0786 9847     		blx	r3
 4095              	.LVL473:
 600:ROSSerial/ros/node_handle.h ****     message_out[1] = PROTOCOL_VER;
 4096              		.loc 7 600 0
 4097 0788 FF23     		movs	r3, #255
 4098 078a 85F81832 		strb	r3, [r5, #536]
 601:ROSSerial/ros/node_handle.h ****     message_out[2] = (uint8_t)((uint16_t)l & 255);
 4099              		.loc 7 601 0
 4100 078e FE23     		movs	r3, #254
 4101 0790 85F81932 		strb	r3, [r5, #537]
 602:ROSSerial/ros/node_handle.h ****     message_out[3] = (uint8_t)((uint16_t)l >> 8);
 4102              		.loc 7 602 0
 4103 0794 C3B2     		uxtb	r3, r0
 4104 0796 85F81A32 		strb	r3, [r5, #538]
 603:ROSSerial/ros/node_handle.h ****     message_out[4] = 255 - ((message_out[2] + message_out[3]) % 256);
 4105              		.loc 7 603 0
 4106 079a C0F30722 		ubfx	r2, r0, #8, #8
 4107 079e 85F81B22 		strb	r2, [r5, #539]
 604:ROSSerial/ros/node_handle.h ****     message_out[5] = (uint8_t)((int16_t)id & 255);
 4108              		.loc 7 604 0
 4109 07a2 1344     		add	r3, r3, r2
 4110 07a4 DBB2     		uxtb	r3, r3
 4111 07a6 DB43     		mvns	r3, r3
 4112 07a8 85F81C32 		strb	r3, [r5, #540]
 605:ROSSerial/ros/node_handle.h ****     message_out[6] = (uint8_t)((int16_t)id >> 8);
 4113              		.loc 7 605 0
 4114 07ac 0723     		movs	r3, #7
 4115 07ae 85F81D32 		strb	r3, [r5, #541]
 606:ROSSerial/ros/node_handle.h **** 
 4116              		.loc 7 606 0
 4117 07b2 0023     		movs	r3, #0
 4118 07b4 85F81E32 		strb	r3, [r5, #542]
 4119              	.LVL474:
 4120              	.LBB545:
 610:ROSSerial/ros/node_handle.h ****       chk += message_out[i];
 4121              		.loc 7 610 0
 4122 07b8 0522     		movs	r2, #5
 4123              	.LVL475:
 4124              	.L196:
 4125 07ba C11D     		adds	r1, r0, #7
 4126 07bc 9142     		cmp	r1, r2
 4127 07be 06DD     		ble	.L195
 611:ROSSerial/ros/node_handle.h ****     l += 7;
 4128              		.loc 7 611 0
 4129 07c0 1849     		ldr	r1, .L228
ARM GAS  /var/folders/l3/4y5292px21b4835bsnjwqc7w009kq1/T//ccaF8PhA.s 			page 104


 4130 07c2 1144     		add	r1, r1, r2
 4131 07c4 91F81812 		ldrb	r1, [r1, #536]	@ zero_extendqisi2
 4132 07c8 0B44     		add	r3, r3, r1
 4133              	.LVL476:
 610:ROSSerial/ros/node_handle.h ****       chk += message_out[i];
 4134              		.loc 7 610 0
 4135 07ca 0132     		adds	r2, r2, #1
 4136              	.LVL477:
 4137 07cc F5E7     		b	.L196
 4138              	.L195:
 4139              	.LVL478:
 4140              	.LBE545:
 613:ROSSerial/ros/node_handle.h ****     //printf("Sending message - %s, length %d\n",msg->getType(), l);
 4141              		.loc 7 613 0
 4142 07ce 5A42     		rsbs	r2, r3, #0
 4143              	.LVL479:
 4144 07d0 DBB2     		uxtb	r3, r3
 4145              	.LVL480:
 4146 07d2 D2B2     		uxtb	r2, r2
 4147 07d4 58BF     		it	pl
 4148 07d6 5342     		rsbpl	r3, r2, #0
 4149 07d8 00F10804 		add	r4, r0, #8
 4150              	.LVL481:
 4151 07dc DB43     		mvns	r3, r3
 4152 07de 114A     		ldr	r2, .L228
 4153 07e0 1144     		add	r1, r1, r2
 4154 07e2 81F81832 		strb	r3, [r1, #536]
 615:ROSSerial/ros/node_handle.h ****     {
 4155              		.loc 7 615 0
 4156 07e6 B4F5007F 		cmp	r4, #512
 4157 07ea 0DDC     		bgt	.L197
 4158              	.LVL482:
 4159              	.LBB546:
 4160              	.LBB547:
 121:ROSSerial/AT32hardware.h **** 		if(ret == HAL_TIMEOUT)
 4161              		.loc 8 121 0
 4162 07ec 0A23     		movs	r3, #10
 4163 07ee A2B2     		uxth	r2, r4
 4164 07f0 1149     		ldr	r1, .L228+20
 4165 07f2 1248     		ldr	r0, .L228+24
 4166 07f4 FFF7FEFF 		bl	HAL_UART_Transmit
 4167              	.LVL483:
 122:ROSSerial/AT32hardware.h **** 		{
 4168              		.loc 8 122 0
 4169 07f8 0328     		cmp	r0, #3
 4170 07fa AED1     		bne	.L141
 124:ROSSerial/AT32hardware.h **** 		}
 4171              		.loc 8 124 0
 4172 07fc 0E4A     		ldr	r2, .L228+20
 4173 07fe 2146     		mov	r1, r4
 4174 0800 0F48     		ldr	r0, .L228+28
 4175              	.LVL484:
 4176 0802 FFF7FEFF 		bl	printf
 4177              	.LVL485:
 4178 0806 A8E7     		b	.L141
 4179              	.LVL486:
 4180              	.L197:
ARM GAS  /var/folders/l3/4y5292px21b4835bsnjwqc7w009kq1/T//ccaF8PhA.s 			page 105


 4181              	.LBE547:
 4182              	.LBE546:
 4183              	.LBB548:
 4184              	.LBB549:
 4185              	.LBB550:
 4186              	.LBB551:
 4187              	.LBB552:
  13:ROSSerial/rosserial_msgs/Log.h ****   {
 4188              		.loc 3 13 0
 4189 0808 0E4B     		ldr	r3, .L228+32
 4190 080a 0493     		str	r3, [sp, #16]
 4191              	.LVL487:
 4192              	.LBE552:
 4193              	.LBE551:
 635:ROSSerial/ros/node_handle.h ****     l.msg = (char*)msg;
 4194              		.loc 7 635 0
 4195 080c 0323     		movs	r3, #3
 4196 080e 8DF81430 		strb	r3, [sp, #20]
 636:ROSSerial/ros/node_handle.h ****     publish1(rosserial_msgs::TopicInfo::ID_LOG, &l);
 4197              		.loc 7 636 0
 4198 0812 0D4B     		ldr	r3, .L228+36
 4199 0814 0693     		str	r3, [sp, #24]
 4200              		.loc 7 637 0
 4201 0816 04AA     		add	r2, sp, #16
 4202 0818 0721     		movs	r1, #7
 4203 081a 0248     		ldr	r0, .L228
 4204 081c FFF7FEFF 		bl	_ZN3ros11NodeHandle_I13STM32HardwareLi5ELi5ELi512ELi512EE8publish1EiPNS_3MsgE
 4205              	.LVL488:
 4206              	.LBE550:
 4207              	.LBE549:
 4208              	.LBE548:
 4209              	.LBE544:
 4210              	.LBE543:
 4211              	.LBE540:
 4212              	.LBE539:
 4213              	.LBE538:
 4214              	.LBE554:
 4215              	.LBE557:
 4216              		.loc 6 49 0
 4217 0820 9BE7     		b	.L141
 4218              	.L229:
 4219 0822 00BF     		.align	2
 4220              	.L228:
 4221 0824 00000000 		.word	.LANCHOR1
 4222 0828 08000000 		.word	_ZTVN8std_msgs6StringE+8
 4223 082c 00000000 		.word	.LC13
 4224 0830 00000000 		.word	.LANCHOR2
 4225 0834 08000000 		.word	_ZTVN8std_msgs4TimeE+8
 4226 0838 18020000 		.word	.LANCHOR1+536
 4227 083c 00000000 		.word	huart2
 4228 0840 00000000 		.word	.LC11
 4229 0844 08000000 		.word	_ZTVN14rosserial_msgs3LogE+8
 4230 0848 14000000 		.word	.LC12
 4231              		.cfi_endproc
 4232              	.LFE481:
 4233              		.fnend
 4235              		.section	.text._ZN3ros11NodeHandle_I13STM32HardwareLi5ELi5ELi512ELi512EE8spinOnceEv,"axG",%progbit
ARM GAS  /var/folders/l3/4y5292px21b4835bsnjwqc7w009kq1/T//ccaF8PhA.s 			page 106


 4236              		.align	1
 4237              		.weak	_ZN3ros11NodeHandle_I13STM32HardwareLi5ELi5ELi512ELi512EE8spinOnceEv
 4238              		.syntax unified
 4239              		.thumb
 4240              		.thumb_func
 4241              		.fpu fpv4-sp-d16
 4243              	_ZN3ros11NodeHandle_I13STM32HardwareLi5ELi5ELi512ELi512EE8spinOnceEv:
 4244              		.fnstart
 4245              	.LFB512:
 238:ROSSerial/ros/node_handle.h ****     return spinOnce1();
 4246              		.loc 7 238 0
 4247              		.cfi_startproc
 4248              		@ args = 0, pretend = 0, frame = 40
 4249              		@ frame_needed = 0, uses_anonymous_args = 0
 4250              	.LVL489:
 4251 0000 2DE9F043 		push	{r4, r5, r6, r7, r8, r9, lr}
 4252              		.save {r4, r5, r6, r7, r8, r9, lr}
 4253              	.LCFI30:
 4254              		.cfi_def_cfa_offset 28
 4255              		.cfi_offset 4, -28
 4256              		.cfi_offset 5, -24
 4257              		.cfi_offset 6, -20
 4258              		.cfi_offset 7, -16
 4259              		.cfi_offset 8, -12
 4260              		.cfi_offset 9, -8
 4261              		.cfi_offset 14, -4
 4262              		.pad #44
 4263 0004 8BB0     		sub	sp, sp, #44
 4264              	.LCFI31:
 4265              		.cfi_def_cfa_offset 72
 4266 0006 0446     		mov	r4, r0
 4267              	.LVL490:
 4268              	.LBB643:
 4269              	.LBB644:
 4270              	.LBB645:
 4271              	.LBB646:
 4272              		.loc 8 151 0
 4273 0008 FFF7FEFF 		bl	HAL_GetTick
 4274              	.LVL491:
 4275 000c 0546     		mov	r5, r0
 4276              	.LVL492:
 4277              	.LBE646:
 4278              	.LBE645:
 252:ROSSerial/ros/node_handle.h ****     {
 4279              		.loc 7 252 0
 4280 000e D4F82435 		ldr	r3, [r4, #1316]
 4281 0012 C31A     		subs	r3, r0, r3
 4282 0014 42F6F822 		movw	r2, #11000
 4283 0018 9342     		cmp	r3, r2
 4284 001a 02D9     		bls	.L231
 254:ROSSerial/ros/node_handle.h ****     }
 4285              		.loc 7 254 0
 4286 001c 0023     		movs	r3, #0
 4287 001e 84F81C35 		strb	r3, [r4, #1308]
 4288              	.L231:
 258:ROSSerial/ros/node_handle.h ****     {
 4289              		.loc 7 258 0
ARM GAS  /var/folders/l3/4y5292px21b4835bsnjwqc7w009kq1/T//ccaF8PhA.s 			page 107


 4290 0022 D4F80835 		ldr	r3, [r4, #1288]
 4291 0026 002B     		cmp	r3, #0
 4292 0028 46D0     		beq	.L233
 260:ROSSerial/ros/node_handle.h ****       {
 4293              		.loc 7 260 0
 4294 002a D4F82835 		ldr	r3, [r4, #1320]
 4295 002e 9D42     		cmp	r5, r3
 4296 0030 42D9     		bls	.L233
 262:ROSSerial/ros/node_handle.h ****       }
 4297              		.loc 7 262 0
 4298 0032 0023     		movs	r3, #0
 4299 0034 C4F80835 		str	r3, [r4, #1288]
 4300 0038 3EE0     		b	.L233
 4301              	.LVL493:
 4302              	.L285:
 4303              	.LBB647:
 4304              	.LBB648:
 4305              	.LBB649:
  84:ROSSerial/AT32hardware.h **** 		}
 4306              		.loc 8 84 0
 4307 003a 591C     		adds	r1, r3, #1
 4308 003c B74A     		ldr	r2, .L306
 4309 003e 1170     		strb	r1, [r2]
 4310 0040 B74A     		ldr	r2, .L306+4
 4311 0042 D15C     		ldrb	r1, [r2, r3]	@ zero_extendqisi2
 4312              	.LVL494:
 4313              	.L237:
 4314              	.LBE649:
 4315              	.LBE648:
 283:ROSSerial/ros/node_handle.h ****         break;
 4316              		.loc 7 283 0
 4317 0044 0029     		cmp	r1, #0
 4318 0046 C0F28A82 		blt	.L238
 285:ROSSerial/ros/node_handle.h ****       if (mode_ == MODE_MESSAGE)          /* message data being recieved */
 4319              		.loc 7 285 0
 4320 004a D4F81825 		ldr	r2, [r4, #1304]
 4321 004e 0A44     		add	r2, r2, r1
 4322 0050 C4F81825 		str	r2, [r4, #1304]
 286:ROSSerial/ros/node_handle.h ****       {
 4323              		.loc 7 286 0
 4324 0054 D4F80835 		ldr	r3, [r4, #1288]
 4325 0058 072B     		cmp	r3, #7
 4326 005a 1DD0     		beq	.L284
 293:ROSSerial/ros/node_handle.h ****       {
 4327              		.loc 7 293 0
 4328 005c 002B     		cmp	r3, #0
 4329 005e 4CD1     		bne	.L241
 295:ROSSerial/ros/node_handle.h ****         {
 4330              		.loc 7 295 0
 4331 0060 FF29     		cmp	r1, #255
 4332 0062 3DD1     		bne	.L242
 297:ROSSerial/ros/node_handle.h ****           last_msg_timeout_time = c_time + SERIAL_MSG_TIMEOUT;
 4333              		.loc 7 297 0
 4334 0064 0133     		adds	r3, r3, #1
 4335 0066 C4F80835 		str	r3, [r4, #1288]
 298:ROSSerial/ros/node_handle.h ****         }
 4336              		.loc 7 298 0
ARM GAS  /var/folders/l3/4y5292px21b4835bsnjwqc7w009kq1/T//ccaF8PhA.s 			page 108


 4337 006a 05F11403 		add	r3, r5, #20
 4338 006e C4F82835 		str	r3, [r4, #1320]
 4339 0072 21E0     		b	.L233
 4340              	.LVL495:
 4341              	.L286:
 4342              	.LBB652:
 4343              	.LBB650:
  88:ROSSerial/AT32hardware.h **** 			g_RxWritten = 0;
 4344              		.loc 8 88 0
 4345 0074 0023     		movs	r3, #0
 4346 0076 A94A     		ldr	r2, .L306
 4347 0078 1370     		strb	r3, [r2]
  89:ROSSerial/AT32hardware.h **** 			__HAL_UART_ENABLE_IT(&huart2, UART_IT_TC);
 4348              		.loc 8 89 0
 4349 007a AA4A     		ldr	r2, .L306+8
 4350 007c 1370     		strb	r3, [r2]
  90:ROSSerial/AT32hardware.h ****       		HAL_UART_Receive_IT(&huart2, &byte, 1);
 4351              		.loc 8 90 0
 4352 007e AA48     		ldr	r0, .L306+12
 4353 0080 0268     		ldr	r2, [r0]
 4354 0082 D368     		ldr	r3, [r2, #12]
 4355 0084 43F04003 		orr	r3, r3, #64
 4356 0088 D360     		str	r3, [r2, #12]
  91:ROSSerial/AT32hardware.h **** 		}
 4357              		.loc 8 91 0
 4358 008a 0122     		movs	r2, #1
 4359 008c A749     		ldr	r1, .L306+16
 4360 008e FFF7FEFF 		bl	HAL_UART_Receive_IT
 4361              	.LVL496:
  80:ROSSerial/AT32hardware.h **** 		
 4362              		.loc 8 80 0
 4363 0092 4FF0FF31 		mov	r1, #-1
 4364 0096 D5E7     		b	.L237
 4365              	.LVL497:
 4366              	.L284:
 4367              	.LBE650:
 4368              	.LBE652:
 288:ROSSerial/ros/node_handle.h ****         bytes_--;
 4369              		.loc 7 288 0
 4370 0098 D4F81435 		ldr	r3, [r4, #1300]
 4371 009c 5A1C     		adds	r2, r3, #1
 4372 009e C4F81425 		str	r2, [r4, #1300]
 4373 00a2 2344     		add	r3, r3, r4
 4374 00a4 1976     		strb	r1, [r3, #24]
 289:ROSSerial/ros/node_handle.h ****         if (bytes_ == 0)                 /* is message complete? if so, checksum */
 4375              		.loc 7 289 0
 4376 00a6 D4F80C35 		ldr	r3, [r4, #1292]
 4377 00aa 013B     		subs	r3, r3, #1
 4378 00ac C4F80C35 		str	r3, [r4, #1292]
 290:ROSSerial/ros/node_handle.h ****           mode_ = MODE_MSG_CHECKSUM;
 4379              		.loc 7 290 0
 4380 00b0 13B9     		cbnz	r3, .L233
 291:ROSSerial/ros/node_handle.h ****       }
 4381              		.loc 7 291 0
 4382 00b2 0823     		movs	r3, #8
 4383 00b4 C4F80835 		str	r3, [r4, #1288]
 4384              	.L233:
ARM GAS  /var/folders/l3/4y5292px21b4835bsnjwqc7w009kq1/T//ccaF8PhA.s 			page 109


 270:ROSSerial/ros/node_handle.h ****       {
 4385              		.loc 7 270 0
 4386 00b8 6369     		ldr	r3, [r4, #20]
 4387 00ba 33B1     		cbz	r3, .L234
 4388              	.LVL498:
 4389              	.LBB653:
 4390              	.LBB654:
 4391              		.loc 8 151 0
 4392 00bc FFF7FEFF 		bl	HAL_GetTick
 4393              	.LVL499:
 4394              	.LBE654:
 4395              	.LBE653:
 276:ROSSerial/ros/node_handle.h ****         {
 4396              		.loc 7 276 0
 4397 00c0 401B     		subs	r0, r0, r5
 4398 00c2 6369     		ldr	r3, [r4, #20]
 4399 00c4 9842     		cmp	r0, r3
 4400 00c6 00F2B582 		bhi	.L279
 4401              	.L234:
 4402              	.LVL500:
 4403              	.LBB655:
 4404              	.LBB651:
  82:ROSSerial/AT32hardware.h **** 		{
 4405              		.loc 8 82 0
 4406 00ca 944B     		ldr	r3, .L306
 4407 00cc 1B78     		ldrb	r3, [r3]	@ zero_extendqisi2
 4408 00ce 954A     		ldr	r2, .L306+8
 4409 00d0 1278     		ldrb	r2, [r2]	@ zero_extendqisi2
 4410 00d2 9342     		cmp	r3, r2
 4411 00d4 B1D3     		bcc	.L285
  86:ROSSerial/AT32hardware.h **** 		{
 4412              		.loc 8 86 0
 4413 00d6 9342     		cmp	r3, r2
 4414 00d8 CCD0     		beq	.L286
  80:ROSSerial/AT32hardware.h **** 		
 4415              		.loc 8 80 0
 4416 00da 4FF0FF31 		mov	r1, #-1
 4417 00de B1E7     		b	.L237
 4418              	.LVL501:
 4419              	.L242:
 4420              	.LBE651:
 4421              	.LBE655:
 4422              	.LBB656:
 4423              	.LBB657:
 4424              		.loc 8 151 0
 4425 00e0 FFF7FEFF 		bl	HAL_GetTick
 4426              	.LVL502:
 4427              	.LBE657:
 4428              	.LBE656:
 300:ROSSerial/ros/node_handle.h ****         {
 4429              		.loc 7 300 0
 4430 00e4 401B     		subs	r0, r0, r5
 4431 00e6 41F28833 		movw	r3, #5000
 4432 00ea 9842     		cmp	r0, r3
 4433 00ec E4D9     		bls	.L233
 303:ROSSerial/ros/node_handle.h ****           return SPIN_TIMEOUT;
 4434              		.loc 7 303 0
ARM GAS  /var/folders/l3/4y5292px21b4835bsnjwqc7w009kq1/T//ccaF8PhA.s 			page 110


 4435 00ee 0023     		movs	r3, #0
 4436 00f0 84F81C35 		strb	r3, [r4, #1308]
 304:ROSSerial/ros/node_handle.h ****         }
 4437              		.loc 7 304 0
 4438 00f4 6FF00100 		mvn	r0, #1
 4439 00f8 9EE2     		b	.L230
 4440              	.L241:
 307:ROSSerial/ros/node_handle.h ****       {
 4441              		.loc 7 307 0
 4442 00fa 012B     		cmp	r3, #1
 4443 00fc 3DD0     		beq	.L287
 320:ROSSerial/ros/node_handle.h ****       {
 4444              		.loc 7 320 0
 4445 00fe 022B     		cmp	r3, #2
 4446 0100 00F0A380 		beq	.L288
 327:ROSSerial/ros/node_handle.h ****       {
 4447              		.loc 7 327 0
 4448 0104 032B     		cmp	r3, #3
 4449 0106 00F0AB80 		beq	.L289
 332:ROSSerial/ros/node_handle.h ****       {
 4450              		.loc 7 332 0
 4451 010a 042B     		cmp	r3, #4
 4452 010c 00F0B280 		beq	.L290
 339:ROSSerial/ros/node_handle.h ****       {
 4453              		.loc 7 339 0
 4454 0110 052B     		cmp	r3, #5
 4455 0112 00F0BE80 		beq	.L291
 345:ROSSerial/ros/node_handle.h ****       {
 4456              		.loc 7 345 0
 4457 0116 062B     		cmp	r3, #6
 4458 0118 00F0C380 		beq	.L292
 352:ROSSerial/ros/node_handle.h ****       {
 4459              		.loc 7 352 0
 4460 011c 082B     		cmp	r3, #8
 4461 011e CBD1     		bne	.L233
 354:ROSSerial/ros/node_handle.h ****         if ((checksum_ % 256) == 255)
 4462              		.loc 7 354 0
 4463 0120 0023     		movs	r3, #0
 4464 0122 C4F80835 		str	r3, [r4, #1288]
 355:ROSSerial/ros/node_handle.h ****         {
 4465              		.loc 7 355 0
 4466 0126 9B1A     		subs	r3, r3, r2
 4467 0128 D2B2     		uxtb	r2, r2
 4468 012a DBB2     		uxtb	r3, r3
 4469 012c 58BF     		it	pl
 4470 012e 5A42     		rsbpl	r2, r3, #0
 4471 0130 FF2A     		cmp	r2, #255
 4472 0132 C1D1     		bne	.L233
 357:ROSSerial/ros/node_handle.h ****           {
 4473              		.loc 7 357 0
 4474 0134 D4F81065 		ldr	r6, [r4, #1296]
 4475 0138 002E     		cmp	r6, #0
 4476 013a 00F0C480 		beq	.L293
 365:ROSSerial/ros/node_handle.h ****           {
 4477              		.loc 7 365 0
 4478 013e 0A2E     		cmp	r6, #10
 4479 0140 00F02F81 		beq	.L294
ARM GAS  /var/folders/l3/4y5292px21b4835bsnjwqc7w009kq1/T//ccaF8PhA.s 			page 111


 369:ROSSerial/ros/node_handle.h ****           {
 4480              		.loc 7 369 0
 4481 0144 062E     		cmp	r6, #6
 4482 0146 00F07181 		beq	.L295
 374:ROSSerial/ros/node_handle.h ****           {
 4483              		.loc 7 374 0
 4484 014a 0B2E     		cmp	r6, #11
 4485 014c 00F00382 		beq	.L296
 380:ROSSerial/ros/node_handle.h ****               s_CallBack = (void (*)(char*))subscribers2[topic_ - 100].callback;
 4486              		.loc 7 380 0
 4487 0150 643E     		subs	r6, r6, #100
 4488 0152 06EB8603 		add	r3, r6, r6, lsl #2
 4489 0156 04EB8303 		add	r3, r4, r3, lsl #2
 4490 015a B3F8A434 		ldrh	r3, [r3, #1188]
 4491 015e 002B     		cmp	r3, #0
 4492 0160 AAD0     		beq	.L233
 381:ROSSerial/ros/node_handle.h ****               //printf("Calling callback with %id\n",subscribers2[topic_ - 100].topic_id);
 4493              		.loc 7 381 0
 4494 0162 06EB8606 		add	r6, r6, r6, lsl #2
 4495 0166 04EB8606 		add	r6, r4, r6, lsl #2
 4496 016a D6F8B434 		ldr	r3, [r6, #1204]
 4497 016e 704A     		ldr	r2, .L306+20
 4498 0170 1360     		str	r3, [r2]
 383:ROSSerial/ros/node_handle.h ****             }
 4499              		.loc 7 383 0
 4500 0172 04F11800 		add	r0, r4, #24
 4501 0176 9847     		blx	r3
 4502              	.LVL503:
 4503 0178 9EE7     		b	.L233
 4504              	.L287:
 309:ROSSerial/ros/node_handle.h ****         {
 4505              		.loc 7 309 0
 4506 017a FE29     		cmp	r1, #254
 4507 017c 32D0     		beq	.L297
 315:ROSSerial/ros/node_handle.h ****           if (configured_ == false)
 4508              		.loc 7 315 0
 4509 017e 0023     		movs	r3, #0
 4510 0180 C4F80835 		str	r3, [r4, #1288]
 316:ROSSerial/ros/node_handle.h ****             requestSyncTime();  /* send a msg back showing our protocol version */
 4511              		.loc 7 316 0
 4512 0184 94F81C35 		ldrb	r3, [r4, #1308]	@ zero_extendqisi2
 4513 0188 002B     		cmp	r3, #0
 4514 018a 95D1     		bne	.L233
 4515              	.LVL504:
 4516              	.LBB658:
 4517              	.LBB659:
 4518              	.LBB660:
 4519              	.LBB661:
  14:ROSSerial/std_msgs/Time.h ****   {
 4520              		.loc 1 14 0
 4521 018c 694B     		ldr	r3, .L306+24
 4522 018e 0193     		str	r3, [sp, #4]
 4523              	.LVL505:
 4524              	.LBB662:
 4525              	.LBB663:
 4526              	.LBB664:
 4527              		.loc 9 51 0
ARM GAS  /var/folders/l3/4y5292px21b4835bsnjwqc7w009kq1/T//ccaF8PhA.s 			page 112


 4528 0190 0026     		movs	r6, #0
 4529 0192 0296     		str	r6, [sp, #8]
 4530 0194 0396     		str	r6, [sp, #12]
 4531              	.LVL506:
 4532              	.LBE664:
 4533              	.LBE663:
 4534              	.LBE662:
 4535              	.LBE661:
 4536              	.LBE660:
 4537              	.LBB665:
 4538              	.LBB666:
 597:ROSSerial/ros/node_handle.h **** 
 4539              		.loc 7 597 0
 4540 0196 1B68     		ldr	r3, [r3]
 4541 0198 04F21F21 		addw	r1, r4, #543
 4542 019c 01A8     		add	r0, sp, #4
 4543              	.LVL507:
 4544 019e 9847     		blx	r3
 4545              	.LVL508:
 600:ROSSerial/ros/node_handle.h ****     message_out[1] = PROTOCOL_VER;
 4546              		.loc 7 600 0
 4547 01a0 FF23     		movs	r3, #255
 4548 01a2 84F81832 		strb	r3, [r4, #536]
 601:ROSSerial/ros/node_handle.h ****     message_out[2] = (uint8_t)((uint16_t)l & 255);
 4549              		.loc 7 601 0
 4550 01a6 FE23     		movs	r3, #254
 4551 01a8 84F81932 		strb	r3, [r4, #537]
 602:ROSSerial/ros/node_handle.h ****     message_out[3] = (uint8_t)((uint16_t)l >> 8);
 4552              		.loc 7 602 0
 4553 01ac C3B2     		uxtb	r3, r0
 4554 01ae 84F81A32 		strb	r3, [r4, #538]
 603:ROSSerial/ros/node_handle.h ****     message_out[4] = 255 - ((message_out[2] + message_out[3]) % 256);
 4555              		.loc 7 603 0
 4556 01b2 C0F30722 		ubfx	r2, r0, #8, #8
 4557 01b6 84F81B22 		strb	r2, [r4, #539]
 604:ROSSerial/ros/node_handle.h ****     message_out[5] = (uint8_t)((int16_t)id & 255);
 4558              		.loc 7 604 0
 4559 01ba 1344     		add	r3, r3, r2
 4560 01bc DBB2     		uxtb	r3, r3
 4561 01be DB43     		mvns	r3, r3
 4562 01c0 84F81C32 		strb	r3, [r4, #540]
 605:ROSSerial/ros/node_handle.h ****     message_out[6] = (uint8_t)((int16_t)id >> 8);
 4563              		.loc 7 605 0
 4564 01c4 0A23     		movs	r3, #10
 4565 01c6 84F81D32 		strb	r3, [r4, #541]
 606:ROSSerial/ros/node_handle.h **** 
 4566              		.loc 7 606 0
 4567 01ca 84F81E62 		strb	r6, [r4, #542]
 4568              	.LVL509:
 4569              	.LBB667:
 610:ROSSerial/ros/node_handle.h ****       chk += message_out[i];
 4570              		.loc 7 610 0
 4571 01ce 0522     		movs	r2, #5
 4572              	.LBE667:
 609:ROSSerial/ros/node_handle.h ****     for (int i = 5; i < l + 7; i++)
 4573              		.loc 7 609 0
 4574 01d0 3346     		mov	r3, r6
ARM GAS  /var/folders/l3/4y5292px21b4835bsnjwqc7w009kq1/T//ccaF8PhA.s 			page 113


 4575              	.LVL510:
 4576              	.L246:
 4577              	.LBB668:
 610:ROSSerial/ros/node_handle.h ****       chk += message_out[i];
 4578              		.loc 7 610 0
 4579 01d2 C11D     		adds	r1, r0, #7
 4580 01d4 9142     		cmp	r1, r2
 4581 01d6 09DD     		ble	.L245
 611:ROSSerial/ros/node_handle.h ****     l += 7;
 4582              		.loc 7 611 0
 4583 01d8 A118     		adds	r1, r4, r2
 4584 01da 91F81812 		ldrb	r1, [r1, #536]	@ zero_extendqisi2
 4585 01de 0B44     		add	r3, r3, r1
 4586              	.LVL511:
 610:ROSSerial/ros/node_handle.h ****       chk += message_out[i];
 4587              		.loc 7 610 0
 4588 01e0 0132     		adds	r2, r2, #1
 4589              	.LVL512:
 4590 01e2 F6E7     		b	.L246
 4591              	.LVL513:
 4592              	.L297:
 4593              	.LBE668:
 4594              	.LBE666:
 4595              	.LBE665:
 4596              	.LBE659:
 4597              	.LBE658:
 311:ROSSerial/ros/node_handle.h ****         }
 4598              		.loc 7 311 0
 4599 01e4 0133     		adds	r3, r3, #1
 4600 01e6 C4F80835 		str	r3, [r4, #1288]
 4601 01ea 65E7     		b	.L233
 4602              	.LVL514:
 4603              	.L245:
 4604              	.LBB685:
 4605              	.LBB684:
 4606              	.LBB680:
 4607              	.LBB678:
 613:ROSSerial/ros/node_handle.h ****     //printf("Sending message - %s, length %d\n",msg->getType(), l);
 4608              		.loc 7 613 0
 4609 01ec 5A42     		rsbs	r2, r3, #0
 4610              	.LVL515:
 4611 01ee DBB2     		uxtb	r3, r3
 4612              	.LVL516:
 4613 01f0 D2B2     		uxtb	r2, r2
 4614 01f2 58BF     		it	pl
 4615 01f4 5342     		rsbpl	r3, r2, #0
 4616 01f6 00F10806 		add	r6, r0, #8
 4617              	.LVL517:
 4618 01fa DB43     		mvns	r3, r3
 4619 01fc 2144     		add	r1, r1, r4
 4620 01fe 81F81832 		strb	r3, [r1, #536]
 615:ROSSerial/ros/node_handle.h ****     {
 4621              		.loc 7 615 0
 4622 0202 B6F5007F 		cmp	r6, #512
 4623 0206 13DC     		bgt	.L247
 617:ROSSerial/ros/node_handle.h ****       return l;
 4624              		.loc 7 617 0
ARM GAS  /var/folders/l3/4y5292px21b4835bsnjwqc7w009kq1/T//ccaF8PhA.s 			page 114


 4625 0208 04F50677 		add	r7, r4, #536
 4626              	.LVL518:
 4627              	.LBB669:
 4628              	.LBB670:
 121:ROSSerial/AT32hardware.h **** 		if(ret == HAL_TIMEOUT)
 4629              		.loc 8 121 0
 4630 020c 0A23     		movs	r3, #10
 4631 020e B2B2     		uxth	r2, r6
 4632 0210 3946     		mov	r1, r7
 4633 0212 4548     		ldr	r0, .L306+12
 4634 0214 FFF7FEFF 		bl	HAL_UART_Transmit
 4635              	.LVL519:
 122:ROSSerial/AT32hardware.h **** 		{
 4636              		.loc 8 122 0
 4637 0218 0328     		cmp	r0, #3
 4638 021a 03D0     		beq	.L298
 4639              	.LVL520:
 4640              	.L248:
 4641              	.LBE670:
 4642              	.LBE669:
 4643              	.LBE678:
 4644              	.LBE680:
 4645              	.LBB681:
 4646              	.LBB682:
 4647              		.loc 8 151 0
 4648 021c FFF7FEFF 		bl	HAL_GetTick
 4649              	.LVL521:
 4650              	.LBE682:
 4651              	.LBE681:
 415:ROSSerial/ros/node_handle.h ****   }
 4652              		.loc 7 415 0
 4653 0220 A060     		str	r0, [r4, #8]
 4654 0222 49E7     		b	.L233
 4655              	.LVL522:
 4656              	.L298:
 4657              	.LBB683:
 4658              	.LBB679:
 4659              	.LBB672:
 4660              	.LBB671:
 124:ROSSerial/AT32hardware.h **** 		}
 4661              		.loc 8 124 0
 4662 0224 3A46     		mov	r2, r7
 4663 0226 3146     		mov	r1, r6
 4664 0228 4348     		ldr	r0, .L306+28
 4665              	.LVL523:
 4666 022a FFF7FEFF 		bl	printf
 4667              	.LVL524:
 4668 022e F5E7     		b	.L248
 4669              	.LVL525:
 4670              	.L247:
 4671              	.LBE671:
 4672              	.LBE672:
 4673              	.LBB673:
 4674              	.LBB674:
 4675              	.LBB675:
 4676              	.LBB676:
 4677              	.LBB677:
ARM GAS  /var/folders/l3/4y5292px21b4835bsnjwqc7w009kq1/T//ccaF8PhA.s 			page 115


  13:ROSSerial/rosserial_msgs/Log.h ****   {
 4678              		.loc 3 13 0
 4679 0230 424B     		ldr	r3, .L306+32
 4680 0232 0493     		str	r3, [sp, #16]
 4681              	.LVL526:
 4682              	.LBE677:
 4683              	.LBE676:
 635:ROSSerial/ros/node_handle.h ****     l.msg = (char*)msg;
 4684              		.loc 7 635 0
 4685 0234 0323     		movs	r3, #3
 4686 0236 8DF81430 		strb	r3, [sp, #20]
 636:ROSSerial/ros/node_handle.h ****     publish1(rosserial_msgs::TopicInfo::ID_LOG, &l);
 4687              		.loc 7 636 0
 4688 023a 414B     		ldr	r3, .L306+36
 4689 023c 0693     		str	r3, [sp, #24]
 4690              		.loc 7 637 0
 4691 023e 04AA     		add	r2, sp, #16
 4692 0240 0721     		movs	r1, #7
 4693 0242 2046     		mov	r0, r4
 4694 0244 FFF7FEFF 		bl	_ZN3ros11NodeHandle_I13STM32HardwareLi5ELi5ELi512ELi512EE8publish1EiPNS_3MsgE
 4695              	.LVL527:
 4696 0248 E8E7     		b	.L248
 4697              	.LVL528:
 4698              	.L288:
 4699              	.LBE675:
 4700              	.LBE674:
 4701              	.LBE673:
 4702              	.LBE679:
 4703              	.LBE683:
 4704              	.LBE684:
 4705              	.LBE685:
 322:ROSSerial/ros/node_handle.h ****         index_ = 0;
 4706              		.loc 7 322 0
 4707 024a C4F80C15 		str	r1, [r4, #1292]
 323:ROSSerial/ros/node_handle.h ****         mode_++;
 4708              		.loc 7 323 0
 4709 024e 0022     		movs	r2, #0
 4710 0250 C4F81425 		str	r2, [r4, #1300]
 324:ROSSerial/ros/node_handle.h ****         checksum_ = data;               /* first byte for calculating size checksum */
 4711              		.loc 7 324 0
 4712 0254 0133     		adds	r3, r3, #1
 4713 0256 C4F80835 		str	r3, [r4, #1288]
 325:ROSSerial/ros/node_handle.h ****       }
 4714              		.loc 7 325 0
 4715 025a C4F81815 		str	r1, [r4, #1304]
 4716 025e 2BE7     		b	.L233
 4717              	.L289:
 329:ROSSerial/ros/node_handle.h ****         mode_++;
 4718              		.loc 7 329 0
 4719 0260 D4F80C25 		ldr	r2, [r4, #1292]
 4720 0264 02EB0121 		add	r1, r2, r1, lsl #8
 4721 0268 C4F80C15 		str	r1, [r4, #1292]
 330:ROSSerial/ros/node_handle.h ****       }
 4722              		.loc 7 330 0
 4723 026c 0133     		adds	r3, r3, #1
 4724 026e C4F80835 		str	r3, [r4, #1288]
 4725 0272 21E7     		b	.L233
ARM GAS  /var/folders/l3/4y5292px21b4835bsnjwqc7w009kq1/T//ccaF8PhA.s 			page 116


 4726              	.L290:
 334:ROSSerial/ros/node_handle.h ****           mode_++;
 4727              		.loc 7 334 0
 4728 0274 5142     		rsbs	r1, r2, #0
 4729 0276 D2B2     		uxtb	r2, r2
 4730 0278 C9B2     		uxtb	r1, r1
 4731 027a 58BF     		it	pl
 4732 027c 4A42     		rsbpl	r2, r1, #0
 4733 027e FF2A     		cmp	r2, #255
 4734 0280 03D0     		beq	.L299
 337:ROSSerial/ros/node_handle.h ****       }
 4735              		.loc 7 337 0
 4736 0282 0023     		movs	r3, #0
 4737 0284 C4F80835 		str	r3, [r4, #1288]
 4738 0288 16E7     		b	.L233
 4739              	.L299:
 335:ROSSerial/ros/node_handle.h ****         else
 4740              		.loc 7 335 0
 4741 028a 0133     		adds	r3, r3, #1
 4742 028c C4F80835 		str	r3, [r4, #1288]
 4743 0290 12E7     		b	.L233
 4744              	.L291:
 341:ROSSerial/ros/node_handle.h ****         mode_++;
 4745              		.loc 7 341 0
 4746 0292 C4F81015 		str	r1, [r4, #1296]
 342:ROSSerial/ros/node_handle.h ****         checksum_ = data;               /* first byte included in checksum */
 4747              		.loc 7 342 0
 4748 0296 0133     		adds	r3, r3, #1
 4749 0298 C4F80835 		str	r3, [r4, #1288]
 343:ROSSerial/ros/node_handle.h ****       }
 4750              		.loc 7 343 0
 4751 029c C4F81815 		str	r1, [r4, #1304]
 4752 02a0 0AE7     		b	.L233
 4753              	.L292:
 347:ROSSerial/ros/node_handle.h ****         mode_ = MODE_MESSAGE;
 4754              		.loc 7 347 0
 4755 02a2 D4F81035 		ldr	r3, [r4, #1296]
 4756 02a6 03EB0123 		add	r3, r3, r1, lsl #8
 4757 02aa C4F81035 		str	r3, [r4, #1296]
 348:ROSSerial/ros/node_handle.h ****         if (bytes_ == 0)
 4758              		.loc 7 348 0
 4759 02ae 0723     		movs	r3, #7
 4760 02b0 C4F80835 		str	r3, [r4, #1288]
 349:ROSSerial/ros/node_handle.h ****           mode_ = MODE_MSG_CHECKSUM;
 4761              		.loc 7 349 0
 4762 02b4 D4F80C35 		ldr	r3, [r4, #1292]
 4763 02b8 002B     		cmp	r3, #0
 4764 02ba 7FF4FDAE 		bne	.L233
 350:ROSSerial/ros/node_handle.h ****       }
 4765              		.loc 7 350 0
 4766 02be 0823     		movs	r3, #8
 4767 02c0 C4F80835 		str	r3, [r4, #1288]
 4768 02c4 F8E6     		b	.L233
 4769              	.L293:
 359:ROSSerial/ros/node_handle.h ****             negotiateTopics();
 4770              		.loc 7 359 0
 4771 02c6 2046     		mov	r0, r4
ARM GAS  /var/folders/l3/4y5292px21b4835bsnjwqc7w009kq1/T//ccaF8PhA.s 			page 117


 4772 02c8 FFF7FEFF 		bl	_ZN3ros11NodeHandle_I13STM32HardwareLi5ELi5ELi512ELi512EE15requestSyncTimeEv
 4773              	.LVL529:
 4774              	.LBB686:
 4775              	.LBB687:
 4776              	.LBB688:
 4777              	.LBB689:
  12:ROSSerial/rosserial_msgs/TopicInfo.h ****   {
 4778              		.loc 2 12 0
 4779 02cc 1D4B     		ldr	r3, .L306+40
 4780 02ce 0493     		str	r3, [sp, #16]
 4781              	.LVL530:
 4782              	.LBE689:
 4783              	.LBE688:
 558:ROSSerial/ros/node_handle.h ****     {
 4784              		.loc 7 558 0
 4785 02d0 3746     		mov	r7, r6
 4786 02d2 00E0     		b	.L258
 4787              	.LVL531:
 4788              	.L257:
 4789 02d4 0137     		adds	r7, r7, #1
 4790              	.LVL532:
 4791              	.L258:
 4792 02d6 042F     		cmp	r7, #4
 4793 02d8 37DC     		bgt	.L256
 560:ROSSerial/ros/node_handle.h ****       {
 4794              		.loc 7 560 0
 4795 02da 07EB8703 		add	r3, r7, r7, lsl #2
 4796 02de 04EB8303 		add	r3, r4, r3, lsl #2
 4797 02e2 B3F82C34 		ldrh	r3, [r3, #1068]
 4798 02e6 002B     		cmp	r3, #0
 4799 02e8 F4D0     		beq	.L257
 562:ROSSerial/ros/node_handle.h ****         ti.topic_name = publishers2[i].topic_name;
 4800              		.loc 7 562 0
 4801 02ea ADF81430 		strh	r3, [sp, #20]	@ movhi
 563:ROSSerial/ros/node_handle.h ****         ti.message_type = publishers2[i].message_type;
 4802              		.loc 7 563 0
 4803 02ee 07EB8703 		add	r3, r7, r7, lsl #2
 4804 02f2 04EB8303 		add	r3, r4, r3, lsl #2
 4805 02f6 D3F83024 		ldr	r2, [r3, #1072]
 4806 02fa 0692     		str	r2, [sp, #24]
 564:ROSSerial/ros/node_handle.h ****         ti.md5sum = publishers2[i].md5sum;
 4807              		.loc 7 564 0
 4808 02fc D3F83824 		ldr	r2, [r3, #1080]
 4809 0300 0792     		str	r2, [sp, #28]
 565:ROSSerial/ros/node_handle.h ****         ti.buffer_size = OUTPUT_SIZE;
 4810              		.loc 7 565 0
 4811 0302 D3F83C34 		ldr	r3, [r3, #1084]
 4812 0306 0893     		str	r3, [sp, #32]
 566:ROSSerial/ros/node_handle.h ****         publish1(TopicInfo::ID_PUBLISHER, &ti);
 4813              		.loc 7 566 0
 4814 0308 4FF40073 		mov	r3, #512
 4815 030c 0993     		str	r3, [sp, #36]
 567:ROSSerial/ros/node_handle.h ****       }
 4816              		.loc 7 567 0
 4817 030e 04AA     		add	r2, sp, #16
 4818 0310 0021     		movs	r1, #0
 4819 0312 2046     		mov	r0, r4
ARM GAS  /var/folders/l3/4y5292px21b4835bsnjwqc7w009kq1/T//ccaF8PhA.s 			page 118


 4820 0314 FFF7FEFF 		bl	_ZN3ros11NodeHandle_I13STM32HardwareLi5ELi5ELi512ELi512EE8publish1EiPNS_3MsgE
 4821              	.LVL533:
 4822 0318 DCE7     		b	.L257
 4823              	.L307:
 4824 031a 00BF     		.align	2
 4825              	.L306:
 4826 031c 00000000 		.word	g_RxRead
 4827 0320 00000000 		.word	g_RxBuf
 4828 0324 00000000 		.word	g_RxWritten
 4829 0328 00000000 		.word	huart2
 4830 032c 00000000 		.word	byte
 4831 0330 00000000 		.word	_ZZN3ros11NodeHandle_I13STM32HardwareLi5ELi5ELi512ELi512EE9spinOnce1EvE10s_CallBack
 4832 0334 08000000 		.word	_ZTVN8std_msgs4TimeE+8
 4833 0338 00000000 		.word	.LC11
 4834 033c 08000000 		.word	_ZTVN14rosserial_msgs3LogE+8
 4835 0340 14000000 		.word	.LC12
 4836 0344 08000000 		.word	_ZTVN14rosserial_msgs9TopicInfoE+8
 4837              	.LVL534:
 4838              	.L260:
 570:ROSSerial/ros/node_handle.h ****     {
 4839              		.loc 7 570 0
 4840 0348 0136     		adds	r6, r6, #1
 4841              	.LVL535:
 4842              	.L256:
 4843 034a 042E     		cmp	r6, #4
 4844 034c 1FDC     		bgt	.L259
 572:ROSSerial/ros/node_handle.h ****       {
 4845              		.loc 7 572 0
 4846 034e 06EB8603 		add	r3, r6, r6, lsl #2
 4847 0352 04EB8303 		add	r3, r4, r3, lsl #2
 4848 0356 B3F8A434 		ldrh	r3, [r3, #1188]
 4849 035a 002B     		cmp	r3, #0
 4850 035c F4D0     		beq	.L260
 574:ROSSerial/ros/node_handle.h ****         ti.topic_name = subscribers2[i].topic_name;
 4851              		.loc 7 574 0
 4852 035e ADF81430 		strh	r3, [sp, #20]	@ movhi
 575:ROSSerial/ros/node_handle.h ****         ti.message_type = subscribers2[i].message_type;
 4853              		.loc 7 575 0
 4854 0362 06EB8603 		add	r3, r6, r6, lsl #2
 4855 0366 04EB8303 		add	r3, r4, r3, lsl #2
 4856 036a D3F8A824 		ldr	r2, [r3, #1192]
 4857 036e 0692     		str	r2, [sp, #24]
 576:ROSSerial/ros/node_handle.h ****         ti.md5sum = subscribers2[i].md5sum;
 4858              		.loc 7 576 0
 4859 0370 D3F8AC24 		ldr	r2, [r3, #1196]
 4860 0374 0792     		str	r2, [sp, #28]
 577:ROSSerial/ros/node_handle.h ****         ti.buffer_size = INPUT_SIZE;
 4861              		.loc 7 577 0
 4862 0376 D3F8B034 		ldr	r3, [r3, #1200]
 4863 037a 0893     		str	r3, [sp, #32]
 578:ROSSerial/ros/node_handle.h ****         publish1(rosserial_msgs::TopicInfo::ID_SUBSCRIBER, &ti);
 4864              		.loc 7 578 0
 4865 037c 4FF40073 		mov	r3, #512
 4866 0380 0993     		str	r3, [sp, #36]
 579:ROSSerial/ros/node_handle.h ****       }
 4867              		.loc 7 579 0
 4868 0382 04AA     		add	r2, sp, #16
ARM GAS  /var/folders/l3/4y5292px21b4835bsnjwqc7w009kq1/T//ccaF8PhA.s 			page 119


 4869 0384 0121     		movs	r1, #1
 4870 0386 2046     		mov	r0, r4
 4871 0388 FFF7FEFF 		bl	_ZN3ros11NodeHandle_I13STM32HardwareLi5ELi5ELi512ELi512EE8publish1EiPNS_3MsgE
 4872              	.LVL536:
 4873 038c DCE7     		b	.L260
 4874              	.L259:
 582:ROSSerial/ros/node_handle.h ****   }
 4875              		.loc 7 582 0
 4876 038e 0123     		movs	r3, #1
 4877 0390 84F81C35 		strb	r3, [r4, #1308]
 4878              	.LVL537:
 4879              	.LBE687:
 4880              	.LBE686:
 361:ROSSerial/ros/node_handle.h ****             last_sync_receive_time = c_time;
 4881              		.loc 7 361 0
 4882 0394 C4F82055 		str	r5, [r4, #1312]
 362:ROSSerial/ros/node_handle.h ****             return SPIN_ERR;
 4883              		.loc 7 362 0
 4884 0398 C4F82455 		str	r5, [r4, #1316]
 363:ROSSerial/ros/node_handle.h ****           }
 4885              		.loc 7 363 0
 4886 039c 4FF0FF30 		mov	r0, #-1
 4887 03a0 4AE1     		b	.L230
 4888              	.L294:
 367:ROSSerial/ros/node_handle.h ****           }
 4889              		.loc 7 367 0
 4890 03a2 04F11806 		add	r6, r4, #24
 4891              	.LVL538:
 4892              	.LBB690:
 4893              	.LBB691:
 4894              	.LBB692:
 4895              	.LBB693:
 4896              		.loc 8 151 0
 4897 03a6 FFF7FEFF 		bl	HAL_GetTick
 4898              	.LVL539:
 4899              	.LBE693:
 4900              	.LBE692:
 421:ROSSerial/ros/node_handle.h **** 
 4901              		.loc 7 421 0
 4902 03aa A368     		ldr	r3, [r4, #8]
 4903 03ac C01A     		subs	r0, r0, r3
 4904              	.LVL540:
 4905              	.LBB694:
 4906              	.LBB695:
  38:ROSSerial/std_msgs/Time.h ****       this->data.sec |= ((uint32_t) (*(inbuffer + offset + 1))) << (8 * 1);
 4907              		.loc 1 38 0
 4908 03ae 227E     		ldrb	r2, [r4, #24]	@ zero_extendqisi2
  39:ROSSerial/std_msgs/Time.h ****       this->data.sec |= ((uint32_t) (*(inbuffer + offset + 2))) << (8 * 2);
 4909              		.loc 1 39 0
 4910 03b0 3346     		mov	r3, r6
 4911 03b2 7178     		ldrb	r1, [r6, #1]	@ zero_extendqisi2
 4912 03b4 42EA0122 		orr	r2, r2, r1, lsl #8
  40:ROSSerial/std_msgs/Time.h ****       this->data.sec |= ((uint32_t) (*(inbuffer + offset + 3))) << (8 * 3);
 4913              		.loc 1 40 0
 4914 03b8 B178     		ldrb	r1, [r6, #2]	@ zero_extendqisi2
 4915 03ba 42EA0142 		orr	r2, r2, r1, lsl #16
  41:ROSSerial/std_msgs/Time.h ****       offset += sizeof(this->data.sec);
ARM GAS  /var/folders/l3/4y5292px21b4835bsnjwqc7w009kq1/T//ccaF8PhA.s 			page 120


 4916              		.loc 1 41 0
 4917 03be F178     		ldrb	r1, [r6, #3]	@ zero_extendqisi2
 4918 03c0 42EA0161 		orr	r1, r2, r1, lsl #24
 4919              	.LVL541:
  43:ROSSerial/std_msgs/Time.h ****       this->data.nsec |= ((uint32_t) (*(inbuffer + offset + 1))) << (8 * 1);
 4920              		.loc 1 43 0
 4921 03c4 3279     		ldrb	r2, [r6, #4]	@ zero_extendqisi2
  44:ROSSerial/std_msgs/Time.h ****       this->data.nsec |= ((uint32_t) (*(inbuffer + offset + 2))) << (8 * 2);
 4922              		.loc 1 44 0
 4923 03c6 7679     		ldrb	r6, [r6, #5]	@ zero_extendqisi2
 4924 03c8 42EA0622 		orr	r2, r2, r6, lsl #8
  45:ROSSerial/std_msgs/Time.h ****       this->data.nsec |= ((uint32_t) (*(inbuffer + offset + 3))) << (8 * 3);
 4925              		.loc 1 45 0
 4926 03cc 9E79     		ldrb	r6, [r3, #6]	@ zero_extendqisi2
 4927 03ce 42EA0642 		orr	r2, r2, r6, lsl #16
  46:ROSSerial/std_msgs/Time.h ****       offset += sizeof(this->data.nsec);
 4928              		.loc 1 46 0
 4929 03d2 DB79     		ldrb	r3, [r3, #7]	@ zero_extendqisi2
 4930 03d4 42EA0362 		orr	r2, r2, r3, lsl #24
 4931              	.LVL542:
 4932              	.LBE695:
 4933              	.LBE694:
 424:ROSSerial/ros/node_handle.h ****     t.data.nsec += (offset % 1000) * 1000000UL;
 4934              		.loc 7 424 0
 4935 03d8 9A4E     		ldr	r6, .L308
 4936 03da A6FB0073 		umull	r7, r3, r6, r0
 4937 03de 9B09     		lsrs	r3, r3, #6
 4938 03e0 1944     		add	r1, r1, r3
 4939 03e2 0591     		str	r1, [sp, #20]
 425:ROSSerial/ros/node_handle.h **** 
 4940              		.loc 7 425 0
 4941 03e4 4FF47A78 		mov	r8, #1000
 4942 03e8 08FB1303 		mls	r3, r8, r3, r0
 4943 03ec 964F     		ldr	r7, .L308+4
 4944 03ee 07FB0323 		mla	r3, r7, r3, r2
 4945 03f2 0693     		str	r3, [sp, #24]
 4946              	.LVL543:
 4947              	.LBB696:
 4948              	.LBB697:
 4949              	.LBB698:
 4950              	.LBB699:
 4951              		.loc 8 151 0
 4952 03f4 FFF7FEFF 		bl	HAL_GetTick
 4953              	.LVL544:
 4954              	.LBE699:
 4955              	.LBE698:
 444:ROSSerial/ros/node_handle.h ****     nsec_offset = new_now.nsec - (ms % 1000) * 1000000UL + 1000000000UL;
 4956              		.loc 7 444 0
 4957 03f8 A6FB0023 		umull	r2, r3, r6, r0
 4958 03fc 9B09     		lsrs	r3, r3, #6
 4959 03fe 059A     		ldr	r2, [sp, #20]
 4960 0400 D21A     		subs	r2, r2, r3
 4961 0402 013A     		subs	r2, r2, #1
 4962 0404 E260     		str	r2, [r4, #12]
 445:ROSSerial/ros/node_handle.h ****     normalizeSecNSec(sec_offset, nsec_offset);
 4963              		.loc 7 445 0
 4964 0406 08FB1303 		mls	r3, r8, r3, r0
ARM GAS  /var/folders/l3/4y5292px21b4835bsnjwqc7w009kq1/T//ccaF8PhA.s 			page 121


 4965 040a 069A     		ldr	r2, [sp, #24]
 4966 040c 07FB1323 		mls	r3, r7, r3, r2
 4967 0410 8E4A     		ldr	r2, .L308+8
 4968 0412 1A44     		add	r2, r2, r3
 4969 0414 2146     		mov	r1, r4
 4970 0416 41F8102F 		str	r2, [r1, #16]!
 446:ROSSerial/ros/node_handle.h ****   }
 4971              		.loc 7 446 0
 4972 041a 04F10C00 		add	r0, r4, #12
 4973              	.LVL545:
 4974 041e FFF7FEFF 		bl	_ZN3ros16normalizeSecNSecERmS0_
 4975              	.LVL546:
 4976              	.LBE697:
 4977              	.LBE696:
 4978              	.LBB700:
 4979              	.LBB701:
 4980              		.loc 8 151 0
 4981 0422 FFF7FEFF 		bl	HAL_GetTick
 4982              	.LVL547:
 4983              	.LBE701:
 4984              	.LBE700:
 428:ROSSerial/ros/node_handle.h ****   }
 4985              		.loc 7 428 0
 4986 0426 C4F82405 		str	r0, [r4, #1316]
 4987 042a 45E6     		b	.L233
 4988              	.LVL548:
 4989              	.L295:
 4990              	.LBE691:
 4991              	.LBE690:
 371:ROSSerial/ros/node_handle.h ****             param_recieved = true;
 4992              		.loc 7 371 0
 4993 042c 04F5A668 		add	r8, r4, #1328
 4994 0430 04F11807 		add	r7, r4, #24
 4995              	.LVL549:
 4996              	.LBB702:
 4997              	.LBB703:
 116:ROSSerial/rosserial_msgs/RequestParam.h ****       if(ints_lengthT > ints_length)
 4998              		.loc 4 116 0
 4999 0434 267E     		ldrb	r6, [r4, #24]	@ zero_extendqisi2
 5000              	.LVL550:
 117:ROSSerial/rosserial_msgs/RequestParam.h ****         this->ints = (int32_t*)realloc(this->ints, ints_lengthT * sizeof(int32_t));
 5001              		.loc 4 117 0
 5002 0436 98F80430 		ldrb	r3, [r8, #4]	@ zero_extendqisi2
 5003 043a 9E42     		cmp	r6, r3
 5004 043c 1ED8     		bhi	.L300
 5005              	.L263:
 5006              	.LVL551:
 120:ROSSerial/rosserial_msgs/RequestParam.h ****       for( uint8_t i = 0; i < ints_length; i++){
 5007              		.loc 4 120 0
 5008 043e 88F80460 		strb	r6, [r8, #4]
 5009              	.LVL552:
 5010              	.LBB704:
 121:ROSSerial/rosserial_msgs/RequestParam.h ****       union {
 5011              		.loc 4 121 0
 5012 0442 0022     		movs	r2, #0
 5013              	.LBE704:
 119:ROSSerial/rosserial_msgs/RequestParam.h ****       ints_length = ints_lengthT;
ARM GAS  /var/folders/l3/4y5292px21b4835bsnjwqc7w009kq1/T//ccaF8PhA.s 			page 122


 5014              		.loc 4 119 0
 5015 0444 0426     		movs	r6, #4
 5016              	.LVL553:
 5017              	.L265:
 5018              	.LBB706:
 121:ROSSerial/rosserial_msgs/RequestParam.h ****       union {
 5019              		.loc 4 121 0
 5020 0446 98F80430 		ldrb	r3, [r8, #4]	@ zero_extendqisi2
 5021 044a 9342     		cmp	r3, r2
 5022 044c 1ED9     		bls	.L264
 5023              	.LBB705:
 127:ROSSerial/rosserial_msgs/RequestParam.h ****       u_st_ints.base |= ((uint32_t) (*(inbuffer + offset + 1))) << (8 * 1);
 5024              		.loc 4 127 0
 5025 044e BB5D     		ldrb	r3, [r7, r6]	@ zero_extendqisi2
 128:ROSSerial/rosserial_msgs/RequestParam.h ****       u_st_ints.base |= ((uint32_t) (*(inbuffer + offset + 2))) << (8 * 2);
 5026              		.loc 4 128 0
 5027 0450 711C     		adds	r1, r6, #1
 5028 0452 795C     		ldrb	r1, [r7, r1]	@ zero_extendqisi2
 5029 0454 43EA0123 		orr	r3, r3, r1, lsl #8
 129:ROSSerial/rosserial_msgs/RequestParam.h ****       u_st_ints.base |= ((uint32_t) (*(inbuffer + offset + 3))) << (8 * 3);
 5030              		.loc 4 129 0
 5031 0458 B11C     		adds	r1, r6, #2
 5032 045a 795C     		ldrb	r1, [r7, r1]	@ zero_extendqisi2
 5033 045c 43EA0143 		orr	r3, r3, r1, lsl #16
 130:ROSSerial/rosserial_msgs/RequestParam.h ****       this->st_ints = u_st_ints.real;
 5034              		.loc 4 130 0
 5035 0460 F11C     		adds	r1, r6, #3
 5036 0462 795C     		ldrb	r1, [r7, r1]	@ zero_extendqisi2
 5037 0464 43EA0163 		orr	r3, r3, r1, lsl #24
 131:ROSSerial/rosserial_msgs/RequestParam.h ****       offset += sizeof(this->st_ints);
 5038              		.loc 4 131 0
 5039 0468 C8F80830 		str	r3, [r8, #8]
 132:ROSSerial/rosserial_msgs/RequestParam.h ****         memcpy( &(this->ints[i]), &(this->st_ints), sizeof(int32_t));
 5040              		.loc 4 132 0
 5041 046c 0436     		adds	r6, r6, #4
 5042              	.LVL554:
 133:ROSSerial/rosserial_msgs/RequestParam.h ****       }
 5043              		.loc 4 133 0
 5044 046e D8F80C10 		ldr	r1, [r8, #12]
 5045 0472 41F82230 		str	r3, [r1, r2, lsl #2]	@ unaligned
 5046              	.LBE705:
 121:ROSSerial/rosserial_msgs/RequestParam.h ****       union {
 5047              		.loc 4 121 0
 5048 0476 0132     		adds	r2, r2, #1
 5049              	.LVL555:
 5050 0478 D2B2     		uxtb	r2, r2
 5051              	.LVL556:
 5052 047a E4E7     		b	.L265
 5053              	.LVL557:
 5054              	.L300:
 5055              	.LBE706:
 118:ROSSerial/rosserial_msgs/RequestParam.h ****       offset += 3;
 5056              		.loc 4 118 0
 5057 047c B100     		lsls	r1, r6, #2
 5058 047e D8F80C00 		ldr	r0, [r8, #12]
 5059 0482 FFF7FEFF 		bl	realloc
 5060              	.LVL558:
ARM GAS  /var/folders/l3/4y5292px21b4835bsnjwqc7w009kq1/T//ccaF8PhA.s 			page 123


 5061 0486 C8F80C00 		str	r0, [r8, #12]
 5062 048a D8E7     		b	.L263
 5063              	.LVL559:
 5064              	.L264:
 135:ROSSerial/rosserial_msgs/RequestParam.h ****       if(floats_lengthT > floats_length)
 5065              		.loc 4 135 0
 5066 048c 17F80690 		ldrb	r9, [r7, r6]	@ zero_extendqisi2
 5067              	.LVL560:
 136:ROSSerial/rosserial_msgs/RequestParam.h ****         this->floats = (float*)realloc(this->floats, floats_lengthT * sizeof(float));
 5068              		.loc 4 136 0
 5069 0490 98F81030 		ldrb	r3, [r8, #16]	@ zero_extendqisi2
 5070 0494 9945     		cmp	r9, r3
 5071 0496 1ED8     		bhi	.L301
 5072              	.LVL561:
 5073              	.L266:
 138:ROSSerial/rosserial_msgs/RequestParam.h ****       floats_length = floats_lengthT;
 5074              		.loc 4 138 0
 5075 0498 0436     		adds	r6, r6, #4
 5076              	.LVL562:
 139:ROSSerial/rosserial_msgs/RequestParam.h ****       for( uint8_t i = 0; i < floats_length; i++){
 5077              		.loc 4 139 0
 5078 049a 88F81090 		strb	r9, [r8, #16]
 5079              	.LVL563:
 5080              	.LBB707:
 140:ROSSerial/rosserial_msgs/RequestParam.h ****       union {
 5081              		.loc 4 140 0
 5082 049e 0022     		movs	r2, #0
 5083              	.LVL564:
 5084              	.L268:
 5085 04a0 98F81030 		ldrb	r3, [r8, #16]	@ zero_extendqisi2
 5086 04a4 9342     		cmp	r3, r2
 5087 04a6 1FD9     		bls	.L267
 5088              	.LBB708:
 146:ROSSerial/rosserial_msgs/RequestParam.h ****       u_st_floats.base |= ((uint32_t) (*(inbuffer + offset + 1))) << (8 * 1);
 5089              		.loc 4 146 0
 5090 04a8 BB5D     		ldrb	r3, [r7, r6]	@ zero_extendqisi2
 147:ROSSerial/rosserial_msgs/RequestParam.h ****       u_st_floats.base |= ((uint32_t) (*(inbuffer + offset + 2))) << (8 * 2);
 5091              		.loc 4 147 0
 5092 04aa 711C     		adds	r1, r6, #1
 5093 04ac 795C     		ldrb	r1, [r7, r1]	@ zero_extendqisi2
 5094 04ae 43EA0123 		orr	r3, r3, r1, lsl #8
 148:ROSSerial/rosserial_msgs/RequestParam.h ****       u_st_floats.base |= ((uint32_t) (*(inbuffer + offset + 3))) << (8 * 3);
 5095              		.loc 4 148 0
 5096 04b2 B11C     		adds	r1, r6, #2
 5097 04b4 795C     		ldrb	r1, [r7, r1]	@ zero_extendqisi2
 5098 04b6 43EA0143 		orr	r3, r3, r1, lsl #16
 149:ROSSerial/rosserial_msgs/RequestParam.h ****       this->st_floats = u_st_floats.real;
 5099              		.loc 4 149 0
 5100 04ba F11C     		adds	r1, r6, #3
 5101 04bc 795C     		ldrb	r1, [r7, r1]	@ zero_extendqisi2
 5102 04be 43EA0163 		orr	r3, r3, r1, lsl #24
 150:ROSSerial/rosserial_msgs/RequestParam.h ****       offset += sizeof(this->st_floats);
 5103              		.loc 4 150 0
 5104 04c2 C8F81430 		str	r3, [r8, #20]	@ float
 151:ROSSerial/rosserial_msgs/RequestParam.h ****         memcpy( &(this->floats[i]), &(this->st_floats), sizeof(float));
 5105              		.loc 4 151 0
 5106 04c6 0436     		adds	r6, r6, #4
ARM GAS  /var/folders/l3/4y5292px21b4835bsnjwqc7w009kq1/T//ccaF8PhA.s 			page 124


 5107              	.LVL565:
 152:ROSSerial/rosserial_msgs/RequestParam.h ****       }
 5108              		.loc 4 152 0
 5109 04c8 D8F81810 		ldr	r1, [r8, #24]
 5110 04cc 41F82230 		str	r3, [r1, r2, lsl #2]	@ unaligned
 5111              	.LBE708:
 140:ROSSerial/rosserial_msgs/RequestParam.h ****       union {
 5112              		.loc 4 140 0
 5113 04d0 0132     		adds	r2, r2, #1
 5114              	.LVL566:
 5115 04d2 D2B2     		uxtb	r2, r2
 5116              	.LVL567:
 5117 04d4 E4E7     		b	.L268
 5118              	.LVL568:
 5119              	.L301:
 5120              	.LBE707:
 137:ROSSerial/rosserial_msgs/RequestParam.h ****       offset += 3;
 5121              		.loc 4 137 0
 5122 04d6 4FEA8901 		lsl	r1, r9, #2
 5123 04da D8F81800 		ldr	r0, [r8, #24]
 5124 04de FFF7FEFF 		bl	realloc
 5125              	.LVL569:
 5126 04e2 C8F81800 		str	r0, [r8, #24]
 5127 04e6 D7E7     		b	.L266
 5128              	.LVL570:
 5129              	.L267:
 154:ROSSerial/rosserial_msgs/RequestParam.h ****       if(strings_lengthT > strings_length)
 5130              		.loc 4 154 0
 5131 04e8 17F80690 		ldrb	r9, [r7, r6]	@ zero_extendqisi2
 5132              	.LVL571:
 155:ROSSerial/rosserial_msgs/RequestParam.h ****         this->strings = (char**)realloc(this->strings, strings_lengthT * sizeof(char*));
 5133              		.loc 4 155 0
 5134 04ec 98F81C30 		ldrb	r3, [r8, #28]	@ zero_extendqisi2
 5135 04f0 9945     		cmp	r9, r3
 5136 04f2 05D8     		bhi	.L302
 5137              	.LVL572:
 5138              	.L269:
 157:ROSSerial/rosserial_msgs/RequestParam.h ****       strings_length = strings_lengthT;
 5139              		.loc 4 157 0
 5140 04f4 321D     		adds	r2, r6, #4
 5141              	.LVL573:
 158:ROSSerial/rosserial_msgs/RequestParam.h ****       for( uint8_t i = 0; i < strings_length; i++){
 5142              		.loc 4 158 0
 5143 04f6 88F81C90 		strb	r9, [r8, #28]
 5144              	.LVL574:
 5145              	.LBB709:
 159:ROSSerial/rosserial_msgs/RequestParam.h ****       uint32_t length_st_strings;
 5146              		.loc 4 159 0
 5147 04fa 4FF0000C 		mov	ip, #0
 5148 04fe 17E0     		b	.L273
 5149              	.LVL575:
 5150              	.L302:
 5151              	.LBE709:
 156:ROSSerial/rosserial_msgs/RequestParam.h ****       offset += 3;
 5152              		.loc 4 156 0
 5153 0500 4FEA8901 		lsl	r1, r9, #2
 5154 0504 D8F82400 		ldr	r0, [r8, #36]
ARM GAS  /var/folders/l3/4y5292px21b4835bsnjwqc7w009kq1/T//ccaF8PhA.s 			page 125


 5155 0508 FFF7FEFF 		bl	realloc
 5156              	.LVL576:
 5157 050c C8F82400 		str	r0, [r8, #36]
 5158 0510 F0E7     		b	.L269
 5159              	.LVL577:
 5160              	.L271:
 5161              	.LBB713:
 5162              	.LBB710:
 166:ROSSerial/rosserial_msgs/RequestParam.h ****       this->st_strings = (char *)(inbuffer + offset-1);
 5163              		.loc 4 166 0
 5164 0512 531E     		subs	r3, r2, #1
 5165              	.LVL578:
 5166 0514 0021     		movs	r1, #0
 5167 0516 F954     		strb	r1, [r7, r3]
 167:ROSSerial/rosserial_msgs/RequestParam.h ****       offset += length_st_strings;
 5168              		.loc 4 167 0
 5169 0518 731E     		subs	r3, r6, #1
 5170 051a 3B44     		add	r3, r3, r7
 5171 051c C8F82030 		str	r3, [r8, #32]
 5172              	.LVL579:
 169:ROSSerial/rosserial_msgs/RequestParam.h ****       }
 5173              		.loc 4 169 0
 5174 0520 D8F82410 		ldr	r1, [r8, #36]
 5175 0524 41F82C30 		str	r3, [r1, ip, lsl #2]	@ unaligned
 5176              	.LVL580:
 5177              	.LBE710:
 159:ROSSerial/rosserial_msgs/RequestParam.h ****       uint32_t length_st_strings;
 5178              		.loc 4 159 0
 5179 0528 0CF1010C 		add	ip, ip, #1
 5180              	.LVL581:
 5181 052c 5FFA8CFC 		uxtb	ip, ip
 5182              	.LVL582:
 5183              	.L273:
 5184 0530 98F81C30 		ldrb	r3, [r8, #28]	@ zero_extendqisi2
 5185 0534 6345     		cmp	r3, ip
 5186 0536 0AD9     		bls	.L270
 5187              	.LBB712:
 161:ROSSerial/rosserial_msgs/RequestParam.h ****       offset += 4;
 5188              		.loc 4 161 0
 5189 0538 B858     		ldr	r0, [r7, r2]	@ unaligned
 5190              	.LVL583:
 162:ROSSerial/rosserial_msgs/RequestParam.h ****       for(unsigned int k= offset; k< offset+length_st_strings; ++k){
 5191              		.loc 4 162 0
 5192 053a 161D     		adds	r6, r2, #4
 5193              	.LVL584:
 5194              	.LBB711:
 163:ROSSerial/rosserial_msgs/RequestParam.h ****           inbuffer[k-1]=inbuffer[k];
 5195              		.loc 4 163 0
 5196 053c 3346     		mov	r3, r6
 5197              	.LVL585:
 5198              	.L272:
 5199 053e 8219     		adds	r2, r0, r6
 5200 0540 9A42     		cmp	r2, r3
 5201 0542 E6D9     		bls	.L271
 164:ROSSerial/rosserial_msgs/RequestParam.h ****       }
 5202              		.loc 4 164 0
 5203 0544 5A1E     		subs	r2, r3, #1
ARM GAS  /var/folders/l3/4y5292px21b4835bsnjwqc7w009kq1/T//ccaF8PhA.s 			page 126


 5204 0546 F95C     		ldrb	r1, [r7, r3]	@ zero_extendqisi2
 5205 0548 B954     		strb	r1, [r7, r2]
 163:ROSSerial/rosserial_msgs/RequestParam.h ****           inbuffer[k-1]=inbuffer[k];
 5206              		.loc 4 163 0
 5207 054a 0133     		adds	r3, r3, #1
 5208              	.LVL586:
 5209 054c F7E7     		b	.L272
 5210              	.LVL587:
 5211              	.L270:
 5212              	.LBE711:
 5213              	.LBE712:
 5214              	.LBE713:
 5215              	.LBE703:
 5216              	.LBE702:
 372:ROSSerial/ros/node_handle.h ****           }
 5217              		.loc 7 372 0
 5218 054e 0123     		movs	r3, #1
 5219 0550 84F82C35 		strb	r3, [r4, #1324]
 5220 0554 B0E5     		b	.L233
 5221              	.L296:
 376:ROSSerial/ros/node_handle.h ****           }
 5222              		.loc 7 376 0
 5223 0556 0023     		movs	r3, #0
 5224 0558 84F81C35 		strb	r3, [r4, #1308]
 5225 055c ACE5     		b	.L233
 5226              	.L238:
 5227              	.LBE647:
 391:ROSSerial/ros/node_handle.h ****     {
 5228              		.loc 7 391 0
 5229 055e 94F81C35 		ldrb	r3, [r4, #1308]	@ zero_extendqisi2
 5230 0562 002B     		cmp	r3, #0
 5231 0564 6BD0     		beq	.L281
 5232 0566 D4F82035 		ldr	r3, [r4, #1312]
 5233 056a EB1A     		subs	r3, r5, r3
 5234 056c 40F6C412 		movw	r2, #2500
 5235 0570 9342     		cmp	r3, r2
 5236 0572 01D8     		bhi	.L303
 397:ROSSerial/ros/node_handle.h ****   }
 5237              		.loc 7 397 0
 5238 0574 0020     		movs	r0, #0
 5239              	.LVL588:
 5240              	.LBE644:
 5241              	.LBE643:
 239:ROSSerial/ros/node_handle.h ****   }
 5242              		.loc 7 239 0
 5243 0576 5FE0     		b	.L230
 5244              	.LVL589:
 5245              	.L303:
 5246              	.LBB743:
 5247              	.LBB741:
 5248              	.LBB714:
 5249              	.LBB715:
 5250              	.LBB716:
 5251              	.LBB717:
  14:ROSSerial/std_msgs/Time.h ****   {
 5252              		.loc 1 14 0
 5253 0578 354B     		ldr	r3, .L308+12
ARM GAS  /var/folders/l3/4y5292px21b4835bsnjwqc7w009kq1/T//ccaF8PhA.s 			page 127


 5254 057a 0193     		str	r3, [sp, #4]
 5255              	.LVL590:
 5256              	.LBB718:
 5257              	.LBB719:
 5258              	.LBB720:
 5259              		.loc 9 51 0
 5260 057c 0026     		movs	r6, #0
 5261 057e 0296     		str	r6, [sp, #8]
 5262 0580 0396     		str	r6, [sp, #12]
 5263              	.LVL591:
 5264              	.LBE720:
 5265              	.LBE719:
 5266              	.LBE718:
 5267              	.LBE717:
 5268              	.LBE716:
 5269              	.LBB721:
 5270              	.LBB722:
 597:ROSSerial/ros/node_handle.h **** 
 5271              		.loc 7 597 0
 5272 0582 1B68     		ldr	r3, [r3]
 5273 0584 04F21F21 		addw	r1, r4, #543
 5274 0588 01A8     		add	r0, sp, #4
 5275              	.LVL592:
 5276 058a 9847     		blx	r3
 5277              	.LVL593:
 600:ROSSerial/ros/node_handle.h ****     message_out[1] = PROTOCOL_VER;
 5278              		.loc 7 600 0
 5279 058c FF23     		movs	r3, #255
 5280 058e 84F81832 		strb	r3, [r4, #536]
 601:ROSSerial/ros/node_handle.h ****     message_out[2] = (uint8_t)((uint16_t)l & 255);
 5281              		.loc 7 601 0
 5282 0592 FE23     		movs	r3, #254
 5283 0594 84F81932 		strb	r3, [r4, #537]
 602:ROSSerial/ros/node_handle.h ****     message_out[3] = (uint8_t)((uint16_t)l >> 8);
 5284              		.loc 7 602 0
 5285 0598 C3B2     		uxtb	r3, r0
 5286 059a 84F81A32 		strb	r3, [r4, #538]
 603:ROSSerial/ros/node_handle.h ****     message_out[4] = 255 - ((message_out[2] + message_out[3]) % 256);
 5287              		.loc 7 603 0
 5288 059e C0F30722 		ubfx	r2, r0, #8, #8
 5289 05a2 84F81B22 		strb	r2, [r4, #539]
 604:ROSSerial/ros/node_handle.h ****     message_out[5] = (uint8_t)((int16_t)id & 255);
 5290              		.loc 7 604 0
 5291 05a6 1344     		add	r3, r3, r2
 5292 05a8 DBB2     		uxtb	r3, r3
 5293 05aa DB43     		mvns	r3, r3
 5294 05ac 84F81C32 		strb	r3, [r4, #540]
 605:ROSSerial/ros/node_handle.h ****     message_out[6] = (uint8_t)((int16_t)id >> 8);
 5295              		.loc 7 605 0
 5296 05b0 0A23     		movs	r3, #10
 5297 05b2 84F81D32 		strb	r3, [r4, #541]
 606:ROSSerial/ros/node_handle.h **** 
 5298              		.loc 7 606 0
 5299 05b6 84F81E62 		strb	r6, [r4, #542]
 5300              	.LVL594:
 5301              	.LBB723:
 610:ROSSerial/ros/node_handle.h ****       chk += message_out[i];
ARM GAS  /var/folders/l3/4y5292px21b4835bsnjwqc7w009kq1/T//ccaF8PhA.s 			page 128


 5302              		.loc 7 610 0
 5303 05ba 0522     		movs	r2, #5
 5304              	.LBE723:
 609:ROSSerial/ros/node_handle.h ****     for (int i = 5; i < l + 7; i++)
 5305              		.loc 7 609 0
 5306 05bc 3346     		mov	r3, r6
 5307 05be 04E0     		b	.L276
 5308              	.LVL595:
 5309              	.L304:
 5310              	.LBB724:
 611:ROSSerial/ros/node_handle.h ****     l += 7;
 5311              		.loc 7 611 0
 5312 05c0 A118     		adds	r1, r4, r2
 5313 05c2 91F81812 		ldrb	r1, [r1, #536]	@ zero_extendqisi2
 5314 05c6 0B44     		add	r3, r3, r1
 5315              	.LVL596:
 610:ROSSerial/ros/node_handle.h ****       chk += message_out[i];
 5316              		.loc 7 610 0
 5317 05c8 0132     		adds	r2, r2, #1
 5318              	.LVL597:
 5319              	.L276:
 5320 05ca C11D     		adds	r1, r0, #7
 5321 05cc 9142     		cmp	r1, r2
 5322 05ce F7DC     		bgt	.L304
 5323              	.LVL598:
 5324              	.LBE724:
 613:ROSSerial/ros/node_handle.h ****     //printf("Sending message - %s, length %d\n",msg->getType(), l);
 5325              		.loc 7 613 0
 5326 05d0 5A42     		rsbs	r2, r3, #0
 5327              	.LVL599:
 5328 05d2 DBB2     		uxtb	r3, r3
 5329              	.LVL600:
 5330 05d4 D2B2     		uxtb	r2, r2
 5331 05d6 58BF     		it	pl
 5332 05d8 5342     		rsbpl	r3, r2, #0
 5333 05da 00F10806 		add	r6, r0, #8
 5334              	.LVL601:
 5335 05de DB43     		mvns	r3, r3
 5336 05e0 2144     		add	r1, r1, r4
 5337 05e2 81F81832 		strb	r3, [r1, #536]
 615:ROSSerial/ros/node_handle.h ****     {
 5338              		.loc 7 615 0
 5339 05e6 B6F5007F 		cmp	r6, #512
 5340 05ea 16DC     		bgt	.L277
 617:ROSSerial/ros/node_handle.h ****       return l;
 5341              		.loc 7 617 0
 5342 05ec 04F50677 		add	r7, r4, #536
 5343              	.LVL602:
 5344              	.LBB725:
 5345              	.LBB726:
 121:ROSSerial/AT32hardware.h **** 		if(ret == HAL_TIMEOUT)
 5346              		.loc 8 121 0
 5347 05f0 0A23     		movs	r3, #10
 5348 05f2 B2B2     		uxth	r2, r6
 5349 05f4 3946     		mov	r1, r7
 5350 05f6 1748     		ldr	r0, .L308+16
 5351 05f8 FFF7FEFF 		bl	HAL_UART_Transmit
ARM GAS  /var/folders/l3/4y5292px21b4835bsnjwqc7w009kq1/T//ccaF8PhA.s 			page 129


 5352              	.LVL603:
 122:ROSSerial/AT32hardware.h **** 		{
 5353              		.loc 8 122 0
 5354 05fc 0328     		cmp	r0, #3
 5355 05fe 06D0     		beq	.L305
 5356              	.LVL604:
 5357              	.L278:
 5358              	.LBE726:
 5359              	.LBE725:
 5360              	.LBE722:
 5361              	.LBE721:
 5362              	.LBB735:
 5363              	.LBB736:
 5364              		.loc 8 151 0
 5365 0600 FFF7FEFF 		bl	HAL_GetTick
 5366              	.LVL605:
 5367              	.LBE736:
 5368              	.LBE735:
 415:ROSSerial/ros/node_handle.h ****   }
 5369              		.loc 7 415 0
 5370 0604 A060     		str	r0, [r4, #8]
 5371              	.LVL606:
 5372              	.LBE715:
 5373              	.LBE714:
 394:ROSSerial/ros/node_handle.h ****     }
 5374              		.loc 7 394 0
 5375 0606 C4F82055 		str	r5, [r4, #1312]
 397:ROSSerial/ros/node_handle.h ****   }
 5376              		.loc 7 397 0
 5377 060a 0020     		movs	r0, #0
 5378 060c 14E0     		b	.L230
 5379              	.LVL607:
 5380              	.L305:
 5381              	.LBB739:
 5382              	.LBB738:
 5383              	.LBB737:
 5384              	.LBB734:
 5385              	.LBB728:
 5386              	.LBB727:
 124:ROSSerial/AT32hardware.h **** 		}
 5387              		.loc 8 124 0
 5388 060e 3A46     		mov	r2, r7
 5389 0610 3146     		mov	r1, r6
 5390 0612 1148     		ldr	r0, .L308+20
 5391              	.LVL608:
 5392 0614 FFF7FEFF 		bl	printf
 5393              	.LVL609:
 5394 0618 F2E7     		b	.L278
 5395              	.LVL610:
 5396              	.L277:
 5397              	.LBE727:
 5398              	.LBE728:
 5399              	.LBB729:
 5400              	.LBB730:
 5401              	.LBB731:
 5402              	.LBB732:
 5403              	.LBB733:
ARM GAS  /var/folders/l3/4y5292px21b4835bsnjwqc7w009kq1/T//ccaF8PhA.s 			page 130


  13:ROSSerial/rosserial_msgs/Log.h ****   {
 5404              		.loc 3 13 0
 5405 061a 104B     		ldr	r3, .L308+24
 5406 061c 0493     		str	r3, [sp, #16]
 5407              	.LVL611:
 5408              	.LBE733:
 5409              	.LBE732:
 635:ROSSerial/ros/node_handle.h ****     l.msg = (char*)msg;
 5410              		.loc 7 635 0
 5411 061e 0323     		movs	r3, #3
 5412 0620 8DF81430 		strb	r3, [sp, #20]
 636:ROSSerial/ros/node_handle.h ****     publish1(rosserial_msgs::TopicInfo::ID_LOG, &l);
 5413              		.loc 7 636 0
 5414 0624 0E4B     		ldr	r3, .L308+28
 5415 0626 0693     		str	r3, [sp, #24]
 5416              		.loc 7 637 0
 5417 0628 04AA     		add	r2, sp, #16
 5418 062a 0721     		movs	r1, #7
 5419 062c 2046     		mov	r0, r4
 5420 062e FFF7FEFF 		bl	_ZN3ros11NodeHandle_I13STM32HardwareLi5ELi5ELi512ELi512EE8publish1EiPNS_3MsgE
 5421              	.LVL612:
 5422 0632 E5E7     		b	.L278
 5423              	.LVL613:
 5424              	.L279:
 5425              	.LBE731:
 5426              	.LBE730:
 5427              	.LBE729:
 5428              	.LBE734:
 5429              	.LBE737:
 5430              	.LBE738:
 5431              	.LBE739:
 5432              	.LBB740:
 279:ROSSerial/ros/node_handle.h ****         }
 5433              		.loc 7 279 0
 5434 0634 6FF00100 		mvn	r0, #1
 5435              	.LVL614:
 5436              	.L230:
 5437              	.LBE740:
 5438              	.LBE741:
 5439              	.LBE743:
 240:ROSSerial/ros/node_handle.h **** 
 5440              		.loc 7 240 0
 5441 0638 0BB0     		add	sp, sp, #44
 5442              	.LCFI32:
 5443              		.cfi_remember_state
 5444              		.cfi_def_cfa_offset 28
 5445              		@ sp needed
 5446 063a BDE8F083 		pop	{r4, r5, r6, r7, r8, r9, pc}
 5447              	.LVL615:
 5448              	.L281:
 5449              	.LCFI33:
 5450              		.cfi_restore_state
 5451              	.LBB744:
 5452              	.LBB742:
 397:ROSSerial/ros/node_handle.h ****   }
 5453              		.loc 7 397 0
 5454 063e 0020     		movs	r0, #0
ARM GAS  /var/folders/l3/4y5292px21b4835bsnjwqc7w009kq1/T//ccaF8PhA.s 			page 131


 5455 0640 FAE7     		b	.L230
 5456              	.L309:
 5457 0642 00BF     		.align	2
 5458              	.L308:
 5459 0644 D34D6210 		.word	274877907
 5460 0648 40420F00 		.word	1000000
 5461 064c 00CA9A3B 		.word	1000000000
 5462 0650 08000000 		.word	_ZTVN8std_msgs4TimeE+8
 5463 0654 00000000 		.word	huart2
 5464 0658 00000000 		.word	.LC11
 5465 065c 08000000 		.word	_ZTVN14rosserial_msgs3LogE+8
 5466 0660 14000000 		.word	.LC12
 5467              	.LBE742:
 5468              	.LBE744:
 5469              		.cfi_endproc
 5470              	.LFE512:
 5471              		.fnend
 5473              		.section	.text._GLOBAL__sub_I_nh,"ax",%progbits
 5474              		.align	1
 5475              		.syntax unified
 5476              		.thumb
 5477              		.thumb_func
 5478              		.fpu fpv4-sp-d16
 5480              	_GLOBAL__sub_I_nh:
 5481              		.fnstart
 5482              	.LFB514:
 5483              		.loc 6 49 0
 5484              		.cfi_startproc
 5485              		@ args = 0, pretend = 0, frame = 0
 5486              		@ frame_needed = 0, uses_anonymous_args = 0
 5487 0000 08B5     		push	{r3, lr}
 5488              	.LCFI34:
 5489              		.cfi_def_cfa_offset 8
 5490              		.cfi_offset 3, -8
 5491              		.cfi_offset 14, -4
 5492              		.loc 6 49 0
 5493 0002 4FF6FF71 		movw	r1, #65535
 5494 0006 0120     		movs	r0, #1
 5495 0008 FFF7FEFF 		bl	_Z41__static_initialization_and_destruction_0ii
 5496              	.LVL616:
 5497 000c 08BD     		pop	{r3, pc}
 5498              		.cfi_endproc
 5499              	.LFE514:
 5500              		.cantunwind
 5501              		.fnend
 5503              		.section	.init_array,"aw",%init_array
 5504              		.align	2
 5505 0000 00000000 		.word	_GLOBAL__sub_I_nh(target1)
 5506              		.weak	_ZTVN8std_msgs4TimeE
 5507              		.section	.rodata._ZTVN8std_msgs4TimeE,"aG",%progbits,_ZTVN8std_msgs4TimeE,comdat
 5508              		.align	2
 5511              	_ZTVN8std_msgs4TimeE:
 5512 0000 00000000 		.word	0
 5513 0004 00000000 		.word	0
 5514 0008 00000000 		.word	_ZNK8std_msgs4Time9serializeEPh
 5515 000c 00000000 		.word	_ZN8std_msgs4Time11deserializeEPh
 5516 0010 00000000 		.word	_ZN8std_msgs4Time7getTypeEv
ARM GAS  /var/folders/l3/4y5292px21b4835bsnjwqc7w009kq1/T//ccaF8PhA.s 			page 132


 5517 0014 00000000 		.word	_ZN8std_msgs4Time6getMD5Ev
 5518              		.weak	_ZTVN14rosserial_msgs9TopicInfoE
 5519              		.section	.rodata._ZTVN14rosserial_msgs9TopicInfoE,"aG",%progbits,_ZTVN14rosserial_msgs9TopicInfoE,
 5520              		.align	2
 5523              	_ZTVN14rosserial_msgs9TopicInfoE:
 5524 0000 00000000 		.word	0
 5525 0004 00000000 		.word	0
 5526 0008 00000000 		.word	_ZNK14rosserial_msgs9TopicInfo9serializeEPh
 5527 000c 00000000 		.word	_ZN14rosserial_msgs9TopicInfo11deserializeEPh
 5528 0010 00000000 		.word	_ZN14rosserial_msgs9TopicInfo7getTypeEv
 5529 0014 00000000 		.word	_ZN14rosserial_msgs9TopicInfo6getMD5Ev
 5530              		.weak	_ZTVN14rosserial_msgs3LogE
 5531              		.section	.rodata._ZTVN14rosserial_msgs3LogE,"aG",%progbits,_ZTVN14rosserial_msgs3LogE,comdat
 5532              		.align	2
 5535              	_ZTVN14rosserial_msgs3LogE:
 5536 0000 00000000 		.word	0
 5537 0004 00000000 		.word	0
 5538 0008 00000000 		.word	_ZNK14rosserial_msgs3Log9serializeEPh
 5539 000c 00000000 		.word	_ZN14rosserial_msgs3Log11deserializeEPh
 5540 0010 00000000 		.word	_ZN14rosserial_msgs3Log7getTypeEv
 5541 0014 00000000 		.word	_ZN14rosserial_msgs3Log6getMD5Ev
 5542              		.weak	_ZTVN14rosserial_msgs20RequestParamResponseE
 5543              		.section	.rodata._ZTVN14rosserial_msgs20RequestParamResponseE,"aG",%progbits,_ZTVN14rosserial_msgs
 5544              		.align	2
 5547              	_ZTVN14rosserial_msgs20RequestParamResponseE:
 5548 0000 00000000 		.word	0
 5549 0004 00000000 		.word	0
 5550 0008 00000000 		.word	_ZNK14rosserial_msgs20RequestParamResponse9serializeEPh
 5551 000c 00000000 		.word	_ZN14rosserial_msgs20RequestParamResponse11deserializeEPh
 5552 0010 00000000 		.word	_ZN14rosserial_msgs20RequestParamResponse7getTypeEv
 5553 0014 00000000 		.word	_ZN14rosserial_msgs20RequestParamResponse6getMD5Ev
 5554              		.weak	_ZTVN8std_msgs6StringE
 5555              		.section	.rodata._ZTVN8std_msgs6StringE,"aG",%progbits,_ZTVN8std_msgs6StringE,comdat
 5556              		.align	2
 5559              	_ZTVN8std_msgs6StringE:
 5560 0000 00000000 		.word	0
 5561 0004 00000000 		.word	0
 5562 0008 00000000 		.word	_ZNK8std_msgs6String9serializeEPh
 5563 000c 00000000 		.word	_ZN8std_msgs6String11deserializeEPh
 5564 0010 00000000 		.word	_ZN8std_msgs6String7getTypeEv
 5565 0014 00000000 		.word	_ZN8std_msgs6String6getMD5Ev
 5566              		.weak	_ZTVN3ros11NodeHandle_I13STM32HardwareLi5ELi5ELi512ELi512EEE
 5567              		.section	.rodata._ZTVN3ros11NodeHandle_I13STM32HardwareLi5ELi5ELi512ELi512EEE,"aG",%progbits,_ZTVN
 5568              		.align	2
 5571              	_ZTVN3ros11NodeHandle_I13STM32HardwareLi5ELi5ELi512ELi512EEE:
 5572 0000 00000000 		.word	0
 5573 0004 00000000 		.word	0
 5574 0008 00000000 		.word	_ZN3ros11NodeHandle_I13STM32HardwareLi5ELi5ELi512ELi512EE7publishEiPKNS_3MsgE
 5575 000c 00000000 		.word	_ZN3ros11NodeHandle_I13STM32HardwareLi5ELi5ELi512ELi512EE8spinOnceEv
 5576 0010 00000000 		.word	_ZN3ros11NodeHandle_I13STM32HardwareLi5ELi5ELi512ELi512EE9connectedEv
 5577              		.weak	_ZZN3ros11NodeHandle_I13STM32HardwareLi5ELi5ELi512ELi512EE9spinOnce1EvE10s_CallBack
 5578              		.section	.bss._ZZN3ros11NodeHandle_I13STM32HardwareLi5ELi5ELi512ELi512EE9spinOnce1EvE10s_CallBack,
 5579              		.align	2
 5582              	_ZZN3ros11NodeHandle_I13STM32HardwareLi5ELi5ELi512ELi512EE9spinOnce1EvE10s_CallBack:
 5583 0000 00000000 		.space	4
 5584              		.global	chatter
 5585              		.global	nh
ARM GAS  /var/folders/l3/4y5292px21b4835bsnjwqc7w009kq1/T//ccaF8PhA.s 			page 133


 5586              		.section	.bss.chatter,"aw",%nobits
 5587              		.align	2
 5588              		.set	.LANCHOR2,. + 0
 5591              	chatter:
 5592 0000 00000000 		.space	4
 5593              		.section	.bss.nh,"aw",%nobits
 5594              		.align	2
 5595              		.set	.LANCHOR1,. + 0
 5598              	nh:
 5599 0000 00000000 		.space	1368
 5599      00000000 
 5599      00000000 
 5599      00000000 
 5599      00000000 
 5600              		.section	.rodata._ZN14rosserial_msgs20RequestParamResponse6getMD5Ev.str1.4,"aMS",%progbits,1
 5601              		.align	2
 5602              	.LC6:
 5603 0000 39663065 		.ascii	"9f0e98bda65981986ddf53afa7a40e49\000"
 5603      39386264 
 5603      61363539 
 5603      38313938 
 5603      36646466 
 5604              		.section	.rodata._ZN14rosserial_msgs3Log6getMD5Ev.str1.4,"aMS",%progbits,1
 5605              		.align	2
 5606              	.LC5:
 5607 0000 31316162 		.ascii	"11abd731c25933261cd6183bd12d6295\000"
 5607      64373331 
 5607      63323539 
 5607      33333236 
 5607      31636436 
 5608              		.section	.rodata._ZN14rosserial_msgs3Log7getTypeEv.str1.4,"aMS",%progbits,1
 5609              		.align	2
 5610              	.LC4:
 5611 0000 726F7373 		.ascii	"rosserial_msgs/Log\000"
 5611      65726961 
 5611      6C5F6D73 
 5611      67732F4C 
 5611      6F6700
 5612              		.section	.rodata._ZN14rosserial_msgs9TopicInfo6getMD5Ev.str1.4,"aMS",%progbits,1
 5613              		.align	2
 5614              	.LC3:
 5615 0000 30616435 		.ascii	"0ad51f88fc44892f8c10684077646005\000"
 5615      31663838 
 5615      66633434 
 5615      38393266 
 5615      38633130 
 5616              		.section	.rodata._ZN14rosserial_msgs9TopicInfo7getTypeEv.str1.4,"aMS",%progbits,1
 5617              		.align	2
 5618              	.LC2:
 5619 0000 726F7373 		.ascii	"rosserial_msgs/TopicInfo\000"
 5619      65726961 
 5619      6C5F6D73 
 5619      67732F54 
 5619      6F706963 
 5620              		.section	.rodata._ZN14rosserial_msgsL12REQUESTPARAME,"a",%progbits
 5621              		.align	2
 5622              		.set	.LANCHOR0,. + 0
ARM GAS  /var/folders/l3/4y5292px21b4835bsnjwqc7w009kq1/T//ccaF8PhA.s 			page 134


 5625              	_ZN14rosserial_msgsL12REQUESTPARAME:
 5626 0000 726F7373 		.ascii	"rosserial_msgs/RequestParam\000"
 5626      65726961 
 5626      6C5F6D73 
 5626      67732F52 
 5626      65717565 
 5627              		.section	.rodata._ZN3ros11NodeHandle_I13STM32HardwareLi5ELi5ELi512ELi512EE8publish1EiPNS_3MsgE.str
 5628              		.align	2
 5629              	.LC11:
 5630 0000 74696D65 		.ascii	"timeout %d - %s\012\000"
 5630      6F757420 
 5630      2564202D 
 5630      2025730A 
 5630      00
 5631 0011 000000   		.space	3
 5632              	.LC12:
 5633 0014 4D657373 		.ascii	"Message from device dropped: message larger than bu"
 5633      61676520 
 5633      66726F6D 
 5633      20646576 
 5633      69636520 
 5634 0047 66666572 		.ascii	"ffer.\000"
 5634      2E00
 5635              		.section	.rodata._ZN8std_msgs4Time6getMD5Ev.str1.4,"aMS",%progbits,1
 5636              		.align	2
 5637              	.LC1:
 5638 0000 63643731 		.ascii	"cd7166c74c552c311fbcc2fe5a7bc289\000"
 5638      36366337 
 5638      34633535 
 5638      32633331 
 5638      31666263 
 5639              		.section	.rodata._ZN8std_msgs4Time7getTypeEv.str1.4,"aMS",%progbits,1
 5640              		.align	2
 5641              	.LC0:
 5642 0000 7374645F 		.ascii	"std_msgs/Time\000"
 5642      6D736773 
 5642      2F54696D 
 5642      6500
 5643              		.section	.rodata._ZN8std_msgs6String6getMD5Ev.str1.4,"aMS",%progbits,1
 5644              		.align	2
 5645              	.LC8:
 5646 0000 39393263 		.ascii	"992ce8a1687cec8c8bd883ec73ca41d1\000"
 5646      65386131 
 5646      36383763 
 5646      65633863 
 5646      38626438 
 5647              		.section	.rodata._ZN8std_msgs6String7getTypeEv.str1.4,"aMS",%progbits,1
 5648              		.align	2
 5649              	.LC7:
 5650 0000 7374645F 		.ascii	"std_msgs/String\000"
 5650      6D736773 
 5650      2F537472 
 5650      696E6700 
 5651              		.section	.rodata.ros_init.str1.4,"aMS",%progbits,1
 5652              		.align	2
 5653              	.LC9:
 5654 0000 4E6F6465 		.ascii	"Node init\000"
ARM GAS  /var/folders/l3/4y5292px21b4835bsnjwqc7w009kq1/T//ccaF8PhA.s 			page 135


 5654      20696E69 
 5654      7400
 5655 000a 0000     		.space	2
 5656              	.LC10:
 5657 000c 63686174 		.ascii	"chatter\000"
 5657      74657200 
 5658              		.section	.rodata.ros_run.str1.4,"aMS",%progbits,1
 5659              		.align	2
 5660              	.LC13:
 5661 0000 4D696C6C 		.ascii	"Millis %ld ledState = %d\000"
 5661      69732025 
 5661      6C64206C 
 5661      65645374 
 5661      61746520 
 5662              		.text
 5663              	.Letext0:
 5664              		.file 10 "/usr/local/Cellar/gcc-arm-none-eabi/20180627/arm-none-eabi/include/machine/_default_type
 5665              		.file 11 "/usr/local/Cellar/gcc-arm-none-eabi/20180627/arm-none-eabi/include/sys/_stdint.h"
 5666              		.file 12 "Drivers/CMSIS/CM4/CoreSupport/core_cm4.h"
 5667              		.file 13 "Inc/system_at32f4xx.h"
 5668              		.file 14 "Drivers/CMSIS/CM4/DeviceSupport/at32f4xx.h"
 5669              		.file 15 "/usr/local/Cellar/gcc-arm-none-eabi/20180627/lib/gcc/arm-none-eabi/7.3.1/include/stddef.
 5670              		.file 16 "/usr/local/Cellar/gcc-arm-none-eabi/20180627/arm-none-eabi/include/sys/lock.h"
 5671              		.file 17 "/usr/local/Cellar/gcc-arm-none-eabi/20180627/arm-none-eabi/include/sys/_types.h"
 5672              		.file 18 "/usr/local/Cellar/gcc-arm-none-eabi/20180627/arm-none-eabi/include/sys/reent.h"
 5673              		.file 19 "Drivers/Modified_HAL_Driver/Inc/stm32f1xx_hal_def.h"
 5674              		.file 20 "Drivers/Modified_HAL_Driver/Inc/stm32f1xx_hal_dma.h"
 5675              		.file 21 "Drivers/Modified_HAL_Driver/Inc/stm32f1xx_hal_uart.h"
 5676              		.file 22 "/usr/local/Cellar/gcc-arm-none-eabi/20180627/arm-none-eabi/include/c++/7.3.1/cstdlib"
 5677              		.file 23 "/usr/local/Cellar/gcc-arm-none-eabi/20180627/arm-none-eabi/include/c++/7.3.1/bits/cpp_ty
 5678              		.file 24 "/usr/local/Cellar/gcc-arm-none-eabi/20180627/arm-none-eabi/include/c++/7.3.1/cmath"
 5679              		.file 25 "/usr/local/Cellar/gcc-arm-none-eabi/20180627/arm-none-eabi/include/c++/7.3.1/cstring"
 5680              		.file 26 "/usr/local/Cellar/gcc-arm-none-eabi/20180627/arm-none-eabi/include/c++/7.3.1/arm-none-ea
 5681              		.file 27 "/usr/local/Cellar/gcc-arm-none-eabi/20180627/arm-none-eabi/include/stdlib.h"
 5682              		.file 28 "/usr/local/Cellar/gcc-arm-none-eabi/20180627/arm-none-eabi/include/c++/7.3.1/stdlib.h"
 5683              		.file 29 "/usr/local/Cellar/gcc-arm-none-eabi/20180627/arm-none-eabi/include/math.h"
 5684              		.file 30 "/usr/local/Cellar/gcc-arm-none-eabi/20180627/arm-none-eabi/include/c++/7.3.1/math.h"
 5685              		.file 31 "<built-in>"
 5686              		.file 32 "ROSSerial/ros/msg.h"
 5687              		.file 33 "ROSSerial/ros/duration.h"
 5688              		.file 34 "ROSSerial/ros/publisher.h"
 5689              		.file 35 "ROSSerial/ros.h"
 5690              		.file 36 "/usr/local/Cellar/gcc-arm-none-eabi/20180627/arm-none-eabi/include/string.h"
 5691              		.file 37 "Drivers/Modified_HAL_Driver/Inc/stm32f1xx_hal.h"
 5692              		.file 38 "/usr/local/Cellar/gcc-arm-none-eabi/20180627/arm-none-eabi/include/stdio.h"
 5693              		.file 39 "Inc/ROS_subscribe.h"
ARM GAS  /var/folders/l3/4y5292px21b4835bsnjwqc7w009kq1/T//ccaF8PhA.s 			page 136


DEFINED SYMBOLS
                            *ABS*:0000000000000000 ROS_main.cpp
/var/folders/l3/4y5292px21b4835bsnjwqc7w009kq1/T//ccaF8PhA.s:17     .text._ZNK8std_msgs4Time9serializeEPh:0000000000000000 $t
/var/folders/l3/4y5292px21b4835bsnjwqc7w009kq1/T//ccaF8PhA.s:24     .text._ZNK8std_msgs4Time9serializeEPh:0000000000000000 _ZNK8std_msgs4Time9serializeEPh
.ARM.exidx.text._ZNK8std_msgs4Time9serializeEPh:0000000000000000 $d
/var/folders/l3/4y5292px21b4835bsnjwqc7w009kq1/T//ccaF8PhA.s:72     .text._ZN8std_msgs4Time11deserializeEPh:0000000000000000 $t
/var/folders/l3/4y5292px21b4835bsnjwqc7w009kq1/T//ccaF8PhA.s:79     .text._ZN8std_msgs4Time11deserializeEPh:0000000000000000 _ZN8std_msgs4Time11deserializeEPh
.ARM.exidx.text._ZN8std_msgs4Time11deserializeEPh:0000000000000000 $d
/var/folders/l3/4y5292px21b4835bsnjwqc7w009kq1/T//ccaF8PhA.s:130    .text._ZN8std_msgs4Time7getTypeEv:0000000000000000 $t
/var/folders/l3/4y5292px21b4835bsnjwqc7w009kq1/T//ccaF8PhA.s:137    .text._ZN8std_msgs4Time7getTypeEv:0000000000000000 _ZN8std_msgs4Time7getTypeEv
/var/folders/l3/4y5292px21b4835bsnjwqc7w009kq1/T//ccaF8PhA.s:153    .text._ZN8std_msgs4Time7getTypeEv:0000000000000004 $d
.ARM.exidx.text._ZN8std_msgs4Time7getTypeEv:0000000000000000 $d
/var/folders/l3/4y5292px21b4835bsnjwqc7w009kq1/T//ccaF8PhA.s:160    .text._ZN8std_msgs4Time6getMD5Ev:0000000000000000 $t
/var/folders/l3/4y5292px21b4835bsnjwqc7w009kq1/T//ccaF8PhA.s:167    .text._ZN8std_msgs4Time6getMD5Ev:0000000000000000 _ZN8std_msgs4Time6getMD5Ev
/var/folders/l3/4y5292px21b4835bsnjwqc7w009kq1/T//ccaF8PhA.s:183    .text._ZN8std_msgs4Time6getMD5Ev:0000000000000004 $d
.ARM.exidx.text._ZN8std_msgs4Time6getMD5Ev:0000000000000000 $d
/var/folders/l3/4y5292px21b4835bsnjwqc7w009kq1/T//ccaF8PhA.s:190    .text._ZN14rosserial_msgs9TopicInfo11deserializeEPh:0000000000000000 $t
/var/folders/l3/4y5292px21b4835bsnjwqc7w009kq1/T//ccaF8PhA.s:197    .text._ZN14rosserial_msgs9TopicInfo11deserializeEPh:0000000000000000 _ZN14rosserial_msgs9TopicInfo11deserializeEPh
.ARM.exidx.text._ZN14rosserial_msgs9TopicInfo11deserializeEPh:0000000000000000 $d
/var/folders/l3/4y5292px21b4835bsnjwqc7w009kq1/T//ccaF8PhA.s:359    .text._ZN14rosserial_msgs9TopicInfo7getTypeEv:0000000000000000 $t
/var/folders/l3/4y5292px21b4835bsnjwqc7w009kq1/T//ccaF8PhA.s:366    .text._ZN14rosserial_msgs9TopicInfo7getTypeEv:0000000000000000 _ZN14rosserial_msgs9TopicInfo7getTypeEv
/var/folders/l3/4y5292px21b4835bsnjwqc7w009kq1/T//ccaF8PhA.s:382    .text._ZN14rosserial_msgs9TopicInfo7getTypeEv:0000000000000004 $d
.ARM.exidx.text._ZN14rosserial_msgs9TopicInfo7getTypeEv:0000000000000000 $d
/var/folders/l3/4y5292px21b4835bsnjwqc7w009kq1/T//ccaF8PhA.s:389    .text._ZN14rosserial_msgs9TopicInfo6getMD5Ev:0000000000000000 $t
/var/folders/l3/4y5292px21b4835bsnjwqc7w009kq1/T//ccaF8PhA.s:396    .text._ZN14rosserial_msgs9TopicInfo6getMD5Ev:0000000000000000 _ZN14rosserial_msgs9TopicInfo6getMD5Ev
/var/folders/l3/4y5292px21b4835bsnjwqc7w009kq1/T//ccaF8PhA.s:412    .text._ZN14rosserial_msgs9TopicInfo6getMD5Ev:0000000000000004 $d
.ARM.exidx.text._ZN14rosserial_msgs9TopicInfo6getMD5Ev:0000000000000000 $d
/var/folders/l3/4y5292px21b4835bsnjwqc7w009kq1/T//ccaF8PhA.s:419    .text._ZN14rosserial_msgs3Log11deserializeEPh:0000000000000000 $t
/var/folders/l3/4y5292px21b4835bsnjwqc7w009kq1/T//ccaF8PhA.s:426    .text._ZN14rosserial_msgs3Log11deserializeEPh:0000000000000000 _ZN14rosserial_msgs3Log11deserializeEPh
.ARM.exidx.text._ZN14rosserial_msgs3Log11deserializeEPh:0000000000000000 $d
/var/folders/l3/4y5292px21b4835bsnjwqc7w009kq1/T//ccaF8PhA.s:494    .text._ZN14rosserial_msgs3Log7getTypeEv:0000000000000000 $t
/var/folders/l3/4y5292px21b4835bsnjwqc7w009kq1/T//ccaF8PhA.s:501    .text._ZN14rosserial_msgs3Log7getTypeEv:0000000000000000 _ZN14rosserial_msgs3Log7getTypeEv
/var/folders/l3/4y5292px21b4835bsnjwqc7w009kq1/T//ccaF8PhA.s:517    .text._ZN14rosserial_msgs3Log7getTypeEv:0000000000000004 $d
.ARM.exidx.text._ZN14rosserial_msgs3Log7getTypeEv:0000000000000000 $d
/var/folders/l3/4y5292px21b4835bsnjwqc7w009kq1/T//ccaF8PhA.s:524    .text._ZN14rosserial_msgs3Log6getMD5Ev:0000000000000000 $t
/var/folders/l3/4y5292px21b4835bsnjwqc7w009kq1/T//ccaF8PhA.s:531    .text._ZN14rosserial_msgs3Log6getMD5Ev:0000000000000000 _ZN14rosserial_msgs3Log6getMD5Ev
/var/folders/l3/4y5292px21b4835bsnjwqc7w009kq1/T//ccaF8PhA.s:547    .text._ZN14rosserial_msgs3Log6getMD5Ev:0000000000000004 $d
.ARM.exidx.text._ZN14rosserial_msgs3Log6getMD5Ev:0000000000000000 $d
/var/folders/l3/4y5292px21b4835bsnjwqc7w009kq1/T//ccaF8PhA.s:554    .text._ZN14rosserial_msgs20RequestParamResponse7getTypeEv:0000000000000000 $t
/var/folders/l3/4y5292px21b4835bsnjwqc7w009kq1/T//ccaF8PhA.s:561    .text._ZN14rosserial_msgs20RequestParamResponse7getTypeEv:0000000000000000 _ZN14rosserial_msgs20RequestParamResponse7getTypeEv
/var/folders/l3/4y5292px21b4835bsnjwqc7w009kq1/T//ccaF8PhA.s:578    .text._ZN14rosserial_msgs20RequestParamResponse7getTypeEv:0000000000000004 $d
.ARM.exidx.text._ZN14rosserial_msgs20RequestParamResponse7getTypeEv:0000000000000000 $d
/var/folders/l3/4y5292px21b4835bsnjwqc7w009kq1/T//ccaF8PhA.s:585    .text._ZN14rosserial_msgs20RequestParamResponse6getMD5Ev:0000000000000000 $t
/var/folders/l3/4y5292px21b4835bsnjwqc7w009kq1/T//ccaF8PhA.s:592    .text._ZN14rosserial_msgs20RequestParamResponse6getMD5Ev:0000000000000000 _ZN14rosserial_msgs20RequestParamResponse6getMD5Ev
/var/folders/l3/4y5292px21b4835bsnjwqc7w009kq1/T//ccaF8PhA.s:608    .text._ZN14rosserial_msgs20RequestParamResponse6getMD5Ev:0000000000000004 $d
.ARM.exidx.text._ZN14rosserial_msgs20RequestParamResponse6getMD5Ev:0000000000000000 $d
/var/folders/l3/4y5292px21b4835bsnjwqc7w009kq1/T//ccaF8PhA.s:615    .text._ZN8std_msgs6String11deserializeEPh:0000000000000000 $t
/var/folders/l3/4y5292px21b4835bsnjwqc7w009kq1/T//ccaF8PhA.s:622    .text._ZN8std_msgs6String11deserializeEPh:0000000000000000 _ZN8std_msgs6String11deserializeEPh
.ARM.exidx.text._ZN8std_msgs6String11deserializeEPh:0000000000000000 $d
/var/folders/l3/4y5292px21b4835bsnjwqc7w009kq1/T//ccaF8PhA.s:686    .text._ZN8std_msgs6String7getTypeEv:0000000000000000 $t
/var/folders/l3/4y5292px21b4835bsnjwqc7w009kq1/T//ccaF8PhA.s:693    .text._ZN8std_msgs6String7getTypeEv:0000000000000000 _ZN8std_msgs6String7getTypeEv
/var/folders/l3/4y5292px21b4835bsnjwqc7w009kq1/T//ccaF8PhA.s:709    .text._ZN8std_msgs6String7getTypeEv:0000000000000004 $d
.ARM.exidx.text._ZN8std_msgs6String7getTypeEv:0000000000000000 $d
/var/folders/l3/4y5292px21b4835bsnjwqc7w009kq1/T//ccaF8PhA.s:716    .text._ZN8std_msgs6String6getMD5Ev:0000000000000000 $t
/var/folders/l3/4y5292px21b4835bsnjwqc7w009kq1/T//ccaF8PhA.s:723    .text._ZN8std_msgs6String6getMD5Ev:0000000000000000 _ZN8std_msgs6String6getMD5Ev
/var/folders/l3/4y5292px21b4835bsnjwqc7w009kq1/T//ccaF8PhA.s:739    .text._ZN8std_msgs6String6getMD5Ev:0000000000000004 $d
.ARM.exidx.text._ZN8std_msgs6String6getMD5Ev:0000000000000000 $d
ARM GAS  /var/folders/l3/4y5292px21b4835bsnjwqc7w009kq1/T//ccaF8PhA.s 			page 137


/var/folders/l3/4y5292px21b4835bsnjwqc7w009kq1/T//ccaF8PhA.s:746    .text._Z41__static_initialization_and_destruction_0ii:0000000000000000 $t
/var/folders/l3/4y5292px21b4835bsnjwqc7w009kq1/T//ccaF8PhA.s:752    .text._Z41__static_initialization_and_destruction_0ii:0000000000000000 _Z41__static_initialization_and_destruction_0ii
/var/folders/l3/4y5292px21b4835bsnjwqc7w009kq1/T//ccaF8PhA.s:896    .text._Z41__static_initialization_and_destruction_0ii:00000000000000a0 $d
/var/folders/l3/4y5292px21b4835bsnjwqc7w009kq1/T//ccaF8PhA.s:5571   .rodata._ZTVN3ros11NodeHandle_I13STM32HardwareLi5ELi5ELi512ELi512EEE:0000000000000000 _ZTVN3ros11NodeHandle_I13STM32HardwareLi5ELi5ELi512ELi512EEE
/var/folders/l3/4y5292px21b4835bsnjwqc7w009kq1/T//ccaF8PhA.s:5547   .rodata._ZTVN14rosserial_msgs20RequestParamResponseE:0000000000000000 _ZTVN14rosserial_msgs20RequestParamResponseE
.ARM.exidx.text._Z41__static_initialization_and_destruction_0ii:0000000000000000 $d
/var/folders/l3/4y5292px21b4835bsnjwqc7w009kq1/T//ccaF8PhA.s:905    .text._ZN3ros11NodeHandle_I13STM32HardwareLi5ELi5ELi512ELi512EE9connectedEv:0000000000000000 $t
/var/folders/l3/4y5292px21b4835bsnjwqc7w009kq1/T//ccaF8PhA.s:912    .text._ZN3ros11NodeHandle_I13STM32HardwareLi5ELi5ELi512ELi512EE9connectedEv:0000000000000000 _ZN3ros11NodeHandle_I13STM32HardwareLi5ELi5ELi512ELi512EE9connectedEv
.ARM.exidx.text._ZN3ros11NodeHandle_I13STM32HardwareLi5ELi5ELi512ELi512EE9connectedEv:0000000000000000 $d
/var/folders/l3/4y5292px21b4835bsnjwqc7w009kq1/T//ccaF8PhA.s:931    .text._ZNK8std_msgs6String9serializeEPh:0000000000000000 $t
/var/folders/l3/4y5292px21b4835bsnjwqc7w009kq1/T//ccaF8PhA.s:938    .text._ZNK8std_msgs6String9serializeEPh:0000000000000000 _ZNK8std_msgs6String9serializeEPh
.ARM.exidx.text._ZNK8std_msgs6String9serializeEPh:0000000000000000 $d
/var/folders/l3/4y5292px21b4835bsnjwqc7w009kq1/T//ccaF8PhA.s:983    .text._ZNK14rosserial_msgs9TopicInfo9serializeEPh:0000000000000000 $t
/var/folders/l3/4y5292px21b4835bsnjwqc7w009kq1/T//ccaF8PhA.s:990    .text._ZNK14rosserial_msgs9TopicInfo9serializeEPh:0000000000000000 _ZNK14rosserial_msgs9TopicInfo9serializeEPh
.ARM.exidx.text._ZNK14rosserial_msgs9TopicInfo9serializeEPh:0000000000000000 $d
/var/folders/l3/4y5292px21b4835bsnjwqc7w009kq1/T//ccaF8PhA.s:1107   .text._ZNK14rosserial_msgs3Log9serializeEPh:0000000000000000 $t
/var/folders/l3/4y5292px21b4835bsnjwqc7w009kq1/T//ccaF8PhA.s:1114   .text._ZNK14rosserial_msgs3Log9serializeEPh:0000000000000000 _ZNK14rosserial_msgs3Log9serializeEPh
.ARM.exidx.text._ZNK14rosserial_msgs3Log9serializeEPh:0000000000000000 $d
/var/folders/l3/4y5292px21b4835bsnjwqc7w009kq1/T//ccaF8PhA.s:1163   .text._ZNK14rosserial_msgs20RequestParamResponse9serializeEPh:0000000000000000 $t
/var/folders/l3/4y5292px21b4835bsnjwqc7w009kq1/T//ccaF8PhA.s:1170   .text._ZNK14rosserial_msgs20RequestParamResponse9serializeEPh:0000000000000000 _ZNK14rosserial_msgs20RequestParamResponse9serializeEPh
.ARM.exidx.text._ZNK14rosserial_msgs20RequestParamResponse9serializeEPh:0000000000000000 $d
/var/folders/l3/4y5292px21b4835bsnjwqc7w009kq1/T//ccaF8PhA.s:1365   .text._ZN14rosserial_msgs20RequestParamResponse11deserializeEPh:0000000000000000 $t
/var/folders/l3/4y5292px21b4835bsnjwqc7w009kq1/T//ccaF8PhA.s:1372   .text._ZN14rosserial_msgs20RequestParamResponse11deserializeEPh:0000000000000000 _ZN14rosserial_msgs20RequestParamResponse11deserializeEPh
.ARM.exidx.text._ZN14rosserial_msgs20RequestParamResponse11deserializeEPh:0000000000000000 $d
/var/folders/l3/4y5292px21b4835bsnjwqc7w009kq1/T//ccaF8PhA.s:1622   .text.ros_init:0000000000000000 $t
/var/folders/l3/4y5292px21b4835bsnjwqc7w009kq1/T//ccaF8PhA.s:1629   .text.ros_init:0000000000000000 ros_init
/var/folders/l3/4y5292px21b4835bsnjwqc7w009kq1/T//ccaF8PhA.s:1759   .text.ros_init:0000000000000094 $d
/var/folders/l3/4y5292px21b4835bsnjwqc7w009kq1/T//ccaF8PhA.s:5559   .rodata._ZTVN8std_msgs6StringE:0000000000000000 _ZTVN8std_msgs6StringE
         .ARM.exidx.text.ros_init:0000000000000000 $d
/var/folders/l3/4y5292px21b4835bsnjwqc7w009kq1/T//ccaF8PhA.s:1771   .text._ZN3ros11NodeHandle_I13STM32HardwareLi5ELi5ELi512ELi512EE8publish1EiPNS_3MsgE:0000000000000000 $t
/var/folders/l3/4y5292px21b4835bsnjwqc7w009kq1/T//ccaF8PhA.s:1778   .text._ZN3ros11NodeHandle_I13STM32HardwareLi5ELi5ELi512ELi512EE8publish1EiPNS_3MsgE:0000000000000000 _ZN3ros11NodeHandle_I13STM32HardwareLi5ELi5ELi512ELi512EE8publish1EiPNS_3MsgE
/var/folders/l3/4y5292px21b4835bsnjwqc7w009kq1/T//ccaF8PhA.s:1963   .text._ZN3ros11NodeHandle_I13STM32HardwareLi5ELi5ELi512ELi512EE8publish1EiPNS_3MsgE:00000000000000cc $d
/var/folders/l3/4y5292px21b4835bsnjwqc7w009kq1/T//ccaF8PhA.s:5535   .rodata._ZTVN14rosserial_msgs3LogE:0000000000000000 _ZTVN14rosserial_msgs3LogE
.ARM.exidx.text._ZN3ros11NodeHandle_I13STM32HardwareLi5ELi5ELi512ELi512EE8publish1EiPNS_3MsgE:0000000000000000 $d
/var/folders/l3/4y5292px21b4835bsnjwqc7w009kq1/T//ccaF8PhA.s:1972   .text._ZN3ros11NodeHandle_I13STM32HardwareLi5ELi5ELi512ELi512EE7publishEiPKNS_3MsgE:0000000000000000 $t
/var/folders/l3/4y5292px21b4835bsnjwqc7w009kq1/T//ccaF8PhA.s:1979   .text._ZN3ros11NodeHandle_I13STM32HardwareLi5ELi5ELi512ELi512EE7publishEiPKNS_3MsgE:0000000000000000 _ZN3ros11NodeHandle_I13STM32HardwareLi5ELi5ELi512ELi512EE7publishEiPKNS_3MsgE
/var/folders/l3/4y5292px21b4835bsnjwqc7w009kq1/T//ccaF8PhA.s:2310   .text._ZN3ros11NodeHandle_I13STM32HardwareLi5ELi5ELi512ELi512EE7publishEiPKNS_3MsgE:0000000000000168 $d
.ARM.exidx.text._ZN3ros11NodeHandle_I13STM32HardwareLi5ELi5ELi512ELi512EE7publishEiPKNS_3MsgE:0000000000000000 $d
/var/folders/l3/4y5292px21b4835bsnjwqc7w009kq1/T//ccaF8PhA.s:2319   .text._ZN3ros11NodeHandle_I13STM32HardwareLi5ELi5ELi512ELi512EE15requestSyncTimeEv:0000000000000000 $t
/var/folders/l3/4y5292px21b4835bsnjwqc7w009kq1/T//ccaF8PhA.s:2326   .text._ZN3ros11NodeHandle_I13STM32HardwareLi5ELi5ELi512ELi512EE15requestSyncTimeEv:0000000000000000 _ZN3ros11NodeHandle_I13STM32HardwareLi5ELi5ELi512ELi512EE15requestSyncTimeEv
/var/folders/l3/4y5292px21b4835bsnjwqc7w009kq1/T//ccaF8PhA.s:2639   .text._ZN3ros11NodeHandle_I13STM32HardwareLi5ELi5ELi512ELi512EE15requestSyncTimeEv:0000000000000158 $d
/var/folders/l3/4y5292px21b4835bsnjwqc7w009kq1/T//ccaF8PhA.s:5511   .rodata._ZTVN8std_msgs4TimeE:0000000000000000 _ZTVN8std_msgs4TimeE
.ARM.exidx.text._ZN3ros11NodeHandle_I13STM32HardwareLi5ELi5ELi512ELi512EE15requestSyncTimeEv:0000000000000000 $d
/var/folders/l3/4y5292px21b4835bsnjwqc7w009kq1/T//ccaF8PhA.s:2659   .text.ros_run:0000000000000000 $t
/var/folders/l3/4y5292px21b4835bsnjwqc7w009kq1/T//ccaF8PhA.s:2666   .text.ros_run:0000000000000000 ros_run
/var/folders/l3/4y5292px21b4835bsnjwqc7w009kq1/T//ccaF8PhA.s:3233   .text.ros_run:0000000000000300 $d
/var/folders/l3/4y5292px21b4835bsnjwqc7w009kq1/T//ccaF8PhA.s:5582   .bss._ZZN3ros11NodeHandle_I13STM32HardwareLi5ELi5ELi512ELi512EE9spinOnce1EvE10s_CallBack:0000000000000000 _ZZN3ros11NodeHandle_I13STM32HardwareLi5ELi5ELi512ELi512EE9spinOnce1EvE10s_CallBack
/var/folders/l3/4y5292px21b4835bsnjwqc7w009kq1/T//ccaF8PhA.s:5523   .rodata._ZTVN14rosserial_msgs9TopicInfoE:0000000000000000 _ZTVN14rosserial_msgs9TopicInfoE
/var/folders/l3/4y5292px21b4835bsnjwqc7w009kq1/T//ccaF8PhA.s:3248   .text.ros_run:0000000000000334 $t
/var/folders/l3/4y5292px21b4835bsnjwqc7w009kq1/T//ccaF8PhA.s:3694   .text.ros_run:00000000000005b8 $d
/var/folders/l3/4y5292px21b4835bsnjwqc7w009kq1/T//ccaF8PhA.s:3702   .text.ros_run:00000000000005cc $t
/var/folders/l3/4y5292px21b4835bsnjwqc7w009kq1/T//ccaF8PhA.s:4221   .text.ros_run:0000000000000824 $d
          .ARM.exidx.text.ros_run:0000000000000000 $d
/var/folders/l3/4y5292px21b4835bsnjwqc7w009kq1/T//ccaF8PhA.s:4236   .text._ZN3ros11NodeHandle_I13STM32HardwareLi5ELi5ELi512ELi512EE8spinOnceEv:0000000000000000 $t
/var/folders/l3/4y5292px21b4835bsnjwqc7w009kq1/T//ccaF8PhA.s:4243   .text._ZN3ros11NodeHandle_I13STM32HardwareLi5ELi5ELi512ELi512EE8spinOnceEv:0000000000000000 _ZN3ros11NodeHandle_I13STM32HardwareLi5ELi5ELi512ELi512EE8spinOnceEv
/var/folders/l3/4y5292px21b4835bsnjwqc7w009kq1/T//ccaF8PhA.s:4826   .text._ZN3ros11NodeHandle_I13STM32HardwareLi5ELi5ELi512ELi512EE8spinOnceEv:000000000000031c $d
/var/folders/l3/4y5292px21b4835bsnjwqc7w009kq1/T//ccaF8PhA.s:4840   .text._ZN3ros11NodeHandle_I13STM32HardwareLi5ELi5ELi512ELi512EE8spinOnceEv:0000000000000348 $t
ARM GAS  /var/folders/l3/4y5292px21b4835bsnjwqc7w009kq1/T//ccaF8PhA.s 			page 138


/var/folders/l3/4y5292px21b4835bsnjwqc7w009kq1/T//ccaF8PhA.s:5459   .text._ZN3ros11NodeHandle_I13STM32HardwareLi5ELi5ELi512ELi512EE8spinOnceEv:0000000000000644 $d
.ARM.exidx.text._ZN3ros11NodeHandle_I13STM32HardwareLi5ELi5ELi512ELi512EE8spinOnceEv:0000000000000000 $d
/var/folders/l3/4y5292px21b4835bsnjwqc7w009kq1/T//ccaF8PhA.s:5474   .text._GLOBAL__sub_I_nh:0000000000000000 $t
/var/folders/l3/4y5292px21b4835bsnjwqc7w009kq1/T//ccaF8PhA.s:5480   .text._GLOBAL__sub_I_nh:0000000000000000 _GLOBAL__sub_I_nh
.ARM.exidx.text._GLOBAL__sub_I_nh:0000000000000000 $d
/var/folders/l3/4y5292px21b4835bsnjwqc7w009kq1/T//ccaF8PhA.s:5504   .init_array:0000000000000000 $d
/var/folders/l3/4y5292px21b4835bsnjwqc7w009kq1/T//ccaF8PhA.s:5508   .rodata._ZTVN8std_msgs4TimeE:0000000000000000 $d
/var/folders/l3/4y5292px21b4835bsnjwqc7w009kq1/T//ccaF8PhA.s:5520   .rodata._ZTVN14rosserial_msgs9TopicInfoE:0000000000000000 $d
/var/folders/l3/4y5292px21b4835bsnjwqc7w009kq1/T//ccaF8PhA.s:5532   .rodata._ZTVN14rosserial_msgs3LogE:0000000000000000 $d
/var/folders/l3/4y5292px21b4835bsnjwqc7w009kq1/T//ccaF8PhA.s:5544   .rodata._ZTVN14rosserial_msgs20RequestParamResponseE:0000000000000000 $d
/var/folders/l3/4y5292px21b4835bsnjwqc7w009kq1/T//ccaF8PhA.s:5556   .rodata._ZTVN8std_msgs6StringE:0000000000000000 $d
/var/folders/l3/4y5292px21b4835bsnjwqc7w009kq1/T//ccaF8PhA.s:5568   .rodata._ZTVN3ros11NodeHandle_I13STM32HardwareLi5ELi5ELi512ELi512EEE:0000000000000000 $d
/var/folders/l3/4y5292px21b4835bsnjwqc7w009kq1/T//ccaF8PhA.s:5579   .bss._ZZN3ros11NodeHandle_I13STM32HardwareLi5ELi5ELi512ELi512EE9spinOnce1EvE10s_CallBack:0000000000000000 $d
/var/folders/l3/4y5292px21b4835bsnjwqc7w009kq1/T//ccaF8PhA.s:5591   .bss.chatter:0000000000000000 chatter
/var/folders/l3/4y5292px21b4835bsnjwqc7w009kq1/T//ccaF8PhA.s:5598   .bss.nh:0000000000000000 nh
/var/folders/l3/4y5292px21b4835bsnjwqc7w009kq1/T//ccaF8PhA.s:5587   .bss.chatter:0000000000000000 $d
/var/folders/l3/4y5292px21b4835bsnjwqc7w009kq1/T//ccaF8PhA.s:5594   .bss.nh:0000000000000000 $d
/var/folders/l3/4y5292px21b4835bsnjwqc7w009kq1/T//ccaF8PhA.s:5601   .rodata._ZN14rosserial_msgs20RequestParamResponse6getMD5Ev.str1.4:0000000000000000 $d
/var/folders/l3/4y5292px21b4835bsnjwqc7w009kq1/T//ccaF8PhA.s:5605   .rodata._ZN14rosserial_msgs3Log6getMD5Ev.str1.4:0000000000000000 $d
/var/folders/l3/4y5292px21b4835bsnjwqc7w009kq1/T//ccaF8PhA.s:5609   .rodata._ZN14rosserial_msgs3Log7getTypeEv.str1.4:0000000000000000 $d
/var/folders/l3/4y5292px21b4835bsnjwqc7w009kq1/T//ccaF8PhA.s:5613   .rodata._ZN14rosserial_msgs9TopicInfo6getMD5Ev.str1.4:0000000000000000 $d
/var/folders/l3/4y5292px21b4835bsnjwqc7w009kq1/T//ccaF8PhA.s:5617   .rodata._ZN14rosserial_msgs9TopicInfo7getTypeEv.str1.4:0000000000000000 $d
/var/folders/l3/4y5292px21b4835bsnjwqc7w009kq1/T//ccaF8PhA.s:5621   .rodata._ZN14rosserial_msgsL12REQUESTPARAME:0000000000000000 $d
/var/folders/l3/4y5292px21b4835bsnjwqc7w009kq1/T//ccaF8PhA.s:5625   .rodata._ZN14rosserial_msgsL12REQUESTPARAME:0000000000000000 _ZN14rosserial_msgsL12REQUESTPARAME
/var/folders/l3/4y5292px21b4835bsnjwqc7w009kq1/T//ccaF8PhA.s:5628   .rodata._ZN3ros11NodeHandle_I13STM32HardwareLi5ELi5ELi512ELi512EE8publish1EiPNS_3MsgE.str1.4:0000000000000000 $d
/var/folders/l3/4y5292px21b4835bsnjwqc7w009kq1/T//ccaF8PhA.s:5636   .rodata._ZN8std_msgs4Time6getMD5Ev.str1.4:0000000000000000 $d
/var/folders/l3/4y5292px21b4835bsnjwqc7w009kq1/T//ccaF8PhA.s:5640   .rodata._ZN8std_msgs4Time7getTypeEv.str1.4:0000000000000000 $d
/var/folders/l3/4y5292px21b4835bsnjwqc7w009kq1/T//ccaF8PhA.s:5644   .rodata._ZN8std_msgs6String6getMD5Ev.str1.4:0000000000000000 $d
/var/folders/l3/4y5292px21b4835bsnjwqc7w009kq1/T//ccaF8PhA.s:5648   .rodata._ZN8std_msgs6String7getTypeEv.str1.4:0000000000000000 $d
/var/folders/l3/4y5292px21b4835bsnjwqc7w009kq1/T//ccaF8PhA.s:5652   .rodata.ros_init.str1.4:0000000000000000 $d
/var/folders/l3/4y5292px21b4835bsnjwqc7w009kq1/T//ccaF8PhA.s:5659   .rodata.ros_run.str1.4:0000000000000000 $d

UNDEFINED SYMBOLS
strlen
memcpy
realloc
HAL_UART_Receive_IT
puts
_Z16rosSubscribeInitPN3ros11NodeHandle_I13STM32HardwareLi5ELi5ELi512ELi512EEE
byte
huart2
__aeabi_unwind_cpp_pr0
HAL_UART_Transmit
printf
HAL_GetTick
g_RxRead
g_RxBuf
g_RxWritten
_ZN3ros16normalizeSecNSecERmS0_
_Z11getLedStatev
sprintf
