ARM GAS  /var/folders/l3/4y5292px21b4835bsnjwqc7w009kq1/T//ccDtvfvV.s 			page 1


   1              		.cpu cortex-m4
   2              		.eabi_attribute 27, 1
   3              		.eabi_attribute 20, 1
   4              		.eabi_attribute 21, 1
   5              		.eabi_attribute 23, 3
   6              		.eabi_attribute 24, 1
   7              		.eabi_attribute 25, 1
   8              		.eabi_attribute 26, 1
   9              		.eabi_attribute 30, 1
  10              		.eabi_attribute 34, 1
  11              		.eabi_attribute 18, 4
  12              		.file	"stm32f1xx_it.c"
  13              		.text
  14              	.Ltext0:
  15              		.cfi_sections	.debug_frame
  16              		.section	.text.NMI_Handler,"ax",%progbits
  17              		.align	1
  18              		.global	NMI_Handler
  19              		.syntax unified
  20              		.thumb
  21              		.thumb_func
  22              		.fpu fpv4-sp-d16
  24              	NMI_Handler:
  25              	.LFB126:
  26              		.file 1 "Src/stm32f1xx_it.c"
   1:Src/stm32f1xx_it.c **** /**
   2:Src/stm32f1xx_it.c ****  **************************************************************************
   3:Src/stm32f1xx_it.c ****  * File Name    : at32f4xx_it.c
   4:Src/stm32f1xx_it.c ****  * Description  : at32f4xx interrupt service routines.
   5:Src/stm32f1xx_it.c ****  * Date         : 2018-02-12
   6:Src/stm32f1xx_it.c ****  * Version      : V1.0.4
   7:Src/stm32f1xx_it.c ****  **************************************************************************
   8:Src/stm32f1xx_it.c ****  */
   9:Src/stm32f1xx_it.c **** 
  10:Src/stm32f1xx_it.c **** 
  11:Src/stm32f1xx_it.c **** /* Includes ------------------------------------------------------------------*/
  12:Src/stm32f1xx_it.c **** #include "../Inc/stm32f1xx_it.h"
  13:Src/stm32f1xx_it.c **** #include "config.h"
  14:Src/stm32f1xx_it.c **** #include "setup.h"
  15:Src/stm32f1xx_it.c **** #include "hallinterrupts.h"
  16:Src/stm32f1xx_it.c **** 
  17:Src/stm32f1xx_it.c **** #ifdef CONTROL_SERIAL_USART2
  18:Src/stm32f1xx_it.c **** 	extern DMA_HandleTypeDef hdma_usart2_rx;
  19:Src/stm32f1xx_it.c **** 	extern DMA_HandleTypeDef hdma_usart2_tx;
  20:Src/stm32f1xx_it.c **** #endif
  21:Src/stm32f1xx_it.c **** 
  22:Src/stm32f1xx_it.c **** /**
  23:Src/stm32f1xx_it.c ****   * @brief  This function handles NMI exception.
  24:Src/stm32f1xx_it.c ****   * @param  None
  25:Src/stm32f1xx_it.c ****   * @retval None
  26:Src/stm32f1xx_it.c ****   */
  27:Src/stm32f1xx_it.c **** void NMI_Handler(void)
  28:Src/stm32f1xx_it.c **** {
  27              		.loc 1 28 0
  28              		.cfi_startproc
  29              		@ args = 0, pretend = 0, frame = 0
  30              		@ frame_needed = 0, uses_anonymous_args = 0
ARM GAS  /var/folders/l3/4y5292px21b4835bsnjwqc7w009kq1/T//ccDtvfvV.s 			page 2


  31              		@ link register save eliminated.
  29:Src/stm32f1xx_it.c **** }
  32              		.loc 1 29 0
  33 0000 7047     		bx	lr
  34              		.cfi_endproc
  35              	.LFE126:
  37              		.section	.text.HardFault_Handler,"ax",%progbits
  38              		.align	1
  39              		.global	HardFault_Handler
  40              		.syntax unified
  41              		.thumb
  42              		.thumb_func
  43              		.fpu fpv4-sp-d16
  45              	HardFault_Handler:
  46              	.LFB127:
  30:Src/stm32f1xx_it.c **** 
  31:Src/stm32f1xx_it.c **** /**
  32:Src/stm32f1xx_it.c ****   * @brief  This function handles Hard Fault exception.
  33:Src/stm32f1xx_it.c ****   * @param  None
  34:Src/stm32f1xx_it.c ****   * @retval None
  35:Src/stm32f1xx_it.c ****   */
  36:Src/stm32f1xx_it.c **** void HardFault_Handler(void)
  37:Src/stm32f1xx_it.c **** {
  47              		.loc 1 37 0
  48              		.cfi_startproc
  49              		@ Volatile: function does not return.
  50              		@ args = 0, pretend = 0, frame = 0
  51              		@ frame_needed = 0, uses_anonymous_args = 0
  52              		@ link register save eliminated.
  53              	.L3:
  54 0000 FEE7     		b	.L3
  55              		.cfi_endproc
  56              	.LFE127:
  58              		.section	.text.MemManage_Handler,"ax",%progbits
  59              		.align	1
  60              		.global	MemManage_Handler
  61              		.syntax unified
  62              		.thumb
  63              		.thumb_func
  64              		.fpu fpv4-sp-d16
  66              	MemManage_Handler:
  67              	.LFB128:
  38:Src/stm32f1xx_it.c ****     /* Go to infinite loop when Hard Fault exception occurs */
  39:Src/stm32f1xx_it.c ****     while (1)
  40:Src/stm32f1xx_it.c ****     {
  41:Src/stm32f1xx_it.c ****     }
  42:Src/stm32f1xx_it.c **** }
  43:Src/stm32f1xx_it.c **** 
  44:Src/stm32f1xx_it.c **** /**
  45:Src/stm32f1xx_it.c ****   * @brief  This function handles Memory Manage exception.
  46:Src/stm32f1xx_it.c ****   * @param  None
  47:Src/stm32f1xx_it.c ****   * @retval None
  48:Src/stm32f1xx_it.c ****   */
  49:Src/stm32f1xx_it.c **** void MemManage_Handler(void)
  50:Src/stm32f1xx_it.c **** {
  68              		.loc 1 50 0
  69              		.cfi_startproc
ARM GAS  /var/folders/l3/4y5292px21b4835bsnjwqc7w009kq1/T//ccDtvfvV.s 			page 3


  70              		@ Volatile: function does not return.
  71              		@ args = 0, pretend = 0, frame = 0
  72              		@ frame_needed = 0, uses_anonymous_args = 0
  73              		@ link register save eliminated.
  74              	.L5:
  75 0000 FEE7     		b	.L5
  76              		.cfi_endproc
  77              	.LFE128:
  79              		.section	.text.BusFault_Handler,"ax",%progbits
  80              		.align	1
  81              		.global	BusFault_Handler
  82              		.syntax unified
  83              		.thumb
  84              		.thumb_func
  85              		.fpu fpv4-sp-d16
  87              	BusFault_Handler:
  88              	.LFB129:
  51:Src/stm32f1xx_it.c ****     /* Go to infinite loop when Memory Manage exception occurs */
  52:Src/stm32f1xx_it.c ****     while (1)
  53:Src/stm32f1xx_it.c ****     {
  54:Src/stm32f1xx_it.c ****     }
  55:Src/stm32f1xx_it.c **** }
  56:Src/stm32f1xx_it.c **** 
  57:Src/stm32f1xx_it.c **** /**
  58:Src/stm32f1xx_it.c ****   * @brief  This function handles Bus Fault exception.
  59:Src/stm32f1xx_it.c ****   * @param  None
  60:Src/stm32f1xx_it.c ****   * @retval None
  61:Src/stm32f1xx_it.c ****   */
  62:Src/stm32f1xx_it.c **** void BusFault_Handler(void)
  63:Src/stm32f1xx_it.c **** {
  89              		.loc 1 63 0
  90              		.cfi_startproc
  91              		@ Volatile: function does not return.
  92              		@ args = 0, pretend = 0, frame = 0
  93              		@ frame_needed = 0, uses_anonymous_args = 0
  94              		@ link register save eliminated.
  95              	.L7:
  96 0000 FEE7     		b	.L7
  97              		.cfi_endproc
  98              	.LFE129:
 100              		.section	.text.UsageFault_Handler,"ax",%progbits
 101              		.align	1
 102              		.global	UsageFault_Handler
 103              		.syntax unified
 104              		.thumb
 105              		.thumb_func
 106              		.fpu fpv4-sp-d16
 108              	UsageFault_Handler:
 109              	.LFB130:
  64:Src/stm32f1xx_it.c ****     /* Go to infinite loop when Bus Fault exception occurs */
  65:Src/stm32f1xx_it.c ****     while (1)
  66:Src/stm32f1xx_it.c ****     {
  67:Src/stm32f1xx_it.c ****     }
  68:Src/stm32f1xx_it.c **** }
  69:Src/stm32f1xx_it.c **** 
  70:Src/stm32f1xx_it.c **** /**
  71:Src/stm32f1xx_it.c ****   * @brief  This function handles Usage Fault exception.
ARM GAS  /var/folders/l3/4y5292px21b4835bsnjwqc7w009kq1/T//ccDtvfvV.s 			page 4


  72:Src/stm32f1xx_it.c ****   * @param  None
  73:Src/stm32f1xx_it.c ****   * @retval None
  74:Src/stm32f1xx_it.c ****   */
  75:Src/stm32f1xx_it.c **** void UsageFault_Handler(void)
  76:Src/stm32f1xx_it.c **** {
 110              		.loc 1 76 0
 111              		.cfi_startproc
 112              		@ Volatile: function does not return.
 113              		@ args = 0, pretend = 0, frame = 0
 114              		@ frame_needed = 0, uses_anonymous_args = 0
 115              		@ link register save eliminated.
 116              	.L9:
 117 0000 FEE7     		b	.L9
 118              		.cfi_endproc
 119              	.LFE130:
 121              		.section	.text.SVC_Handler,"ax",%progbits
 122              		.align	1
 123              		.global	SVC_Handler
 124              		.syntax unified
 125              		.thumb
 126              		.thumb_func
 127              		.fpu fpv4-sp-d16
 129              	SVC_Handler:
 130              	.LFB131:
  77:Src/stm32f1xx_it.c ****     /* Go to infinite loop when Usage Fault exception occurs */
  78:Src/stm32f1xx_it.c ****     while (1)
  79:Src/stm32f1xx_it.c ****     {
  80:Src/stm32f1xx_it.c ****     }
  81:Src/stm32f1xx_it.c **** }
  82:Src/stm32f1xx_it.c **** 
  83:Src/stm32f1xx_it.c **** /**
  84:Src/stm32f1xx_it.c ****   * @brief  This function handles SVCall exception.
  85:Src/stm32f1xx_it.c ****   * @param  None
  86:Src/stm32f1xx_it.c ****   * @retval None
  87:Src/stm32f1xx_it.c ****   */
  88:Src/stm32f1xx_it.c **** void SVC_Handler(void)
  89:Src/stm32f1xx_it.c **** {
 131              		.loc 1 89 0
 132              		.cfi_startproc
 133              		@ args = 0, pretend = 0, frame = 0
 134              		@ frame_needed = 0, uses_anonymous_args = 0
 135              		@ link register save eliminated.
  90:Src/stm32f1xx_it.c **** }
 136              		.loc 1 90 0
 137 0000 7047     		bx	lr
 138              		.cfi_endproc
 139              	.LFE131:
 141              		.section	.text.DebugMon_Handler,"ax",%progbits
 142              		.align	1
 143              		.global	DebugMon_Handler
 144              		.syntax unified
 145              		.thumb
 146              		.thumb_func
 147              		.fpu fpv4-sp-d16
 149              	DebugMon_Handler:
 150              	.LFB132:
  91:Src/stm32f1xx_it.c **** 
ARM GAS  /var/folders/l3/4y5292px21b4835bsnjwqc7w009kq1/T//ccDtvfvV.s 			page 5


  92:Src/stm32f1xx_it.c **** /**
  93:Src/stm32f1xx_it.c ****   * @brief  This function handles Debug Monitor exception.
  94:Src/stm32f1xx_it.c ****   * @param  None
  95:Src/stm32f1xx_it.c ****   * @retval None
  96:Src/stm32f1xx_it.c ****   */
  97:Src/stm32f1xx_it.c **** void DebugMon_Handler(void)
  98:Src/stm32f1xx_it.c **** {
 151              		.loc 1 98 0
 152              		.cfi_startproc
 153              		@ args = 0, pretend = 0, frame = 0
 154              		@ frame_needed = 0, uses_anonymous_args = 0
 155              		@ link register save eliminated.
  99:Src/stm32f1xx_it.c **** }
 156              		.loc 1 99 0
 157 0000 7047     		bx	lr
 158              		.cfi_endproc
 159              	.LFE132:
 161              		.section	.text.PendSV_Handler,"ax",%progbits
 162              		.align	1
 163              		.global	PendSV_Handler
 164              		.syntax unified
 165              		.thumb
 166              		.thumb_func
 167              		.fpu fpv4-sp-d16
 169              	PendSV_Handler:
 170              	.LFB133:
 100:Src/stm32f1xx_it.c **** 
 101:Src/stm32f1xx_it.c **** /**
 102:Src/stm32f1xx_it.c ****   * @brief  This function handles PendSV_Handler exception.
 103:Src/stm32f1xx_it.c ****   * @param  None
 104:Src/stm32f1xx_it.c ****   * @retval None
 105:Src/stm32f1xx_it.c ****   */
 106:Src/stm32f1xx_it.c **** void PendSV_Handler(void)
 107:Src/stm32f1xx_it.c **** {
 171              		.loc 1 107 0
 172              		.cfi_startproc
 173              		@ args = 0, pretend = 0, frame = 0
 174              		@ frame_needed = 0, uses_anonymous_args = 0
 175              		@ link register save eliminated.
 108:Src/stm32f1xx_it.c **** }
 176              		.loc 1 108 0
 177 0000 7047     		bx	lr
 178              		.cfi_endproc
 179              	.LFE133:
 181              		.section	.text.SysTick_Handler,"ax",%progbits
 182              		.align	1
 183              		.global	SysTick_Handler
 184              		.syntax unified
 185              		.thumb
 186              		.thumb_func
 187              		.fpu fpv4-sp-d16
 189              	SysTick_Handler:
 190              	.LFB134:
 109:Src/stm32f1xx_it.c **** 
 110:Src/stm32f1xx_it.c **** /**
 111:Src/stm32f1xx_it.c ****   * @brief  This function handles SysTick Handler.
 112:Src/stm32f1xx_it.c ****   * @param  None
ARM GAS  /var/folders/l3/4y5292px21b4835bsnjwqc7w009kq1/T//ccDtvfvV.s 			page 6


 113:Src/stm32f1xx_it.c ****   * @retval None
 114:Src/stm32f1xx_it.c ****   */
 115:Src/stm32f1xx_it.c **** // void SysTick_Handler(void)
 116:Src/stm32f1xx_it.c **** // {
 117:Src/stm32f1xx_it.c **** 
 118:Src/stm32f1xx_it.c **** // }
 119:Src/stm32f1xx_it.c **** 
 120:Src/stm32f1xx_it.c **** /**
 121:Src/stm32f1xx_it.c **** * @brief This function handles System tick timer.
 122:Src/stm32f1xx_it.c **** */
 123:Src/stm32f1xx_it.c **** // #ifdef CONTROL_PPM
 124:Src/stm32f1xx_it.c **** // void PPM_SysTick_Callback(void);
 125:Src/stm32f1xx_it.c **** // #endif
 126:Src/stm32f1xx_it.c **** void SysTick_Handler(void) {
 191              		.loc 1 126 0
 192              		.cfi_startproc
 193              		@ args = 0, pretend = 0, frame = 0
 194              		@ frame_needed = 0, uses_anonymous_args = 0
 195 0000 08B5     		push	{r3, lr}
 196              	.LCFI0:
 197              		.cfi_def_cfa_offset 8
 198              		.cfi_offset 3, -8
 199              		.cfi_offset 14, -4
 127:Src/stm32f1xx_it.c ****   /* USER CODE BEGIN SysTick_IRQn 0 */
 128:Src/stm32f1xx_it.c **** 
 129:Src/stm32f1xx_it.c ****   /* USER CODE END SysTick_IRQn 0 */
 130:Src/stm32f1xx_it.c ****   HAL_IncTick();
 200              		.loc 1 130 0
 201 0002 FFF7FEFF 		bl	HAL_IncTick
 202              	.LVL0:
 131:Src/stm32f1xx_it.c ****   HAL_SYSTICK_IRQHandler();
 203              		.loc 1 131 0
 204 0006 FFF7FEFF 		bl	HAL_SYSTICK_IRQHandler
 205              	.LVL1:
 132:Src/stm32f1xx_it.c ****   /* USER CODE BEGIN SysTick_IRQn 1 */
 133:Src/stm32f1xx_it.c **** #ifdef CONTROL_PPM
 134:Src/stm32f1xx_it.c ****   PPM_SysTick_Callback();
 135:Src/stm32f1xx_it.c **** #endif
 136:Src/stm32f1xx_it.c ****   /* USER CODE END SysTick_IRQn 1 */
 137:Src/stm32f1xx_it.c **** }
 206              		.loc 1 137 0
 207 000a 08BD     		pop	{r3, pc}
 208              		.cfi_endproc
 209              	.LFE134:
 211              		.section	.text.EXTI9_5_IRQHandler,"ax",%progbits
 212              		.align	1
 213              		.global	EXTI9_5_IRQHandler
 214              		.syntax unified
 215              		.thumb
 216              		.thumb_func
 217              		.fpu fpv4-sp-d16
 219              	EXTI9_5_IRQHandler:
 220              	.LFB135:
 138:Src/stm32f1xx_it.c **** 
 139:Src/stm32f1xx_it.c **** #ifdef CONTROL_NUNCHUCK
 140:Src/stm32f1xx_it.c **** extern I2C_HandleTypeDef hi2c2;
 141:Src/stm32f1xx_it.c **** void I2C1_EV_IRQHandler(void)
ARM GAS  /var/folders/l3/4y5292px21b4835bsnjwqc7w009kq1/T//ccDtvfvV.s 			page 7


 142:Src/stm32f1xx_it.c **** {
 143:Src/stm32f1xx_it.c ****   HAL_I2C_EV_IRQHandler(&hi2c2);
 144:Src/stm32f1xx_it.c **** }
 145:Src/stm32f1xx_it.c **** 
 146:Src/stm32f1xx_it.c **** void I2C1_ER_IRQHandler(void)
 147:Src/stm32f1xx_it.c **** {
 148:Src/stm32f1xx_it.c ****   HAL_I2C_ER_IRQHandler(&hi2c2);
 149:Src/stm32f1xx_it.c **** }
 150:Src/stm32f1xx_it.c **** 
 151:Src/stm32f1xx_it.c **** /**
 152:Src/stm32f1xx_it.c **** * @brief This function handles DMA1 channel4 global interrupt.
 153:Src/stm32f1xx_it.c **** */
 154:Src/stm32f1xx_it.c **** void DMA1_Channel4_IRQHandler(void)
 155:Src/stm32f1xx_it.c **** {
 156:Src/stm32f1xx_it.c ****   /* USER CODE BEGIN DMA1_Channel4_IRQn 0 */
 157:Src/stm32f1xx_it.c **** 
 158:Src/stm32f1xx_it.c ****   /* USER CODE END DMA1_Channel4_IRQn 0 */
 159:Src/stm32f1xx_it.c ****   HAL_DMA_IRQHandler(&hdma_i2c2_tx);
 160:Src/stm32f1xx_it.c ****   /* USER CODE BEGIN DMA1_Channel4_IRQn 1 */
 161:Src/stm32f1xx_it.c **** 
 162:Src/stm32f1xx_it.c ****   /* USER CODE END DMA1_Channel4_IRQn 1 */
 163:Src/stm32f1xx_it.c **** }
 164:Src/stm32f1xx_it.c **** 
 165:Src/stm32f1xx_it.c **** /**
 166:Src/stm32f1xx_it.c **** * @brief This function handles DMA1 channel5 global interrupt.
 167:Src/stm32f1xx_it.c **** */
 168:Src/stm32f1xx_it.c **** void DMA1_Channel5_IRQHandler(void)
 169:Src/stm32f1xx_it.c **** {
 170:Src/stm32f1xx_it.c ****   /* USER CODE BEGIN DMA1_Channel5_IRQn 0 */
 171:Src/stm32f1xx_it.c **** 
 172:Src/stm32f1xx_it.c ****   /* USER CODE END DMA1_Channel5_IRQn 0 */
 173:Src/stm32f1xx_it.c ****   HAL_DMA_IRQHandler(&hdma_i2c2_rx);
 174:Src/stm32f1xx_it.c ****   /* USER CODE BEGIN DMA1_Channel5_IRQn 1 */
 175:Src/stm32f1xx_it.c **** 
 176:Src/stm32f1xx_it.c ****   /* USER CODE END DMA1_Channel5_IRQn 1 */
 177:Src/stm32f1xx_it.c **** }
 178:Src/stm32f1xx_it.c **** #endif
 179:Src/stm32f1xx_it.c **** 
 180:Src/stm32f1xx_it.c **** #ifdef CONTROL_PPM
 181:Src/stm32f1xx_it.c **** void EXTI3_IRQHandler(void)
 182:Src/stm32f1xx_it.c **** {
 183:Src/stm32f1xx_it.c ****     PPM_ISR_Callback();
 184:Src/stm32f1xx_it.c ****     __HAL_GPIO_EXTI_CLEAR_IT(GPIO_PIN_3);
 185:Src/stm32f1xx_it.c **** }
 186:Src/stm32f1xx_it.c **** #endif
 187:Src/stm32f1xx_it.c **** 
 188:Src/stm32f1xx_it.c **** ////////////////////////////////////////////////////////////////////
 189:Src/stm32f1xx_it.c **** // actual IRQ for LEFT pins 5,6,7
 190:Src/stm32f1xx_it.c **** void EXTI9_5_IRQHandler(void)
 191:Src/stm32f1xx_it.c **** {
 221              		.loc 1 191 0
 222              		.cfi_startproc
 223              		@ args = 0, pretend = 0, frame = 0
 224              		@ frame_needed = 0, uses_anonymous_args = 0
 225              		@ link register save eliminated.
 226              	.LVL2:
 192:Src/stm32f1xx_it.c ****   unsigned long triggered = 0;
ARM GAS  /var/folders/l3/4y5292px21b4835bsnjwqc7w009kq1/T//ccDtvfvV.s 			page 8


 193:Src/stm32f1xx_it.c ****   if(__HAL_GPIO_EXTI_GET_IT(GPIO_PIN_9) != RESET)
 227              		.loc 1 193 0
 228 0000 154B     		ldr	r3, .L21
 229 0002 5B69     		ldr	r3, [r3, #20]
 230 0004 13F4007F 		tst	r3, #512
 231 0008 03D0     		beq	.L16
 194:Src/stm32f1xx_it.c ****   {
 195:Src/stm32f1xx_it.c ****     /* Clear the EXTI line 8 pending bit */
 196:Src/stm32f1xx_it.c ****     __HAL_GPIO_EXTI_CLEAR_IT(GPIO_PIN_9);
 232              		.loc 1 196 0
 233 000a 134B     		ldr	r3, .L21
 234 000c 4FF40072 		mov	r2, #512
 235 0010 5A61     		str	r2, [r3, #20]
 236              	.LVL3:
 237              	.L16:
 197:Src/stm32f1xx_it.c ****     triggered |= GPIO_PIN_9;
 198:Src/stm32f1xx_it.c ****   }
 199:Src/stm32f1xx_it.c ****   
 200:Src/stm32f1xx_it.c ****   if(__HAL_GPIO_EXTI_GET_IT(GPIO_PIN_8) != RESET)
 238              		.loc 1 200 0
 239 0012 114B     		ldr	r3, .L21
 240 0014 5B69     		ldr	r3, [r3, #20]
 241 0016 13F4807F 		tst	r3, #256
 242 001a 03D0     		beq	.L17
 201:Src/stm32f1xx_it.c ****   {
 202:Src/stm32f1xx_it.c ****     /* Clear the EXTI line 9 pending bit */
 203:Src/stm32f1xx_it.c ****     __HAL_GPIO_EXTI_CLEAR_IT(GPIO_PIN_8);
 243              		.loc 1 203 0
 244 001c 0E4B     		ldr	r3, .L21
 245 001e 4FF48072 		mov	r2, #256
 246 0022 5A61     		str	r2, [r3, #20]
 247              	.L17:
 204:Src/stm32f1xx_it.c ****     triggered |= GPIO_PIN_9;
 205:Src/stm32f1xx_it.c ****   }
 206:Src/stm32f1xx_it.c **** 
 207:Src/stm32f1xx_it.c ****   if(__HAL_GPIO_EXTI_GET_IT(GPIO_PIN_7) != RESET)
 248              		.loc 1 207 0
 249 0024 0C4B     		ldr	r3, .L21
 250 0026 5B69     		ldr	r3, [r3, #20]
 251 0028 13F0800F 		tst	r3, #128
 252 002c 02D0     		beq	.L18
 208:Src/stm32f1xx_it.c ****   {
 209:Src/stm32f1xx_it.c ****     /* Clear the EXTI line 13 pending bit */
 210:Src/stm32f1xx_it.c ****     __HAL_GPIO_EXTI_CLEAR_IT(GPIO_PIN_7);
 253              		.loc 1 210 0
 254 002e 0A4B     		ldr	r3, .L21
 255 0030 8022     		movs	r2, #128
 256 0032 5A61     		str	r2, [r3, #20]
 257              	.L18:
 211:Src/stm32f1xx_it.c ****     triggered |= GPIO_PIN_7;
 212:Src/stm32f1xx_it.c ****   }
 213:Src/stm32f1xx_it.c **** 
 214:Src/stm32f1xx_it.c ****   if(__HAL_GPIO_EXTI_GET_IT(GPIO_PIN_6) != RESET)
 258              		.loc 1 214 0
 259 0034 084B     		ldr	r3, .L21
 260 0036 5B69     		ldr	r3, [r3, #20]
 261 0038 13F0400F 		tst	r3, #64
ARM GAS  /var/folders/l3/4y5292px21b4835bsnjwqc7w009kq1/T//ccDtvfvV.s 			page 9


 262 003c 02D0     		beq	.L19
 215:Src/stm32f1xx_it.c ****   {
 216:Src/stm32f1xx_it.c ****     /* Clear the EXTI line 13 pending bit */
 217:Src/stm32f1xx_it.c ****     __HAL_GPIO_EXTI_CLEAR_IT(GPIO_PIN_6);
 263              		.loc 1 217 0
 264 003e 064B     		ldr	r3, .L21
 265 0040 4022     		movs	r2, #64
 266 0042 5A61     		str	r2, [r3, #20]
 267              	.L19:
 218:Src/stm32f1xx_it.c ****     triggered |= GPIO_PIN_6;
 219:Src/stm32f1xx_it.c ****   }
 220:Src/stm32f1xx_it.c ****   if(__HAL_GPIO_EXTI_GET_IT(GPIO_PIN_5) != RESET)
 268              		.loc 1 220 0
 269 0044 044B     		ldr	r3, .L21
 270 0046 5B69     		ldr	r3, [r3, #20]
 271 0048 13F0200F 		tst	r3, #32
 272 004c 02D0     		beq	.L15
 221:Src/stm32f1xx_it.c ****   {
 222:Src/stm32f1xx_it.c ****     /* Clear the EXTI line 13 pending bit */
 223:Src/stm32f1xx_it.c ****     __HAL_GPIO_EXTI_CLEAR_IT(GPIO_PIN_5);
 273              		.loc 1 223 0
 274 004e 024B     		ldr	r3, .L21
 275 0050 2022     		movs	r2, #32
 276 0052 5A61     		str	r2, [r3, #20]
 277              	.L15:
 224:Src/stm32f1xx_it.c ****     triggered |= GPIO_PIN_5;
 225:Src/stm32f1xx_it.c ****   }
 226:Src/stm32f1xx_it.c ****  
 227:Src/stm32f1xx_it.c **** #ifdef HALL_INTERRUPTS
 228:Src/stm32f1xx_it.c ****   if (triggered & HALL_PIN_MASK)
 229:Src/stm32f1xx_it.c ****     HallInterruptsInterrupt();
 230:Src/stm32f1xx_it.c **** #endif
 231:Src/stm32f1xx_it.c **** 
 232:Src/stm32f1xx_it.c **** // shared interrupt for these pins, depending on where the sfotware serial pin is
 233:Src/stm32f1xx_it.c **** #ifdef SOFTWARE_SERIAL
 234:Src/stm32f1xx_it.c ****   if (triggered & SOFTWARE_SERIAL_RX_PIN){
 235:Src/stm32f1xx_it.c ****       softwareserialRXInterrupt();
 236:Src/stm32f1xx_it.c ****   }
 237:Src/stm32f1xx_it.c **** #endif
 238:Src/stm32f1xx_it.c **** } 
 278              		.loc 1 238 0
 279 0054 7047     		bx	lr
 280              	.L22:
 281 0056 00BF     		.align	2
 282              	.L21:
 283 0058 00040140 		.word	1073808384
 284              		.cfi_endproc
 285              	.LFE135:
 287              		.section	.text.EXTI15_10_IRQHandler,"ax",%progbits
 288              		.align	1
 289              		.global	EXTI15_10_IRQHandler
 290              		.syntax unified
 291              		.thumb
 292              		.thumb_func
 293              		.fpu fpv4-sp-d16
 295              	EXTI15_10_IRQHandler:
 296              	.LFB136:
ARM GAS  /var/folders/l3/4y5292px21b4835bsnjwqc7w009kq1/T//ccDtvfvV.s 			page 10


 239:Src/stm32f1xx_it.c **** 
 240:Src/stm32f1xx_it.c **** /////////////////////////////////////////////////////////////////////
 241:Src/stm32f1xx_it.c **** // actual IRQ for RIGHT pins 10, 11, 12
 242:Src/stm32f1xx_it.c **** void EXTI15_10_IRQHandler(void)
 243:Src/stm32f1xx_it.c **** {
 297              		.loc 1 243 0
 298              		.cfi_startproc
 299              		@ args = 0, pretend = 0, frame = 0
 300              		@ frame_needed = 0, uses_anonymous_args = 0
 301              		@ link register save eliminated.
 302              	.LVL4:
 244:Src/stm32f1xx_it.c ****   unsigned long triggered = 0;
 245:Src/stm32f1xx_it.c ****   if(__HAL_GPIO_EXTI_GET_IT(GPIO_PIN_15) != RESET)
 303              		.loc 1 245 0
 304 0000 1B4B     		ldr	r3, .L30
 305 0002 5B69     		ldr	r3, [r3, #20]
 306 0004 13F4004F 		tst	r3, #32768
 307 0008 03D0     		beq	.L24
 246:Src/stm32f1xx_it.c ****   {
 247:Src/stm32f1xx_it.c ****     /* Clear the EXTI line 8 pending bit */
 248:Src/stm32f1xx_it.c ****     __HAL_GPIO_EXTI_CLEAR_IT(GPIO_PIN_15);
 308              		.loc 1 248 0
 309 000a 194B     		ldr	r3, .L30
 310 000c 4FF40042 		mov	r2, #32768
 311 0010 5A61     		str	r2, [r3, #20]
 312              	.LVL5:
 313              	.L24:
 249:Src/stm32f1xx_it.c ****     triggered |= GPIO_PIN_15;
 250:Src/stm32f1xx_it.c ****   }
 251:Src/stm32f1xx_it.c ****   
 252:Src/stm32f1xx_it.c ****   if(__HAL_GPIO_EXTI_GET_IT(GPIO_PIN_14) != RESET)
 314              		.loc 1 252 0
 315 0012 174B     		ldr	r3, .L30
 316 0014 5B69     		ldr	r3, [r3, #20]
 317 0016 13F4804F 		tst	r3, #16384
 318 001a 03D0     		beq	.L25
 253:Src/stm32f1xx_it.c ****   {
 254:Src/stm32f1xx_it.c ****     /* Clear the EXTI line 9 pending bit */
 255:Src/stm32f1xx_it.c ****     __HAL_GPIO_EXTI_CLEAR_IT(GPIO_PIN_14);
 319              		.loc 1 255 0
 320 001c 144B     		ldr	r3, .L30
 321 001e 4FF48042 		mov	r2, #16384
 322 0022 5A61     		str	r2, [r3, #20]
 323              	.L25:
 256:Src/stm32f1xx_it.c ****     triggered |= GPIO_PIN_14;
 257:Src/stm32f1xx_it.c ****   }
 258:Src/stm32f1xx_it.c **** 
 259:Src/stm32f1xx_it.c ****   if(__HAL_GPIO_EXTI_GET_IT(GPIO_PIN_13) != RESET)
 324              		.loc 1 259 0
 325 0024 124B     		ldr	r3, .L30
 326 0026 5B69     		ldr	r3, [r3, #20]
 327 0028 13F4005F 		tst	r3, #8192
 328 002c 03D0     		beq	.L26
 260:Src/stm32f1xx_it.c ****   {
 261:Src/stm32f1xx_it.c ****     /* Clear the EXTI line 13 pending bit */
 262:Src/stm32f1xx_it.c ****     __HAL_GPIO_EXTI_CLEAR_IT(GPIO_PIN_13);
 329              		.loc 1 262 0
ARM GAS  /var/folders/l3/4y5292px21b4835bsnjwqc7w009kq1/T//ccDtvfvV.s 			page 11


 330 002e 104B     		ldr	r3, .L30
 331 0030 4FF40052 		mov	r2, #8192
 332 0034 5A61     		str	r2, [r3, #20]
 333              	.L26:
 263:Src/stm32f1xx_it.c ****     triggered |= GPIO_PIN_13;
 264:Src/stm32f1xx_it.c ****   }
 265:Src/stm32f1xx_it.c ****   if(__HAL_GPIO_EXTI_GET_IT(GPIO_PIN_12) != RESET)
 334              		.loc 1 265 0
 335 0036 0E4B     		ldr	r3, .L30
 336 0038 5B69     		ldr	r3, [r3, #20]
 337 003a 13F4805F 		tst	r3, #4096
 338 003e 03D0     		beq	.L27
 266:Src/stm32f1xx_it.c ****   {
 267:Src/stm32f1xx_it.c ****     /* Clear the EXTI line 13 pending bit */
 268:Src/stm32f1xx_it.c ****     __HAL_GPIO_EXTI_CLEAR_IT(GPIO_PIN_12);
 339              		.loc 1 268 0
 340 0040 0B4B     		ldr	r3, .L30
 341 0042 4FF48052 		mov	r2, #4096
 342 0046 5A61     		str	r2, [r3, #20]
 343              	.L27:
 269:Src/stm32f1xx_it.c ****     triggered |= GPIO_PIN_12;
 270:Src/stm32f1xx_it.c ****   }
 271:Src/stm32f1xx_it.c ****   if(__HAL_GPIO_EXTI_GET_IT(GPIO_PIN_11) != RESET)
 344              		.loc 1 271 0
 345 0048 094B     		ldr	r3, .L30
 346 004a 5B69     		ldr	r3, [r3, #20]
 347 004c 13F4006F 		tst	r3, #2048
 348 0050 03D0     		beq	.L28
 272:Src/stm32f1xx_it.c ****   {
 273:Src/stm32f1xx_it.c ****     /* Clear the EXTI line 13 pending bit */
 274:Src/stm32f1xx_it.c ****     __HAL_GPIO_EXTI_CLEAR_IT(GPIO_PIN_11);
 349              		.loc 1 274 0
 350 0052 074B     		ldr	r3, .L30
 351 0054 4FF40062 		mov	r2, #2048
 352 0058 5A61     		str	r2, [r3, #20]
 353              	.L28:
 275:Src/stm32f1xx_it.c ****     triggered |= GPIO_PIN_11;
 276:Src/stm32f1xx_it.c ****   }
 277:Src/stm32f1xx_it.c ****   if(__HAL_GPIO_EXTI_GET_IT(GPIO_PIN_10) != RESET)
 354              		.loc 1 277 0
 355 005a 054B     		ldr	r3, .L30
 356 005c 5B69     		ldr	r3, [r3, #20]
 357 005e 13F4806F 		tst	r3, #1024
 358 0062 03D0     		beq	.L23
 278:Src/stm32f1xx_it.c ****   {
 279:Src/stm32f1xx_it.c ****     /* Clear the EXTI line 13 pending bit */
 280:Src/stm32f1xx_it.c ****     __HAL_GPIO_EXTI_CLEAR_IT(GPIO_PIN_10);
 359              		.loc 1 280 0
 360 0064 024B     		ldr	r3, .L30
 361 0066 4FF48062 		mov	r2, #1024
 362 006a 5A61     		str	r2, [r3, #20]
 363              	.L23:
 281:Src/stm32f1xx_it.c ****     triggered |= GPIO_PIN_10;
 282:Src/stm32f1xx_it.c ****   }
 283:Src/stm32f1xx_it.c **** 
 284:Src/stm32f1xx_it.c **** #ifdef HALL_INTERRUPTS
 285:Src/stm32f1xx_it.c ****  if (triggered & HALL_PIN_MASK)
ARM GAS  /var/folders/l3/4y5292px21b4835bsnjwqc7w009kq1/T//ccDtvfvV.s 			page 12


 286:Src/stm32f1xx_it.c ****    HallInterruptsInterrupt();
 287:Src/stm32f1xx_it.c **** #endif
 288:Src/stm32f1xx_it.c **** 
 289:Src/stm32f1xx_it.c **** } 
 364              		.loc 1 289 0
 365 006c 7047     		bx	lr
 366              	.L31:
 367 006e 00BF     		.align	2
 368              	.L30:
 369 0070 00040140 		.word	1073808384
 370              		.cfi_endproc
 371              	.LFE136:
 373              		.section	.text.DMA1_Channel6_IRQHandler,"ax",%progbits
 374              		.align	1
 375              		.global	DMA1_Channel6_IRQHandler
 376              		.syntax unified
 377              		.thumb
 378              		.thumb_func
 379              		.fpu fpv4-sp-d16
 381              	DMA1_Channel6_IRQHandler:
 382              	.LFB137:
 290:Src/stm32f1xx_it.c **** 
 291:Src/stm32f1xx_it.c **** #ifdef CONTROL_SERIAL_USART2
 292:Src/stm32f1xx_it.c **** void DMA1_Channel6_IRQHandler(void)
 293:Src/stm32f1xx_it.c **** {
 383              		.loc 1 293 0
 384              		.cfi_startproc
 385              		@ args = 0, pretend = 0, frame = 0
 386              		@ frame_needed = 0, uses_anonymous_args = 0
 387 0000 08B5     		push	{r3, lr}
 388              	.LCFI1:
 389              		.cfi_def_cfa_offset 8
 390              		.cfi_offset 3, -8
 391              		.cfi_offset 14, -4
 294:Src/stm32f1xx_it.c ****   /* USER CODE BEGIN DMA1_Channel4_IRQn 0 */
 295:Src/stm32f1xx_it.c **** 
 296:Src/stm32f1xx_it.c ****   /* USER CODE END DMA1_Channel4_IRQn 0 */
 297:Src/stm32f1xx_it.c ****   HAL_DMA_IRQHandler(&hdma_usart2_rx);
 392              		.loc 1 297 0
 393 0002 0248     		ldr	r0, .L34
 394 0004 FFF7FEFF 		bl	HAL_DMA_IRQHandler
 395              	.LVL6:
 298:Src/stm32f1xx_it.c ****   /* USER CODE BEGIN DMA1_Channel4_IRQn 1 */
 299:Src/stm32f1xx_it.c **** 
 300:Src/stm32f1xx_it.c ****   /* USER CODE END DMA1_Channel4_IRQn 1 */
 301:Src/stm32f1xx_it.c **** }
 396              		.loc 1 301 0
 397 0008 08BD     		pop	{r3, pc}
 398              	.L35:
 399 000a 00BF     		.align	2
 400              	.L34:
 401 000c 00000000 		.word	hdma_usart2_rx
 402              		.cfi_endproc
 403              	.LFE137:
 405              		.section	.text.DMA1_Channel7_IRQHandler,"ax",%progbits
 406              		.align	1
 407              		.global	DMA1_Channel7_IRQHandler
ARM GAS  /var/folders/l3/4y5292px21b4835bsnjwqc7w009kq1/T//ccDtvfvV.s 			page 13


 408              		.syntax unified
 409              		.thumb
 410              		.thumb_func
 411              		.fpu fpv4-sp-d16
 413              	DMA1_Channel7_IRQHandler:
 414              	.LFB138:
 302:Src/stm32f1xx_it.c **** 
 303:Src/stm32f1xx_it.c **** /**
 304:Src/stm32f1xx_it.c **** * @brief This function handles DMA1 channel5 global interrupt.
 305:Src/stm32f1xx_it.c **** */
 306:Src/stm32f1xx_it.c **** void DMA1_Channel7_IRQHandler(void)
 307:Src/stm32f1xx_it.c **** {
 415              		.loc 1 307 0
 416              		.cfi_startproc
 417              		@ args = 0, pretend = 0, frame = 0
 418              		@ frame_needed = 0, uses_anonymous_args = 0
 419 0000 08B5     		push	{r3, lr}
 420              	.LCFI2:
 421              		.cfi_def_cfa_offset 8
 422              		.cfi_offset 3, -8
 423              		.cfi_offset 14, -4
 308:Src/stm32f1xx_it.c ****   /* USER CODE BEGIN DMA1_Channel5_IRQn 0 */
 309:Src/stm32f1xx_it.c **** 
 310:Src/stm32f1xx_it.c ****   /* USER CODE END DMA1_Channel5_IRQn 0 */
 311:Src/stm32f1xx_it.c ****   HAL_DMA_IRQHandler(&hdma_usart2_tx);
 424              		.loc 1 311 0
 425 0002 0248     		ldr	r0, .L38
 426 0004 FFF7FEFF 		bl	HAL_DMA_IRQHandler
 427              	.LVL7:
 312:Src/stm32f1xx_it.c ****   /* USER CODE BEGIN DMA1_Channel5_IRQn 1 */
 313:Src/stm32f1xx_it.c **** 
 314:Src/stm32f1xx_it.c ****   /* USER CODE END DMA1_Channel5_IRQn 1 */
 315:Src/stm32f1xx_it.c **** }
 428              		.loc 1 315 0
 429 0008 08BD     		pop	{r3, pc}
 430              	.L39:
 431 000a 00BF     		.align	2
 432              	.L38:
 433 000c 00000000 		.word	hdma_usart2_tx
 434              		.cfi_endproc
 435              	.LFE138:
 437              		.text
 438              	.Letext0:
 439              		.file 2 "/usr/local/Cellar/gcc-arm-none-eabi/20180627/arm-none-eabi/include/machine/_default_types
 440              		.file 3 "/usr/local/Cellar/gcc-arm-none-eabi/20180627/arm-none-eabi/include/sys/_stdint.h"
 441              		.file 4 "Drivers/CMSIS/CM4/CoreSupport/core_cm4.h"
 442              		.file 5 "Inc/system_at32f4xx.h"
 443              		.file 6 "Drivers/CMSIS/CM4/DeviceSupport/at32f4xx.h"
 444              		.file 7 "/usr/local/Cellar/gcc-arm-none-eabi/20180627/arm-none-eabi/include/sys/lock.h"
 445              		.file 8 "/usr/local/Cellar/gcc-arm-none-eabi/20180627/arm-none-eabi/include/sys/_types.h"
 446              		.file 9 "/usr/local/Cellar/gcc-arm-none-eabi/20180627/lib/gcc/arm-none-eabi/7.3.1/include/stddef.h
 447              		.file 10 "/usr/local/Cellar/gcc-arm-none-eabi/20180627/arm-none-eabi/include/sys/reent.h"
 448              		.file 11 "Drivers/Modified_HAL_Driver/Inc/stm32f1xx_hal_def.h"
 449              		.file 12 "Drivers/Modified_HAL_Driver/Inc/stm32f1xx_hal_dma.h"
 450              		.file 13 "Inc/control_structures.h"
 451              		.file 14 "Drivers/Modified_HAL_Driver/Inc/stm32f1xx_hal.h"
 452              		.file 15 "Drivers/Modified_HAL_Driver/Inc/stm32f1xx_hal_cortex.h"
ARM GAS  /var/folders/l3/4y5292px21b4835bsnjwqc7w009kq1/T//ccDtvfvV.s 			page 14


ARM GAS  /var/folders/l3/4y5292px21b4835bsnjwqc7w009kq1/T//ccDtvfvV.s 			page 15

